

Microchip MPLAB XC8 Assembler V2.32 build 20210201212658 
                                                                                               Mon Jan 03 15:14:47 2022

Microchip MPLAB XC8 C Compiler v2.32 (Free license) build 20210201212658 Og1 
     1                           	processor	16F1454
     2                           	pagewidth 120
     3                           	opt	flic
     4                           	psect	stringtext1,global,class=STRCODE,delta=2,noexec
     5                           	psect	stringtext2,global,class=STRCODE,delta=2,noexec
     6                           	psect	stringtext3,global,class=STRCODE,delta=2,noexec
     7                           	psect	stringtext4,global,class=STRCODE,delta=2,noexec
     8                           	psect	stringtext5,global,class=STRCODE,delta=2,noexec
     9                           	psect	stringtext6,global,class=STRCODE,delta=2,noexec
    10                           	psect	stringtext7,global,class=STRCODE,delta=2,noexec
    11                           	psect	stringtext8,global,class=STRCODE,delta=2,noexec
    12                           	psect	cinit,global,class=CODE,merge=1,delta=2
    13                           	psect	bssBANK1,global,class=BANK1,space=1,delta=1,noexec
    14                           	psect	bssBANK3,global,class=BANK3,space=1,delta=1,noexec
    15                           	psect	bssBANK4,global,class=BANK4,space=1,delta=1,noexec
    16                           	psect	bssBANK5,global,class=BANK5,space=1,delta=1,noexec
    17                           	psect	bssBANK6,global,class=BANK6,space=1,delta=1,noexec
    18                           	psect	bssBANK7,global,class=BANK7,space=1,delta=1,noexec
    19                           	psect	clrtext,global,class=CODE,delta=2
    20                           	psect	cstackBANK4,global,class=BANK4,space=1,delta=1,noexec
    21                           	psect	cstackBANK1,global,class=BANK1,space=1,delta=1,noexec
    22                           	psect	cstackCOMMON,global,class=COMMON,space=1,delta=1,noexec
    23                           	psect	cstackBANK0,global,class=BANK0,space=1,delta=1,noexec
    24                           	psect	maintext,global,class=CODE,merge=1,split=1,delta=2
    25                           	psect	text1,local,class=CODE,merge=1,delta=2,group=3
    26                           	psect	text2,local,class=CODE,merge=1,delta=2,group=1
    27                           	psect	text3,local,class=CODE,merge=1,delta=2,group=1
    28                           	psect	text4,local,class=CODE,merge=1,delta=2,group=3
    29                           	psect	text5,local,class=CODE,merge=1,delta=2,group=3
    30                           	psect	text6,local,class=CODE,merge=1,delta=2
    31                           	psect	text7,local,class=CODE,merge=1,delta=2
    32                           	psect	text8,local,class=CODE,merge=1,delta=2
    33                           	psect	text9,local,class=CODE,merge=1,delta=2
    34                           	psect	text10,local,class=CODE,merge=1,delta=2
    35                           	psect	text11,local,class=CODE,merge=1,delta=2
    36                           	psect	text12,local,class=CODE,merge=1,delta=2
    37                           	psect	text13,local,class=CODE,merge=1,delta=2
    38                           	psect	text14,local,class=CODE,merge=1,delta=2
    39                           	psect	text15,local,class=CODE,merge=1,delta=2
    40                           	psect	text16,local,class=CODE,merge=1,delta=2
    41                           	psect	text17,local,class=CODE,merge=1,delta=2
    42                           	psect	text18,local,class=CODE,merge=1,delta=2
    43                           	psect	intentry,global,class=CODE,delta=2
    44                           	psect	text20,local,class=CODE,merge=1,delta=2
    45                           	psect	text21,local,class=CODE,merge=1,delta=2
    46                           	psect	text22,local,class=CODE,merge=1,delta=2
    47                           	psect	text23,local,class=CODE,merge=1,delta=2
    48                           	psect	text24,local,class=CODE,merge=1,delta=2
    49                           	psect	text25,local,class=CODE,merge=1,delta=2
    50                           	psect	text26,local,class=CODE,merge=1,delta=2
    51                           	psect	text27,local,class=CODE,merge=1,delta=2,group=3
    52                           	psect	text28,local,class=CODE,merge=1,delta=2
    53                           	psect	text29,local,class=CODE,merge=1,delta=2
    54                           	psect	text30,local,class=CODE,merge=1,delta=2
    55                           	psect	text31,local,class=CODE,merge=1,delta=2
    56                           	psect	text32,local,class=CODE,merge=1,delta=2
    57                           	psect	text33,local,class=CODE,merge=1,delta=2,group=3
    58                           	psect	text34,local,class=CODE,merge=1,delta=2
    59                           	psect	text35,local,class=CODE,merge=1,delta=2
    60                           	psect	text36,local,class=CODE,merge=1,delta=2
    61                           	psect	text37,local,class=CODE,merge=1,delta=2
    62                           	psect	text38,local,class=CODE,merge=1,delta=2
    63                           	psect	text39,local,class=CODE,merge=1,delta=2
    64                           	psect	text40,local,class=CODE,merge=1,delta=2
    65                           	psect	text41,local,class=CODE,merge=1,delta=2
    66                           	psect	text42,local,class=CODE,merge=1,delta=2
    67                           	psect	text43,local,class=CODE,merge=1,delta=2
    68                           	psect	text44,local,class=CODE,merge=1,delta=2
    69                           	psect	text45,local,class=CODE,merge=1,delta=2
    70                           	psect	text46,local,class=CODE,merge=1,delta=2
    71                           	psect	text47,local,class=CODE,merge=1,delta=2
    72                           	psect	config,global,abs,ovrld,class=CONFIG,space=4,delta=2,noexec
    73                           	dabs	1,0x1A0,16
    74                           	dabs	1,0x140,48
    75                           	dabs	1,0x120,32
    76                           	dabs	1,0xD0,32
    77                           	dabs	1,0x20,48,_BDT
    78                           	dabs	1,0x58,8,_CtrlTrfData
    79                           	dabs	1,0x50,8,_SetupPkt
    80                           	dabs	1,0x7E,2
    81  0000                     
    82                           ; Version 2.32
    83                           ; Generated 02/02/2021 GMT
    84                           ; 
    85                           ; Copyright © 2021, Microchip Technology Inc. and its subsidiaries ("Microchip")
    86                           ; All rights reserved.
    87                           ; 
    88                           ; This software is developed by Microchip Technology Inc. and its subsidiaries ("Microch
      +                          ip").
    89                           ; 
    90                           ; Redistribution and use in source and binary forms, with or without modification, are
    91                           ; permitted provided that the following conditions are met:
    92                           ; 
    93                           ;     1. Redistributions of source code must retain the above copyright notice, this lis
      +                          t of
    94                           ;        conditions and the following disclaimer.
    95                           ; 
    96                           ;     2. Redistributions in binary form must reproduce the above copyright notice, this 
      +                          list
    97                           ;        of conditions and the following disclaimer in the documentation and/or other
    98                           ;        materials provided with the distribution. Publication is not required when
    99                           ;        this file is used in an embedded application.
   100                           ; 
   101                           ;     3. Microchip's name may not be used to endorse or promote products derived from th
      +                          is
   102                           ;        software without specific prior written permission.
   103                           ; 
   104                           ; THIS SOFTWARE IS PROVIDED BY MICROCHIP "AS IS" AND ANY EXPRESS OR IMPLIED WARRANTIES,
   105                           ; INCLUDING, BUT NOT LIMITED TO, THE IMPLIED WARRANTIES OF MERCHANTABILITY AND FITNESS F
      +                          OR
   106                           ; PURPOSE ARE DISCLAIMED.  IN NO EVENT SHALL MICROCHIP BE LIABLE FOR ANY DIRECT, INDIREC
      +                          T,
   107                           ; INCIDENTAL, SPECIAL, EXEMPLARY, OR CONSEQUENTIAL DAMAGES (INCLUDING BUT NOT LIMITED TO
   108                           ; PROCUREMENT OF SUBSTITUTE GOODS OR SERVICES; LOSS OF USE, DATA OR PROFITS; OR BUSINESS
   109                           ; INTERRUPTION) HOWSOEVER CAUSED AND ON ANY THEORY OF LIABILITY, WHETHER IN CONTRACT, ST
      +                          RICT
   110                           ; LIABILITY, OR TORT (INCLUDING NEGLIGENCE OR OTHERWISE) ARISING IN ANY WAY OUT OF THE U
      +                          SE OF
   111                           ; THIS SOFTWARE, EVEN IF ADVISED OF THE POSSIBILITY OF SUCH DAMAGE.
   112                           ; 
   113                           ; 
   114                           ; Code-generator required, PIC16F1454 Definitions
   115                           ; 
   116                           ; SFR Addresses
   117  0000                     	;# 
   118  0001                     	;# 
   119  0002                     	;# 
   120  0003                     	;# 
   121  0004                     	;# 
   122  0005                     	;# 
   123  0006                     	;# 
   124  0007                     	;# 
   125  0008                     	;# 
   126  0009                     	;# 
   127  000A                     	;# 
   128  000B                     	;# 
   129  000C                     	;# 
   130  000E                     	;# 
   131  0011                     	;# 
   132  0012                     	;# 
   133  0015                     	;# 
   134  0016                     	;# 
   135  0016                     	;# 
   136  0017                     	;# 
   137  0018                     	;# 
   138  0019                     	;# 
   139  001A                     	;# 
   140  001B                     	;# 
   141  001C                     	;# 
   142  008C                     	;# 
   143  008E                     	;# 
   144  0091                     	;# 
   145  0092                     	;# 
   146  0095                     	;# 
   147  0096                     	;# 
   148  0097                     	;# 
   149  0098                     	;# 
   150  0099                     	;# 
   151  009A                     	;# 
   152  010C                     	;# 
   153  010E                     	;# 
   154  0116                     	;# 
   155  0117                     	;# 
   156  011D                     	;# 
   157  018C                     	;# 
   158  018E                     	;# 
   159  0191                     	;# 
   160  0191                     	;# 
   161  0192                     	;# 
   162  0193                     	;# 
   163  0193                     	;# 
   164  0194                     	;# 
   165  0195                     	;# 
   166  0196                     	;# 
   167  0197                     	;# 
   168  0199                     	;# 
   169  019A                     	;# 
   170  019B                     	;# 
   171  019B                     	;# 
   172  019C                     	;# 
   173  019D                     	;# 
   174  019E                     	;# 
   175  019F                     	;# 
   176  020C                     	;# 
   177  0211                     	;# 
   178  0211                     	;# 
   179  0212                     	;# 
   180  0212                     	;# 
   181  0213                     	;# 
   182  0213                     	;# 
   183  0214                     	;# 
   184  0214                     	;# 
   185  0215                     	;# 
   186  0215                     	;# 
   187  0215                     	;# 
   188  0216                     	;# 
   189  0216                     	;# 
   190  0217                     	;# 
   191  0217                     	;# 
   192  0391                     	;# 
   193  0392                     	;# 
   194  0393                     	;# 
   195  039A                     	;# 
   196  039B                     	;# 
   197  0611                     	;# 
   198  0612                     	;# 
   199  0613                     	;# 
   200  0613                     	;# 
   201  0614                     	;# 
   202  0615                     	;# 
   203  0616                     	;# 
   204  0616                     	;# 
   205  0E8E                     	;# 
   206  0E8F                     	;# 
   207  0E90                     	;# 
   208  0E91                     	;# 
   209  0E92                     	;# 
   210  0E93                     	;# 
   211  0E94                     	;# 
   212  0E94                     	;# 
   213  0E95                     	;# 
   214  0E96                     	;# 
   215  0E97                     	;# 
   216  0E98                     	;# 
   217  0E99                     	;# 
   218  0E9A                     	;# 
   219  0E9B                     	;# 
   220  0E9C                     	;# 
   221  0E9D                     	;# 
   222  0E9E                     	;# 
   223  0E9F                     	;# 
   224  0FE4                     	;# 
   225  0FE5                     	;# 
   226  0FE6                     	;# 
   227  0FE7                     	;# 
   228  0FE8                     	;# 
   229  0FE9                     	;# 
   230  0FEA                     	;# 
   231  0FEB                     	;# 
   232  0FED                     	;# 
   233  0FEE                     	;# 
   234  0FEF                     	;# 
   235  0000                     	;# 
   236  0001                     	;# 
   237  0002                     	;# 
   238  0003                     	;# 
   239  0004                     	;# 
   240  0005                     	;# 
   241  0006                     	;# 
   242  0007                     	;# 
   243  0008                     	;# 
   244  0009                     	;# 
   245  000A                     	;# 
   246  000B                     	;# 
   247  000C                     	;# 
   248  000E                     	;# 
   249  0011                     	;# 
   250  0012                     	;# 
   251  0015                     	;# 
   252  0016                     	;# 
   253  0016                     	;# 
   254  0017                     	;# 
   255  0018                     	;# 
   256  0019                     	;# 
   257  001A                     	;# 
   258  001B                     	;# 
   259  001C                     	;# 
   260  008C                     	;# 
   261  008E                     	;# 
   262  0091                     	;# 
   263  0092                     	;# 
   264  0095                     	;# 
   265  0096                     	;# 
   266  0097                     	;# 
   267  0098                     	;# 
   268  0099                     	;# 
   269  009A                     	;# 
   270  010C                     	;# 
   271  010E                     	;# 
   272  0116                     	;# 
   273  0117                     	;# 
   274  011D                     	;# 
   275  018C                     	;# 
   276  018E                     	;# 
   277  0191                     	;# 
   278  0191                     	;# 
   279  0192                     	;# 
   280  0193                     	;# 
   281  0193                     	;# 
   282  0194                     	;# 
   283  0195                     	;# 
   284  0196                     	;# 
   285  0197                     	;# 
   286  0199                     	;# 
   287  019A                     	;# 
   288  019B                     	;# 
   289  019B                     	;# 
   290  019C                     	;# 
   291  019D                     	;# 
   292  019E                     	;# 
   293  019F                     	;# 
   294  020C                     	;# 
   295  0211                     	;# 
   296  0211                     	;# 
   297  0212                     	;# 
   298  0212                     	;# 
   299  0213                     	;# 
   300  0213                     	;# 
   301  0214                     	;# 
   302  0214                     	;# 
   303  0215                     	;# 
   304  0215                     	;# 
   305  0215                     	;# 
   306  0216                     	;# 
   307  0216                     	;# 
   308  0217                     	;# 
   309  0217                     	;# 
   310  0391                     	;# 
   311  0392                     	;# 
   312  0393                     	;# 
   313  039A                     	;# 
   314  039B                     	;# 
   315  0611                     	;# 
   316  0612                     	;# 
   317  0613                     	;# 
   318  0613                     	;# 
   319  0614                     	;# 
   320  0615                     	;# 
   321  0616                     	;# 
   322  0616                     	;# 
   323  0E8E                     	;# 
   324  0E8F                     	;# 
   325  0E90                     	;# 
   326  0E91                     	;# 
   327  0E92                     	;# 
   328  0E93                     	;# 
   329  0E94                     	;# 
   330  0E94                     	;# 
   331  0E95                     	;# 
   332  0E96                     	;# 
   333  0E97                     	;# 
   334  0E98                     	;# 
   335  0E99                     	;# 
   336  0E9A                     	;# 
   337  0E9B                     	;# 
   338  0E9C                     	;# 
   339  0E9D                     	;# 
   340  0E9E                     	;# 
   341  0E9F                     	;# 
   342  0FE4                     	;# 
   343  0FE5                     	;# 
   344  0FE6                     	;# 
   345  0FE7                     	;# 
   346  0FE8                     	;# 
   347  0FE9                     	;# 
   348  0FEA                     	;# 
   349  0FEB                     	;# 
   350  0FED                     	;# 
   351  0FEE                     	;# 
   352  0FEF                     	;# 
   353  0000                     	;# 
   354  0001                     	;# 
   355  0002                     	;# 
   356  0003                     	;# 
   357  0004                     	;# 
   358  0005                     	;# 
   359  0006                     	;# 
   360  0007                     	;# 
   361  0008                     	;# 
   362  0009                     	;# 
   363  000A                     	;# 
   364  000B                     	;# 
   365  000C                     	;# 
   366  000E                     	;# 
   367  0011                     	;# 
   368  0012                     	;# 
   369  0015                     	;# 
   370  0016                     	;# 
   371  0016                     	;# 
   372  0017                     	;# 
   373  0018                     	;# 
   374  0019                     	;# 
   375  001A                     	;# 
   376  001B                     	;# 
   377  001C                     	;# 
   378  008C                     	;# 
   379  008E                     	;# 
   380  0091                     	;# 
   381  0092                     	;# 
   382  0095                     	;# 
   383  0096                     	;# 
   384  0097                     	;# 
   385  0098                     	;# 
   386  0099                     	;# 
   387  009A                     	;# 
   388  010C                     	;# 
   389  010E                     	;# 
   390  0116                     	;# 
   391  0117                     	;# 
   392  011D                     	;# 
   393  018C                     	;# 
   394  018E                     	;# 
   395  0191                     	;# 
   396  0191                     	;# 
   397  0192                     	;# 
   398  0193                     	;# 
   399  0193                     	;# 
   400  0194                     	;# 
   401  0195                     	;# 
   402  0196                     	;# 
   403  0197                     	;# 
   404  0199                     	;# 
   405  019A                     	;# 
   406  019B                     	;# 
   407  019B                     	;# 
   408  019C                     	;# 
   409  019D                     	;# 
   410  019E                     	;# 
   411  019F                     	;# 
   412  020C                     	;# 
   413  0211                     	;# 
   414  0211                     	;# 
   415  0212                     	;# 
   416  0212                     	;# 
   417  0213                     	;# 
   418  0213                     	;# 
   419  0214                     	;# 
   420  0214                     	;# 
   421  0215                     	;# 
   422  0215                     	;# 
   423  0215                     	;# 
   424  0216                     	;# 
   425  0216                     	;# 
   426  0217                     	;# 
   427  0217                     	;# 
   428  0391                     	;# 
   429  0392                     	;# 
   430  0393                     	;# 
   431  039A                     	;# 
   432  039B                     	;# 
   433  0611                     	;# 
   434  0612                     	;# 
   435  0613                     	;# 
   436  0613                     	;# 
   437  0614                     	;# 
   438  0615                     	;# 
   439  0616                     	;# 
   440  0616                     	;# 
   441  0E8E                     	;# 
   442  0E8F                     	;# 
   443  0E90                     	;# 
   444  0E91                     	;# 
   445  0E92                     	;# 
   446  0E93                     	;# 
   447  0E94                     	;# 
   448  0E94                     	;# 
   449  0E95                     	;# 
   450  0E96                     	;# 
   451  0E97                     	;# 
   452  0E98                     	;# 
   453  0E99                     	;# 
   454  0E9A                     	;# 
   455  0E9B                     	;# 
   456  0E9C                     	;# 
   457  0E9D                     	;# 
   458  0E9E                     	;# 
   459  0E9F                     	;# 
   460  0FE4                     	;# 
   461  0FE5                     	;# 
   462  0FE6                     	;# 
   463  0FE7                     	;# 
   464  0FE8                     	;# 
   465  0FE9                     	;# 
   466  0FEA                     	;# 
   467  0FEB                     	;# 
   468  0FED                     	;# 
   469  0FEE                     	;# 
   470  0FEF                     	;# 
   471  0000                     	;# 
   472  0001                     	;# 
   473  0002                     	;# 
   474  0003                     	;# 
   475  0004                     	;# 
   476  0005                     	;# 
   477  0006                     	;# 
   478  0007                     	;# 
   479  0008                     	;# 
   480  0009                     	;# 
   481  000A                     	;# 
   482  000B                     	;# 
   483  000C                     	;# 
   484  000E                     	;# 
   485  0011                     	;# 
   486  0012                     	;# 
   487  0015                     	;# 
   488  0016                     	;# 
   489  0016                     	;# 
   490  0017                     	;# 
   491  0018                     	;# 
   492  0019                     	;# 
   493  001A                     	;# 
   494  001B                     	;# 
   495  001C                     	;# 
   496  008C                     	;# 
   497  008E                     	;# 
   498  0091                     	;# 
   499  0092                     	;# 
   500  0095                     	;# 
   501  0096                     	;# 
   502  0097                     	;# 
   503  0098                     	;# 
   504  0099                     	;# 
   505  009A                     	;# 
   506  010C                     	;# 
   507  010E                     	;# 
   508  0116                     	;# 
   509  0117                     	;# 
   510  011D                     	;# 
   511  018C                     	;# 
   512  018E                     	;# 
   513  0191                     	;# 
   514  0191                     	;# 
   515  0192                     	;# 
   516  0193                     	;# 
   517  0193                     	;# 
   518  0194                     	;# 
   519  0195                     	;# 
   520  0196                     	;# 
   521  0197                     	;# 
   522  0199                     	;# 
   523  019A                     	;# 
   524  019B                     	;# 
   525  019B                     	;# 
   526  019C                     	;# 
   527  019D                     	;# 
   528  019E                     	;# 
   529  019F                     	;# 
   530  020C                     	;# 
   531  0211                     	;# 
   532  0211                     	;# 
   533  0212                     	;# 
   534  0212                     	;# 
   535  0213                     	;# 
   536  0213                     	;# 
   537  0214                     	;# 
   538  0214                     	;# 
   539  0215                     	;# 
   540  0215                     	;# 
   541  0215                     	;# 
   542  0216                     	;# 
   543  0216                     	;# 
   544  0217                     	;# 
   545  0217                     	;# 
   546  0391                     	;# 
   547  0392                     	;# 
   548  0393                     	;# 
   549  039A                     	;# 
   550  039B                     	;# 
   551  0611                     	;# 
   552  0612                     	;# 
   553  0613                     	;# 
   554  0613                     	;# 
   555  0614                     	;# 
   556  0615                     	;# 
   557  0616                     	;# 
   558  0616                     	;# 
   559  0E8E                     	;# 
   560  0E8F                     	;# 
   561  0E90                     	;# 
   562  0E91                     	;# 
   563  0E92                     	;# 
   564  0E93                     	;# 
   565  0E94                     	;# 
   566  0E94                     	;# 
   567  0E95                     	;# 
   568  0E96                     	;# 
   569  0E97                     	;# 
   570  0E98                     	;# 
   571  0E99                     	;# 
   572  0E9A                     	;# 
   573  0E9B                     	;# 
   574  0E9C                     	;# 
   575  0E9D                     	;# 
   576  0E9E                     	;# 
   577  0E9F                     	;# 
   578  0FE4                     	;# 
   579  0FE5                     	;# 
   580  0FE6                     	;# 
   581  0FE7                     	;# 
   582  0FE8                     	;# 
   583  0FE9                     	;# 
   584  0FEA                     	;# 
   585  0FEB                     	;# 
   586  0FED                     	;# 
   587  0FEE                     	;# 
   588  0FEF                     	;# 
   589  0000                     	;# 
   590  0001                     	;# 
   591  0002                     	;# 
   592  0003                     	;# 
   593  0004                     	;# 
   594  0005                     	;# 
   595  0006                     	;# 
   596  0007                     	;# 
   597  0008                     	;# 
   598  0009                     	;# 
   599  000A                     	;# 
   600  000B                     	;# 
   601  000C                     	;# 
   602  000E                     	;# 
   603  0011                     	;# 
   604  0012                     	;# 
   605  0015                     	;# 
   606  0016                     	;# 
   607  0016                     	;# 
   608  0017                     	;# 
   609  0018                     	;# 
   610  0019                     	;# 
   611  001A                     	;# 
   612  001B                     	;# 
   613  001C                     	;# 
   614  008C                     	;# 
   615  008E                     	;# 
   616  0091                     	;# 
   617  0092                     	;# 
   618  0095                     	;# 
   619  0096                     	;# 
   620  0097                     	;# 
   621  0098                     	;# 
   622  0099                     	;# 
   623  009A                     	;# 
   624  010C                     	;# 
   625  010E                     	;# 
   626  0116                     	;# 
   627  0117                     	;# 
   628  011D                     	;# 
   629  018C                     	;# 
   630  018E                     	;# 
   631  0191                     	;# 
   632  0191                     	;# 
   633  0192                     	;# 
   634  0193                     	;# 
   635  0193                     	;# 
   636  0194                     	;# 
   637  0195                     	;# 
   638  0196                     	;# 
   639  0197                     	;# 
   640  0199                     	;# 
   641  019A                     	;# 
   642  019B                     	;# 
   643  019B                     	;# 
   644  019C                     	;# 
   645  019D                     	;# 
   646  019E                     	;# 
   647  019F                     	;# 
   648  020C                     	;# 
   649  0211                     	;# 
   650  0211                     	;# 
   651  0212                     	;# 
   652  0212                     	;# 
   653  0213                     	;# 
   654  0213                     	;# 
   655  0214                     	;# 
   656  0214                     	;# 
   657  0215                     	;# 
   658  0215                     	;# 
   659  0215                     	;# 
   660  0216                     	;# 
   661  0216                     	;# 
   662  0217                     	;# 
   663  0217                     	;# 
   664  0391                     	;# 
   665  0392                     	;# 
   666  0393                     	;# 
   667  039A                     	;# 
   668  039B                     	;# 
   669  0611                     	;# 
   670  0612                     	;# 
   671  0613                     	;# 
   672  0613                     	;# 
   673  0614                     	;# 
   674  0615                     	;# 
   675  0616                     	;# 
   676  0616                     	;# 
   677  0E8E                     	;# 
   678  0E8F                     	;# 
   679  0E90                     	;# 
   680  0E91                     	;# 
   681  0E92                     	;# 
   682  0E93                     	;# 
   683  0E94                     	;# 
   684  0E94                     	;# 
   685  0E95                     	;# 
   686  0E96                     	;# 
   687  0E97                     	;# 
   688  0E98                     	;# 
   689  0E99                     	;# 
   690  0E9A                     	;# 
   691  0E9B                     	;# 
   692  0E9C                     	;# 
   693  0E9D                     	;# 
   694  0E9E                     	;# 
   695  0E9F                     	;# 
   696  0FE4                     	;# 
   697  0FE5                     	;# 
   698  0FE6                     	;# 
   699  0FE7                     	;# 
   700  0FE8                     	;# 
   701  0FE9                     	;# 
   702  0FEA                     	;# 
   703  0FEB                     	;# 
   704  0FED                     	;# 
   705  0FEE                     	;# 
   706  0FEF                     	;# 
   707  0000                     	;# 
   708  0001                     	;# 
   709  0002                     	;# 
   710  0003                     	;# 
   711  0004                     	;# 
   712  0005                     	;# 
   713  0006                     	;# 
   714  0007                     	;# 
   715  0008                     	;# 
   716  0009                     	;# 
   717  000A                     	;# 
   718  000B                     	;# 
   719  000C                     	;# 
   720  000E                     	;# 
   721  0011                     	;# 
   722  0012                     	;# 
   723  0015                     	;# 
   724  0016                     	;# 
   725  0016                     	;# 
   726  0017                     	;# 
   727  0018                     	;# 
   728  0019                     	;# 
   729  001A                     	;# 
   730  001B                     	;# 
   731  001C                     	;# 
   732  008C                     	;# 
   733  008E                     	;# 
   734  0091                     	;# 
   735  0092                     	;# 
   736  0095                     	;# 
   737  0096                     	;# 
   738  0097                     	;# 
   739  0098                     	;# 
   740  0099                     	;# 
   741  009A                     	;# 
   742  010C                     	;# 
   743  010E                     	;# 
   744  0116                     	;# 
   745  0117                     	;# 
   746  011D                     	;# 
   747  018C                     	;# 
   748  018E                     	;# 
   749  0191                     	;# 
   750  0191                     	;# 
   751  0192                     	;# 
   752  0193                     	;# 
   753  0193                     	;# 
   754  0194                     	;# 
   755  0195                     	;# 
   756  0196                     	;# 
   757  0197                     	;# 
   758  0199                     	;# 
   759  019A                     	;# 
   760  019B                     	;# 
   761  019B                     	;# 
   762  019C                     	;# 
   763  019D                     	;# 
   764  019E                     	;# 
   765  019F                     	;# 
   766  020C                     	;# 
   767  0211                     	;# 
   768  0211                     	;# 
   769  0212                     	;# 
   770  0212                     	;# 
   771  0213                     	;# 
   772  0213                     	;# 
   773  0214                     	;# 
   774  0214                     	;# 
   775  0215                     	;# 
   776  0215                     	;# 
   777  0215                     	;# 
   778  0216                     	;# 
   779  0216                     	;# 
   780  0217                     	;# 
   781  0217                     	;# 
   782  0391                     	;# 
   783  0392                     	;# 
   784  0393                     	;# 
   785  039A                     	;# 
   786  039B                     	;# 
   787  0611                     	;# 
   788  0612                     	;# 
   789  0613                     	;# 
   790  0613                     	;# 
   791  0614                     	;# 
   792  0615                     	;# 
   793  0616                     	;# 
   794  0616                     	;# 
   795  0E8E                     	;# 
   796  0E8F                     	;# 
   797  0E90                     	;# 
   798  0E91                     	;# 
   799  0E92                     	;# 
   800  0E93                     	;# 
   801  0E94                     	;# 
   802  0E94                     	;# 
   803  0E95                     	;# 
   804  0E96                     	;# 
   805  0E97                     	;# 
   806  0E98                     	;# 
   807  0E99                     	;# 
   808  0E9A                     	;# 
   809  0E9B                     	;# 
   810  0E9C                     	;# 
   811  0E9D                     	;# 
   812  0E9E                     	;# 
   813  0E9F                     	;# 
   814  0FE4                     	;# 
   815  0FE5                     	;# 
   816  0FE6                     	;# 
   817  0FE7                     	;# 
   818  0FE8                     	;# 
   819  0FE9                     	;# 
   820  0FEA                     	;# 
   821  0FEB                     	;# 
   822  0FED                     	;# 
   823  0FEE                     	;# 
   824  0FEF                     	;# 
   825  0000                     	;# 
   826  0001                     	;# 
   827  0002                     	;# 
   828  0003                     	;# 
   829  0004                     	;# 
   830  0005                     	;# 
   831  0006                     	;# 
   832  0007                     	;# 
   833  0008                     	;# 
   834  0009                     	;# 
   835  000A                     	;# 
   836  000B                     	;# 
   837  000C                     	;# 
   838  000E                     	;# 
   839  0011                     	;# 
   840  0012                     	;# 
   841  0015                     	;# 
   842  0016                     	;# 
   843  0016                     	;# 
   844  0017                     	;# 
   845  0018                     	;# 
   846  0019                     	;# 
   847  001A                     	;# 
   848  001B                     	;# 
   849  001C                     	;# 
   850  008C                     	;# 
   851  008E                     	;# 
   852  0091                     	;# 
   853  0092                     	;# 
   854  0095                     	;# 
   855  0096                     	;# 
   856  0097                     	;# 
   857  0098                     	;# 
   858  0099                     	;# 
   859  009A                     	;# 
   860  010C                     	;# 
   861  010E                     	;# 
   862  0116                     	;# 
   863  0117                     	;# 
   864  011D                     	;# 
   865  018C                     	;# 
   866  018E                     	;# 
   867  0191                     	;# 
   868  0191                     	;# 
   869  0192                     	;# 
   870  0193                     	;# 
   871  0193                     	;# 
   872  0194                     	;# 
   873  0195                     	;# 
   874  0196                     	;# 
   875  0197                     	;# 
   876  0199                     	;# 
   877  019A                     	;# 
   878  019B                     	;# 
   879  019B                     	;# 
   880  019C                     	;# 
   881  019D                     	;# 
   882  019E                     	;# 
   883  019F                     	;# 
   884  020C                     	;# 
   885  0211                     	;# 
   886  0211                     	;# 
   887  0212                     	;# 
   888  0212                     	;# 
   889  0213                     	;# 
   890  0213                     	;# 
   891  0214                     	;# 
   892  0214                     	;# 
   893  0215                     	;# 
   894  0215                     	;# 
   895  0215                     	;# 
   896  0216                     	;# 
   897  0216                     	;# 
   898  0217                     	;# 
   899  0217                     	;# 
   900  0391                     	;# 
   901  0392                     	;# 
   902  0393                     	;# 
   903  039A                     	;# 
   904  039B                     	;# 
   905  0611                     	;# 
   906  0612                     	;# 
   907  0613                     	;# 
   908  0613                     	;# 
   909  0614                     	;# 
   910  0615                     	;# 
   911  0616                     	;# 
   912  0616                     	;# 
   913  0E8E                     	;# 
   914  0E8F                     	;# 
   915  0E90                     	;# 
   916  0E91                     	;# 
   917  0E92                     	;# 
   918  0E93                     	;# 
   919  0E94                     	;# 
   920  0E94                     	;# 
   921  0E95                     	;# 
   922  0E96                     	;# 
   923  0E97                     	;# 
   924  0E98                     	;# 
   925  0E99                     	;# 
   926  0E9A                     	;# 
   927  0E9B                     	;# 
   928  0E9C                     	;# 
   929  0E9D                     	;# 
   930  0E9E                     	;# 
   931  0E9F                     	;# 
   932  0FE4                     	;# 
   933  0FE5                     	;# 
   934  0FE6                     	;# 
   935  0FE7                     	;# 
   936  0FE8                     	;# 
   937  0FE9                     	;# 
   938  0FEA                     	;# 
   939  0FEB                     	;# 
   940  0FED                     	;# 
   941  0FEE                     	;# 
   942  0FEF                     	;# 
   943  0000                     	;# 
   944  0001                     	;# 
   945  0002                     	;# 
   946  0003                     	;# 
   947  0004                     	;# 
   948  0005                     	;# 
   949  0006                     	;# 
   950  0007                     	;# 
   951  0008                     	;# 
   952  0009                     	;# 
   953  000A                     	;# 
   954  000B                     	;# 
   955  000C                     	;# 
   956  000E                     	;# 
   957  0011                     	;# 
   958  0012                     	;# 
   959  0015                     	;# 
   960  0016                     	;# 
   961  0016                     	;# 
   962  0017                     	;# 
   963  0018                     	;# 
   964  0019                     	;# 
   965  001A                     	;# 
   966  001B                     	;# 
   967  001C                     	;# 
   968  008C                     	;# 
   969  008E                     	;# 
   970  0091                     	;# 
   971  0092                     	;# 
   972  0095                     	;# 
   973  0096                     	;# 
   974  0097                     	;# 
   975  0098                     	;# 
   976  0099                     	;# 
   977  009A                     	;# 
   978  010C                     	;# 
   979  010E                     	;# 
   980  0116                     	;# 
   981  0117                     	;# 
   982  011D                     	;# 
   983  018C                     	;# 
   984  018E                     	;# 
   985  0191                     	;# 
   986  0191                     	;# 
   987  0192                     	;# 
   988  0193                     	;# 
   989  0193                     	;# 
   990  0194                     	;# 
   991  0195                     	;# 
   992  0196                     	;# 
   993  0197                     	;# 
   994  0199                     	;# 
   995  019A                     	;# 
   996  019B                     	;# 
   997  019B                     	;# 
   998  019C                     	;# 
   999  019D                     	;# 
  1000  019E                     	;# 
  1001  019F                     	;# 
  1002  020C                     	;# 
  1003  0211                     	;# 
  1004  0211                     	;# 
  1005  0212                     	;# 
  1006  0212                     	;# 
  1007  0213                     	;# 
  1008  0213                     	;# 
  1009  0214                     	;# 
  1010  0214                     	;# 
  1011  0215                     	;# 
  1012  0215                     	;# 
  1013  0215                     	;# 
  1014  0216                     	;# 
  1015  0216                     	;# 
  1016  0217                     	;# 
  1017  0217                     	;# 
  1018  0391                     	;# 
  1019  0392                     	;# 
  1020  0393                     	;# 
  1021  039A                     	;# 
  1022  039B                     	;# 
  1023  0611                     	;# 
  1024  0612                     	;# 
  1025  0613                     	;# 
  1026  0613                     	;# 
  1027  0614                     	;# 
  1028  0615                     	;# 
  1029  0616                     	;# 
  1030  0616                     	;# 
  1031  0E8E                     	;# 
  1032  0E8F                     	;# 
  1033  0E90                     	;# 
  1034  0E91                     	;# 
  1035  0E92                     	;# 
  1036  0E93                     	;# 
  1037  0E94                     	;# 
  1038  0E94                     	;# 
  1039  0E95                     	;# 
  1040  0E96                     	;# 
  1041  0E97                     	;# 
  1042  0E98                     	;# 
  1043  0E99                     	;# 
  1044  0E9A                     	;# 
  1045  0E9B                     	;# 
  1046  0E9C                     	;# 
  1047  0E9D                     	;# 
  1048  0E9E                     	;# 
  1049  0E9F                     	;# 
  1050  0FE4                     	;# 
  1051  0FE5                     	;# 
  1052  0FE6                     	;# 
  1053  0FE7                     	;# 
  1054  0FE8                     	;# 
  1055  0FE9                     	;# 
  1056  0FEA                     	;# 
  1057  0FEB                     	;# 
  1058  0FED                     	;# 
  1059  0FEE                     	;# 
  1060  0FEF                     	;# 
  1061  0000                     	;# 
  1062  0001                     	;# 
  1063  0002                     	;# 
  1064  0003                     	;# 
  1065  0004                     	;# 
  1066  0005                     	;# 
  1067  0006                     	;# 
  1068  0007                     	;# 
  1069  0008                     	;# 
  1070  0009                     	;# 
  1071  000A                     	;# 
  1072  000B                     	;# 
  1073  000C                     	;# 
  1074  000E                     	;# 
  1075  0011                     	;# 
  1076  0012                     	;# 
  1077  0015                     	;# 
  1078  0016                     	;# 
  1079  0016                     	;# 
  1080  0017                     	;# 
  1081  0018                     	;# 
  1082  0019                     	;# 
  1083  001A                     	;# 
  1084  001B                     	;# 
  1085  001C                     	;# 
  1086  008C                     	;# 
  1087  008E                     	;# 
  1088  0091                     	;# 
  1089  0092                     	;# 
  1090  0095                     	;# 
  1091  0096                     	;# 
  1092  0097                     	;# 
  1093  0098                     	;# 
  1094  0099                     	;# 
  1095  009A                     	;# 
  1096  010C                     	;# 
  1097  010E                     	;# 
  1098  0116                     	;# 
  1099  0117                     	;# 
  1100  011D                     	;# 
  1101  018C                     	;# 
  1102  018E                     	;# 
  1103  0191                     	;# 
  1104  0191                     	;# 
  1105  0192                     	;# 
  1106  0193                     	;# 
  1107  0193                     	;# 
  1108  0194                     	;# 
  1109  0195                     	;# 
  1110  0196                     	;# 
  1111  0197                     	;# 
  1112  0199                     	;# 
  1113  019A                     	;# 
  1114  019B                     	;# 
  1115  019B                     	;# 
  1116  019C                     	;# 
  1117  019D                     	;# 
  1118  019E                     	;# 
  1119  019F                     	;# 
  1120  020C                     	;# 
  1121  0211                     	;# 
  1122  0211                     	;# 
  1123  0212                     	;# 
  1124  0212                     	;# 
  1125  0213                     	;# 
  1126  0213                     	;# 
  1127  0214                     	;# 
  1128  0214                     	;# 
  1129  0215                     	;# 
  1130  0215                     	;# 
  1131  0215                     	;# 
  1132  0216                     	;# 
  1133  0216                     	;# 
  1134  0217                     	;# 
  1135  0217                     	;# 
  1136  0391                     	;# 
  1137  0392                     	;# 
  1138  0393                     	;# 
  1139  039A                     	;# 
  1140  039B                     	;# 
  1141  0611                     	;# 
  1142  0612                     	;# 
  1143  0613                     	;# 
  1144  0613                     	;# 
  1145  0614                     	;# 
  1146  0615                     	;# 
  1147  0616                     	;# 
  1148  0616                     	;# 
  1149  0E8E                     	;# 
  1150  0E8F                     	;# 
  1151  0E90                     	;# 
  1152  0E91                     	;# 
  1153  0E92                     	;# 
  1154  0E93                     	;# 
  1155  0E94                     	;# 
  1156  0E94                     	;# 
  1157  0E95                     	;# 
  1158  0E96                     	;# 
  1159  0E97                     	;# 
  1160  0E98                     	;# 
  1161  0E99                     	;# 
  1162  0E9A                     	;# 
  1163  0E9B                     	;# 
  1164  0E9C                     	;# 
  1165  0E9D                     	;# 
  1166  0E9E                     	;# 
  1167  0E9F                     	;# 
  1168  0FE4                     	;# 
  1169  0FE5                     	;# 
  1170  0FE6                     	;# 
  1171  0FE7                     	;# 
  1172  0FE8                     	;# 
  1173  0FE9                     	;# 
  1174  0FEA                     	;# 
  1175  0FEB                     	;# 
  1176  0FED                     	;# 
  1177  0FEE                     	;# 
  1178  0FEF                     	;# 
  1179  0000                     	;# 
  1180  0001                     	;# 
  1181  0002                     	;# 
  1182  0003                     	;# 
  1183  0004                     	;# 
  1184  0005                     	;# 
  1185  0006                     	;# 
  1186  0007                     	;# 
  1187  0008                     	;# 
  1188  0009                     	;# 
  1189  000A                     	;# 
  1190  000B                     	;# 
  1191  000C                     	;# 
  1192  000E                     	;# 
  1193  0011                     	;# 
  1194  0012                     	;# 
  1195  0015                     	;# 
  1196  0016                     	;# 
  1197  0016                     	;# 
  1198  0017                     	;# 
  1199  0018                     	;# 
  1200  0019                     	;# 
  1201  001A                     	;# 
  1202  001B                     	;# 
  1203  001C                     	;# 
  1204  008C                     	;# 
  1205  008E                     	;# 
  1206  0091                     	;# 
  1207  0092                     	;# 
  1208  0095                     	;# 
  1209  0096                     	;# 
  1210  0097                     	;# 
  1211  0098                     	;# 
  1212  0099                     	;# 
  1213  009A                     	;# 
  1214  010C                     	;# 
  1215  010E                     	;# 
  1216  0116                     	;# 
  1217  0117                     	;# 
  1218  011D                     	;# 
  1219  018C                     	;# 
  1220  018E                     	;# 
  1221  0191                     	;# 
  1222  0191                     	;# 
  1223  0192                     	;# 
  1224  0193                     	;# 
  1225  0193                     	;# 
  1226  0194                     	;# 
  1227  0195                     	;# 
  1228  0196                     	;# 
  1229  0197                     	;# 
  1230  0199                     	;# 
  1231  019A                     	;# 
  1232  019B                     	;# 
  1233  019B                     	;# 
  1234  019C                     	;# 
  1235  019D                     	;# 
  1236  019E                     	;# 
  1237  019F                     	;# 
  1238  020C                     	;# 
  1239  0211                     	;# 
  1240  0211                     	;# 
  1241  0212                     	;# 
  1242  0212                     	;# 
  1243  0213                     	;# 
  1244  0213                     	;# 
  1245  0214                     	;# 
  1246  0214                     	;# 
  1247  0215                     	;# 
  1248  0215                     	;# 
  1249  0215                     	;# 
  1250  0216                     	;# 
  1251  0216                     	;# 
  1252  0217                     	;# 
  1253  0217                     	;# 
  1254  0391                     	;# 
  1255  0392                     	;# 
  1256  0393                     	;# 
  1257  039A                     	;# 
  1258  039B                     	;# 
  1259  0611                     	;# 
  1260  0612                     	;# 
  1261  0613                     	;# 
  1262  0613                     	;# 
  1263  0614                     	;# 
  1264  0615                     	;# 
  1265  0616                     	;# 
  1266  0616                     	;# 
  1267  0E8E                     	;# 
  1268  0E8F                     	;# 
  1269  0E90                     	;# 
  1270  0E91                     	;# 
  1271  0E92                     	;# 
  1272  0E93                     	;# 
  1273  0E94                     	;# 
  1274  0E94                     	;# 
  1275  0E95                     	;# 
  1276  0E96                     	;# 
  1277  0E97                     	;# 
  1278  0E98                     	;# 
  1279  0E99                     	;# 
  1280  0E9A                     	;# 
  1281  0E9B                     	;# 
  1282  0E9C                     	;# 
  1283  0E9D                     	;# 
  1284  0E9E                     	;# 
  1285  0E9F                     	;# 
  1286  0FE4                     	;# 
  1287  0FE5                     	;# 
  1288  0FE6                     	;# 
  1289  0FE7                     	;# 
  1290  0FE8                     	;# 
  1291  0FE9                     	;# 
  1292  0FEA                     	;# 
  1293  0FEB                     	;# 
  1294  0FED                     	;# 
  1295  0FEE                     	;# 
  1296  0FEF                     	;_cdc_data_tx
  1297                           
  1298 ;; Function _EUSART_DefaultFramingErrorHandler is unused but had its address taken
  1299  0000                     
  1300 ;; Function _EUSART_DefaultOverrunErrorHandler is unused but had its address taken
  1301  0000                     
  1302 ;; Function _EUSART_DefaultErrorHandler is unused but had its address taken
  1303  0000                     
  1304                           	psect	stringtext1
  1305  10AB                     __pstringtext1:
  1306  10AB                     _USB_SD_Ptr:
  1307  10AB  34A3               	retlw	low (_sd000| (0+32768))
  1308  10AC  3490               	retlw	high (_sd000| (0+32768))
  1309  10AD  3443               	retlw	low (_sd001| (0+32768))
  1310  10AE  3490               	retlw	high (_sd001| (0+32768))
  1311  10AF  3477               	retlw	low (_sd002| (0+32768))
  1312  10B0  3490               	retlw	high (_sd002| (0+32768))
  1313  10B1                     __end_of_USB_SD_Ptr:
  1314                           
  1315                           	psect	stringtext2
  1316  10B1                     __pstringtext2:
  1317  10B1                     _USB_CD_Ptr:
  1318  10B1  3400               	retlw	low (_configDescriptor1| (0+32768))
  1319  10B2  3490               	retlw	high (_configDescriptor1| (0+32768))
  1320  10B3                     __end_of_USB_CD_Ptr:
  1321                           
  1322                           	psect	stringtext3
  1323  1000                     __pstringtext3:
  1324  1000                     _configDescriptor1:
  1325  1000  3409               	retlw	9
  1326  1001  3402               	retlw	2
  1327  1002  3443               	retlw	67
  1328  1003  3400               	retlw	0
  1329  1004  3402               	retlw	2
  1330  1005  3401               	retlw	1
  1331  1006  3400               	retlw	0
  1332  1007  34C0               	retlw	192
  1333  1008  3432               	retlw	50
  1334  1009  3409               	retlw	9
  1335  100A  3404               	retlw	4
  1336  100B  3400               	retlw	0
  1337  100C  3400               	retlw	0
  1338  100D  3401               	retlw	1
  1339  100E  3402               	retlw	2
  1340  100F  3402               	retlw	2
  1341  1010  3401               	retlw	1
  1342  1011  3400               	retlw	0
  1343  1012  3405               	retlw	5
  1344  1013  3424               	retlw	36
  1345  1014  3400               	retlw	0
  1346  1015  3410               	retlw	16
  1347  1016  3401               	retlw	1
  1348  1017  3404               	retlw	4
  1349  1018  3424               	retlw	36
  1350  1019  3402               	retlw	2
  1351  101A  3402               	retlw	2
  1352  101B  3405               	retlw	5
  1353  101C  3424               	retlw	36
  1354  101D  3406               	retlw	6
  1355  101E  3400               	retlw	0
  1356  101F  3401               	retlw	1
  1357  1020  3405               	retlw	5
  1358  1021  3424               	retlw	36
  1359  1022  3401               	retlw	1
  1360  1023  3400               	retlw	0
  1361  1024  3401               	retlw	1
  1362  1025  3407               	retlw	7
  1363  1026  3405               	retlw	5
  1364  1027  3481               	retlw	129
  1365  1028  3403               	retlw	3
  1366  1029  340A               	retlw	10
  1367  102A  3400               	retlw	0
  1368  102B  3402               	retlw	2
  1369  102C  3409               	retlw	9
  1370  102D  3404               	retlw	4
  1371  102E  3401               	retlw	1
  1372  102F  3400               	retlw	0
  1373  1030  3402               	retlw	2
  1374  1031  340A               	retlw	10
  1375  1032  3400               	retlw	0
  1376  1033  3400               	retlw	0
  1377  1034  3400               	retlw	0
  1378  1035  3407               	retlw	7
  1379  1036  3405               	retlw	5
  1380  1037  3402               	retlw	2
  1381  1038  3402               	retlw	2
  1382  1039  3440               	retlw	64
  1383  103A  3400               	retlw	0
  1384  103B  3400               	retlw	0
  1385  103C  3407               	retlw	7
  1386  103D  3405               	retlw	5
  1387  103E  3482               	retlw	130
  1388  103F  3402               	retlw	2
  1389  1040  3440               	retlw	64
  1390  1041  3400               	retlw	0
  1391  1042  3400               	retlw	0
  1392  1043                     __end_of_configDescriptor1:
  1393                           
  1394                           	psect	stringtext4
  1395  1043                     __pstringtext4:
  1396  1043                     _sd001:
  1397  1043  3434               	retlw	52
  1398  1044  3403               	retlw	3
  1399  1045  344D               	retlw	77
  1400  1046  3400               	retlw	0
  1401  1047  3469               	retlw	105
  1402  1048  3400               	retlw	0
  1403  1049  3463               	retlw	99
  1404  104A  3400               	retlw	0
  1405  104B  3472               	retlw	114
  1406  104C  3400               	retlw	0
  1407  104D  346F               	retlw	111
  1408  104E  3400               	retlw	0
  1409  104F  3463               	retlw	99
  1410  1050  3400               	retlw	0
  1411  1051  3468               	retlw	104
  1412  1052  3400               	retlw	0
  1413  1053  3469               	retlw	105
  1414  1054  3400               	retlw	0
  1415  1055  3470               	retlw	112
  1416  1056  3400               	retlw	0
  1417  1057  3420               	retlw	32
  1418  1058  3400               	retlw	0
  1419  1059  3454               	retlw	84
  1420  105A  3400               	retlw	0
  1421  105B  3465               	retlw	101
  1422  105C  3400               	retlw	0
  1423  105D  3463               	retlw	99
  1424  105E  3400               	retlw	0
  1425  105F  3468               	retlw	104
  1426  1060  3400               	retlw	0
  1427  1061  346E               	retlw	110
  1428  1062  3400               	retlw	0
  1429  1063  346F               	retlw	111
  1430  1064  3400               	retlw	0
  1431  1065  346C               	retlw	108
  1432  1066  3400               	retlw	0
  1433  1067  346F               	retlw	111
  1434  1068  3400               	retlw	0
  1435  1069  3467               	retlw	103
  1436  106A  3400               	retlw	0
  1437  106B  3479               	retlw	121
  1438  106C  3400               	retlw	0
  1439  106D  3420               	retlw	32
  1440  106E  3400               	retlw	0
  1441  106F  3449               	retlw	73
  1442  1070  3400               	retlw	0
  1443  1071  346E               	retlw	110
  1444  1072  3400               	retlw	0
  1445  1073  3463               	retlw	99
  1446  1074  3400               	retlw	0
  1447  1075  342E               	retlw	46
  1448  1076  3400               	retlw	0
  1449  1077                     __end_of_sd001:
  1450                           
  1451                           	psect	stringtext5
  1452  1077                     __pstringtext5:
  1453  1077                     _sd002:
  1454  1077  341A               	retlw	26
  1455  1078  3403               	retlw	3
  1456  1079  3450               	retlw	80
  1457  107A  3400               	retlw	0
  1458  107B  3472               	retlw	114
  1459  107C  3400               	retlw	0
  1460  107D  346F               	retlw	111
  1461  107E  3400               	retlw	0
  1462  107F  3464               	retlw	100
  1463  1080  3400               	retlw	0
  1464  1081  3475               	retlw	117
  1465  1082  3400               	retlw	0
  1466  1083  3463               	retlw	99
  1467  1084  3400               	retlw	0
  1468  1085  3474               	retlw	116
  1469  1086  3400               	retlw	0
  1470  1087  3420               	retlw	32
  1471  1088  3400               	retlw	0
  1472  1089  344E               	retlw	78
  1473  108A  3400               	retlw	0
  1474  108B  3461               	retlw	97
  1475  108C  3400               	retlw	0
  1476  108D  346D               	retlw	109
  1477  108E  3400               	retlw	0
  1478  108F  3465               	retlw	101
  1479  1090  3400               	retlw	0
  1480  1091                     __end_of_sd002:
  1481                           
  1482                           	psect	stringtext6
  1483  1091                     __pstringtext6:
  1484  1091                     _device_dsc:
  1485  1091  3412               	retlw	18
  1486  1092  3401               	retlw	1
  1487  1093  3400               	retlw	0
  1488  1094  3402               	retlw	2
  1489  1095  3402               	retlw	2
  1490  1096  3400               	retlw	0
  1491  1097  3400               	retlw	0
  1492  1098  3408               	retlw	8
  1493  1099  34D8               	retlw	216
  1494  109A  3404               	retlw	4
  1495  109B  340A               	retlw	10
  1496  109C  3400               	retlw	0
  1497  109D  3400               	retlw	0
  1498  109E  3401               	retlw	1
  1499  109F  3401               	retlw	1
  1500  10A0  3402               	retlw	2
  1501  10A1  3400               	retlw	0
  1502  10A2  3401               	retlw	1
  1503  10A3                     __end_of_device_dsc:
  1504                           
  1505                           	psect	stringtext7
  1506  10A3                     __pstringtext7:
  1507  10A3                     _sd000:
  1508  10A3  3404               	retlw	4
  1509  10A4  3403               	retlw	3
  1510  10A5  3409               	retlw	9
  1511  10A6  3404               	retlw	4
  1512  10A7                     __end_of_sd000:
  1513  20C0                     _cdc_data_rx	set	8384
  1514  2080                     _cdc_data_tx	set	8320
  1515  0011                     _PIR1bits	set	17
  1516  000B                     _INTCONbits	set	11
  1517  0012                     _PIR2bits	set	18
  1518  0097                     _WDTCON	set	151
  1519  0098                     _OSCTUNE	set	152
  1520  0099                     _OSCCON	set	153
  1521  0095                     _OPTION_REGbits	set	149
  1522  008E                     _TRISC	set	142
  1523  008C                     _TRISA	set	140
  1524  0092                     _PIE2bits	set	146
  1525  04D6                     _PLLRDY	set	1238
  1526  0116                     _BORCON	set	278
  1527  011D                     _APFCON	set	285
  1528  010E                     _LATC	set	270
  1529  010C                     _LATA	set	268
  1530  019A                     _TXREG	set	410
  1531  0199                     _RCREG	set	409
  1532  019D                     _RCSTAbits	set	413
  1533  019E                     _TXSTAbits	set	414
  1534  019C                     _SPBRGH	set	412
  1535  019B                     _SPBRGL	set	411
  1536  019E                     _TXSTA	set	414
  1537  019D                     _RCSTA	set	413
  1538  019F                     _BAUDCON	set	415
  1539  018C                     _ANSELA	set	396
  1540  018E                     _ANSELC	set	398
  1541  020C                     _WPUA	set	524
  1542  039B                     _ACTCON	set	923
  1543  0E98                     _UEP0bits	set	3736
  1544  0E8E                     _UCON	set	3726
  1545  0E8F                     _USTAT	set	3727
  1546  0E92                     _UIEbits	set	3730
  1547  0E90                     _UIRbits	set	3728
  1548  0E96                     _UADDR	set	3734
  1549  0E92                     _UIE	set	3730
  1550  0E97                     _UEIE	set	3735
  1551  0E91                     _UCFG	set	3729
  1552  0E90                     _UIR	set	3728
  1553  0E93                     _UEIR	set	3731
  1554  0E8E                     _UCONbits	set	3726
  1555  0E99                     _UEP1	set	3737
  1556  0E98                     _UEP0	set	3736
  1557  10A7                     STR_1:
  1558  10A7  3457               	retlw	87	;'W'
  1559  10A8  3468               	retlw	104	;'h'
  1560  10A9  3479               	retlw	121	;'y'
  1561  10AA  3400               	retlw	0
  1562                           
  1563                           	psect	stringtext8
  1564  0000                     __pstringtext8:
  1565                           
  1566                           	psect	cinit
  1567  001B                     start_initialization:	
  1568                           ; #config settings
  1569                           
  1570  001B                     __initialization:
  1571                           
  1572                           ; Clear objects allocated to BANK1
  1573  001B  30BE               	movlw	low __pbssBANK1
  1574  001C  0084               	movwf	4
  1575  001D  3000               	movlw	high __pbssBANK1
  1576  001E  0085               	movwf	5
  1577  001F  300D               	movlw	13
  1578  0020  00FE               	movwf	btemp
  1579  0021  3000               	movlw	0
  1580  0022  00FF               	movwf	btemp+1
  1581  0023  3188  208A  3180   	fcall	clear_ram0
  1582                           
  1583                           ; Clear objects allocated to BANK3
  1584  0026  30B0               	movlw	low __pbssBANK3
  1585  0027  0084               	movwf	4
  1586  0028  3001               	movlw	high __pbssBANK3
  1587  0029  0085               	movwf	5
  1588  002A  3040               	movlw	64
  1589  002B  00FE               	movwf	btemp
  1590  002C  3000               	movlw	0
  1591  002D  00FF               	movwf	btemp+1
  1592  002E  3188  208A  3180   	fcall	clear_ram0
  1593                           
  1594                           ; Clear objects allocated to BANK4
  1595  0031  3020               	movlw	low __pbssBANK4
  1596  0032  0084               	movwf	4
  1597  0033  3002               	movlw	high __pbssBANK4
  1598  0034  0085               	movwf	5
  1599  0035  3045               	movlw	69
  1600  0036  00FE               	movwf	btemp
  1601  0037  3000               	movlw	0
  1602  0038  00FF               	movwf	btemp+1
  1603  0039  3188  208A  3180   	fcall	clear_ram0
  1604                           
  1605                           ; Clear objects allocated to BANK5
  1606  003C  30A0               	movlw	low __pbssBANK5
  1607  003D  0084               	movwf	4
  1608  003E  3002               	movlw	high __pbssBANK5
  1609  003F  0085               	movwf	5
  1610  0040  3040               	movlw	64
  1611  0041  00FE               	movwf	btemp
  1612  0042  3000               	movlw	0
  1613  0043  00FF               	movwf	btemp+1
  1614  0044  3188  208A  3180   	fcall	clear_ram0
  1615                           
  1616                           ; Clear objects allocated to BANK6
  1617  0047  3020               	movlw	low __pbssBANK6
  1618  0048  0084               	movwf	4
  1619  0049  3003               	movlw	high __pbssBANK6
  1620  004A  0085               	movwf	5
  1621  004B  3040               	movlw	64
  1622  004C  00FE               	movwf	btemp
  1623  004D  3000               	movlw	0
  1624  004E  00FF               	movwf	btemp+1
  1625  004F  3188  208A  3180   	fcall	clear_ram0
  1626                           
  1627                           ; Clear objects allocated to BANK7
  1628  0052  30A0               	movlw	low __pbssBANK7
  1629  0053  0084               	movwf	4
  1630  0054  3003               	movlw	high __pbssBANK7
  1631  0055  0085               	movwf	5
  1632  0056  3040               	movlw	64
  1633  0057  00FE               	movwf	btemp
  1634  0058  3000               	movlw	0
  1635  0059  00FF               	movwf	btemp+1
  1636  005A  3188  208A  3180   	fcall	clear_ram0
  1637  005D                     end_of_initialization:	
  1638                           ;End of C runtime variable initialization code
  1639                           
  1640  005D                     __end_of__initialization:
  1641  005D  107E               	bcf	int$flags,0	;clear compiler interrupt flag (level 1)
  1642  005E  0020               	movlb	0
  1643  005F  3189  295C         	ljmp	_main	;jump to C main() function
  1644                           
  1645                           	psect	bssBANK1
  1646  00BE                     __pbssBANK1:
  1647  00BE                     _inPipes:
  1648  00BE                     	ds	5
  1649  00C3                     _pBDTEntryEP0OutNext:
  1650  00C3                     	ds	2
  1651  00C5                     _controlTransferState:
  1652  00C5                     	ds	1
  1653  00C6                     _pBDTEntryEP0OutCurrent:
  1654  00C6                     	ds	1
  1655  00C7                     _cdc_trf_state:
  1656  00C7                     	ds	1
  1657  00C8                     _USBDeviceState:
  1658  00C8                     	ds	1
  1659  00C9                     _USTATcopy:
  1660  00C9                     	ds	1
  1661  00CA                     _USBActiveConfiguration:
  1662  00CA                     	ds	1
  1663                           
  1664                           	psect	bssBANK3
  1665  01B0                     __pbssBANK3:
  1666  01B0                     _outPipes:
  1667  01B0                     	ds	7
  1668  01B7                     _pBDTEntryIn:
  1669  01B7                     	ds	6
  1670  01BD                     _pBDTEntryOut:
  1671  01BD                     	ds	6
  1672  01C3                     _USB1msTickCount:
  1673  01C3                     	ds	4
  1674  01C7                     _ep_data_out:
  1675  01C7                     	ds	3
  1676  01CA                     _ep_data_in:
  1677  01CA                     	ds	3
  1678  01CD                     _nout:
  1679  01CD                     	ds	2
  1680  01CF                     _EUSART_OverrunErrorHandler:
  1681  01CF                     	ds	2
  1682  01D1                     _EUSART_FramingErrorHandler:
  1683  01D1                     	ds	2
  1684  01D3                     _CDCDataInHandle:
  1685  01D3                     	ds	2
  1686  01D5                     _CDCDataOutHandle:
  1687  01D5                     	ds	2
  1688  01D7                     _pCDCDst:
  1689  01D7                     	ds	2
  1690  01D9                     _pCDCSrc:
  1691  01D9                     	ds	2
  1692  01DB                     _CDCRxLength:
  1693  01DB                     	ds	1
  1694  01DC                     _eusartRxLastError:
  1695  01DC                     	ds	1
  1696  01DD                     _control_signal_bitmap:
  1697  01DD                     	ds	1
  1698  01DE                     _cdc_mem_type:
  1699  01DE                     	ds	1
  1700  01DF                     _cdc_tx_len:
  1701  01DF                     	ds	1
  1702  01E0                     _cdc_rx_len:
  1703  01E0                     	ds	1
  1704  01E1                     _USBTicksSinceSuspendEnd:
  1705  01E1                     	ds	1
  1706  01E2                     _USBDeferOUTDataStagePackets:
  1707  01E2                     	ds	1
  1708  01E3                     _USBDeferINDataStagePackets:
  1709  01E3                     	ds	1
  1710  01E4                     _USBStatusStageEnabledFlag2:
  1711  01E4                     	ds	1
  1712  01E5                     _USBStatusStageEnabledFlag1:
  1713  01E5                     	ds	1
  1714  01E6                     _USBDeferStatusStagePacket:
  1715  01E6                     	ds	1
  1716  01E7                     _USBStatusStageTimeoutCounter:
  1717  01E7                     	ds	1
  1718  01E8                     _BothEP0OutUOWNsSet:
  1719  01E8                     	ds	1
  1720  01E9                     _endpoint_number:
  1721  01E9                     	ds	1
  1722  01EA                     _USBBusIsSuspended:
  1723  01EA                     	ds	1
  1724  01EB                     _RemoteWakeup:
  1725  01EB                     	ds	1
  1726  01EC                     _pDst:
  1727  01EC                     	ds	1
  1728  01ED                     _shortPacketStatus:
  1729  01ED                     	ds	1
  1730  01EE                     _USBAlternateInterface:
  1731  01EE                     	ds	2
  1732                           
  1733                           	psect	bssBANK4
  1734  0220                     __pbssBANK4:
  1735  0220                     _dbuf:
  1736  0220                     	ds	32
  1737  0240                     _cdc_notice:
  1738  0240                     	ds	10
  1739  024A                     _BaudRateGen:
  1740  024A                     	ds	4
  1741  024E                     _width:
  1742  024E                     	ds	2
  1743  0250                     _prec:
  1744  0250                     	ds	2
  1745  0252                     _flags:
  1746  0252                     	ds	2
  1747  0254                     _EUSART_ErrorHandler:
  1748  0254                     	ds	2
  1749  0256                     _dummy_encapsulated_cmd_response:
  1750  0256                     	ds	8
  1751  025E                     _line_coding:
  1752  025E                     	ds	7
  1753                           
  1754                           	psect	bssBANK5
  1755  02A0                     __pbssBANK5:
  1756  02A0                     _readBuffer:
  1757  02A0                     	ds	64
  1758                           
  1759                           	psect	bssBANK6
  1760  0320                     __pbssBANK6:
  1761  0320                     _writeBuffer:
  1762  0320                     	ds	64
  1763                           
  1764                           	psect	bssBANK7
  1765  03A0                     __pbssBANK7:
  1766  03A0                     _CDCRxBuffer:
  1767  03A0                     	ds	64
  1768                           
  1769                           	psect	clrtext
  1770  088A                     clear_ram0:	
  1771                           ;	Called with FSR0 containing the base address, and
  1772                           ;	btemp/btemp+1 has the size to clear
  1773                           
  1774  088A  0064               	clrwdt	;clear the watchdog before getting into this loop
  1775  088B                     clrloop0:
  1776  088B  0180               	clrf	0	;clear RAM location pointed to by FSR
  1777  088C  3101               	addfsr 0,1
  1778  088D  3001               	movlw	1
  1779  088E  02FE               	subwf	btemp,f
  1780  088F  3000               	movlw	0
  1781  0890  3BFF               	subwfb	btemp+1,f
  1782  0891  087F               	movf	btemp+1,w
  1783  0892  047E               	iorwf	btemp,w
  1784  0893  1D03               	skipz
  1785  0894  288B               	goto	clrloop0	;have we reached the end yet?
  1786  0895  3400               	retlw	0	;all done for this memory range, return
  1787                           
  1788                           	psect	cstackBANK4
  1789  0265                     __pcstackBANK4:
  1790  0265                     ?_printf:
  1791  0265                     printf@fmt:	
  1792                           ; 2 bytes @ 0x0
  1793                           
  1794                           
  1795                           ; 2 bytes @ 0x0
  1796  0265                     	ds	2
  1797  0267                     printf@ap:
  1798                           
  1799                           ; 1 bytes @ 0x2
  1800  0267                     	ds	1
  1801  0268                     ??_main:
  1802                           
  1803                           ; 1 bytes @ 0x3
  1804  0268                     	ds	1
  1805  0269                     main@rxData:
  1806                           
  1807                           ; 1 bytes @ 0x4
  1808  0269                     	ds	1
  1809                           
  1810                           	psect	cstackBANK1
  1811  00A0                     __pcstackBANK1:
  1812  00A0                     ??_USBCtrlEPService:
  1813                           
  1814                           ; 1 bytes @ 0x0
  1815  00A0                     	ds	2
  1816  00A2                     ??_USBDeviceTasks:
  1817                           
  1818                           ; 1 bytes @ 0x2
  1819  00A2                     	ds	2
  1820  00A4                     USBDeviceTasks@i:
  1821                           
  1822                           ; 1 bytes @ 0x4
  1823  00A4                     	ds	1
  1824  00A5                     ??_OSCILLATOR_Initialize:
  1825  00A5                     ??_WDT_Initialize:	
  1826                           ; 1 bytes @ 0x5
  1827                           
  1828  00A5                     ?_EUSART_SetFramingErrorHandler:	
  1829                           ; 1 bytes @ 0x5
  1830                           
  1831  00A5                     ?_EUSART_SetOverrunErrorHandler:	
  1832                           ; 1 bytes @ 0x5
  1833                           
  1834  00A5                     ?_EUSART_SetErrorHandler:	
  1835                           ; 1 bytes @ 0x5
  1836                           
  1837  00A5                     ??_putch:	
  1838                           ; 1 bytes @ 0x5
  1839                           
  1840  00A5                     ??_USBDeviceInit:	
  1841                           ; 1 bytes @ 0x5
  1842                           
  1843  00A5                     ??_USBDeviceAttach:	
  1844                           ; 1 bytes @ 0x5
  1845                           
  1846  00A5                     ??_PIN_MANAGER_Initialize:	
  1847                           ; 1 bytes @ 0x5
  1848                           
  1849  00A5                     ??_EUSART_is_tx_ready:	
  1850                           ; 1 bytes @ 0x5
  1851                           
  1852  00A5                     ??_EUSART_Read:	
  1853                           ; 1 bytes @ 0x5
  1854                           
  1855  00A5                     ??_EUSART_Write:	
  1856                           ; 1 bytes @ 0x5
  1857                           
  1858  00A5                     ?_fputc:	
  1859                           ; 1 bytes @ 0x5
  1860                           
  1861  00A5                     _EUSART_is_tx_ready$2435:	
  1862                           ; 2 bytes @ 0x5
  1863                           
  1864  00A5                     EUSART_Write@txData:	
  1865                           ; 1 bytes @ 0x5
  1866                           
  1867  00A5                     EUSART_SetFramingErrorHandler@interruptHandler:	
  1868                           ; 1 bytes @ 0x5
  1869                           
  1870  00A5                     EUSART_SetOverrunErrorHandler@interruptHandler:	
  1871                           ; 2 bytes @ 0x5
  1872                           
  1873  00A5                     EUSART_SetErrorHandler@interruptHandler:	
  1874                           ; 2 bytes @ 0x5
  1875                           
  1876  00A5                     fputc@c:	
  1877                           ; 2 bytes @ 0x5
  1878                           
  1879                           
  1880                           ; 2 bytes @ 0x5
  1881  00A5                     	ds	1
  1882  00A6                     USBDeviceInit@p:
  1883                           
  1884                           ; 2 bytes @ 0x6
  1885  00A6                     	ds	1
  1886  00A7                     ??_EUSART_Initialize:
  1887  00A7                     ??_EUSART_SetFramingErrorHandler:	
  1888                           ; 1 bytes @ 0x7
  1889                           
  1890  00A7                     ??_EUSART_SetOverrunErrorHandler:	
  1891                           ; 1 bytes @ 0x7
  1892                           
  1893  00A7                     ??_EUSART_SetErrorHandler:	
  1894                           ; 1 bytes @ 0x7
  1895                           
  1896  00A7                     fputc@fp:	
  1897                           ; 1 bytes @ 0x7
  1898                           
  1899                           
  1900                           ; 1 bytes @ 0x7
  1901  00A7                     	ds	1
  1902  00A8                     ??_fputc:
  1903  00A8                     USBDeviceInit@i_771:	
  1904                           ; 1 bytes @ 0x8
  1905                           
  1906                           
  1907                           ; 1 bytes @ 0x8
  1908  00A8                     	ds	1
  1909  00A9                     USBDeviceInit@i:
  1910                           
  1911                           ; 1 bytes @ 0x9
  1912  00A9                     	ds	1
  1913  00AA                     ??_SYSTEM_Initialize:
  1914                           
  1915                           ; 1 bytes @ 0xA
  1916  00AA                     	ds	3
  1917  00AD                     ?_vfpfcnvrt:
  1918  00AD                     vfpfcnvrt@fmt:	
  1919                           ; 2 bytes @ 0xD
  1920                           
  1921                           
  1922                           ; 1 bytes @ 0xD
  1923  00AD                     	ds	1
  1924  00AE                     vfpfcnvrt@ap:
  1925                           
  1926                           ; 1 bytes @ 0xE
  1927  00AE                     	ds	1
  1928  00AF                     ??_vfpfcnvrt:
  1929                           
  1930                           ; 1 bytes @ 0xF
  1931  00AF                     	ds	5
  1932  00B4                     vfpfcnvrt@fp:
  1933                           
  1934                           ; 1 bytes @ 0x14
  1935  00B4                     	ds	1
  1936  00B5                     ?_vfprintf:
  1937  00B5                     vfprintf@fmt:	
  1938                           ; 2 bytes @ 0x15
  1939                           
  1940                           
  1941                           ; 2 bytes @ 0x15
  1942  00B5                     	ds	2
  1943  00B7                     vfprintf@ap:
  1944                           
  1945                           ; 1 bytes @ 0x17
  1946  00B7                     	ds	1
  1947  00B8                     ??_vfprintf:
  1948                           
  1949                           ; 1 bytes @ 0x18
  1950  00B8                     	ds	2
  1951  00BA                     vfprintf@fp:
  1952                           
  1953                           ; 1 bytes @ 0x1A
  1954  00BA                     	ds	1
  1955  00BB                     vfprintf@cfmt:
  1956                           
  1957                           ; 2 bytes @ 0x1B
  1958  00BB                     	ds	2
  1959  00BD                     ??_printf:
  1960                           
  1961                           ; 1 bytes @ 0x1D
  1962  00BD                     	ds	1
  1963                           
  1964                           	psect	cstackCOMMON
  1965  0070                     __pcstackCOMMON:
  1966  0070                     ?_USBWakeFromSuspend:
  1967  0070                     ?_USBSuspend:	
  1968                           ; 1 bytes @ 0x0
  1969                           
  1970  0070                     ?_USBIncrement1msInternalTimers:	
  1971                           ; 1 bytes @ 0x0
  1972                           
  1973  0070                     ??_USBIncrement1msInternalTimers:	
  1974                           ; 1 bytes @ 0x0
  1975                           
  1976  0070                     ?_USBCtrlEPAllowStatusStage:	
  1977                           ; 1 bytes @ 0x0
  1978                           
  1979  0070                     ??_USBCtrlEPAllowStatusStage:	
  1980                           ; 1 bytes @ 0x0
  1981                           
  1982  0070                     ?_USBStallHandler:	
  1983                           ; 1 bytes @ 0x0
  1984                           
  1985  0070                     ??_USBStallHandler:	
  1986                           ; 1 bytes @ 0x0
  1987                           
  1988  0070                     ?_USBCtrlEPService:	
  1989                           ; 1 bytes @ 0x0
  1990                           
  1991  0070                     ?_USBConfigureEndpoint:	
  1992                           ; 1 bytes @ 0x0
  1993                           
  1994  0070                     ?_USBCtrlTrfTxService:	
  1995                           ; 1 bytes @ 0x0
  1996                           
  1997  0070                     ??_USBCtrlTrfTxService:	
  1998                           ; 1 bytes @ 0x0
  1999                           
  2000  0070                     ?_memcpy:	
  2001                           ; 1 bytes @ 0x0
  2002                           
  2003  0070                     ?_USBCtrlTrfSetupHandler:	
  2004                           ; 1 bytes @ 0x0
  2005                           
  2006  0070                     ?_USBCtrlTrfOutHandler:	
  2007                           ; 1 bytes @ 0x0
  2008                           
  2009  0070                     ?_USBCtrlTrfInHandler:	
  2010                           ; 1 bytes @ 0x0
  2011                           
  2012  0070                     ?_USBCheckStdRequest:	
  2013                           ; 1 bytes @ 0x0
  2014                           
  2015  0070                     ?_USBStdFeatureReqHandler:	
  2016                           ; 1 bytes @ 0x0
  2017                           
  2018  0070                     ?_CDCInitEP:	
  2019                           ; 1 bytes @ 0x0
  2020                           
  2021  0070                     ?_USBCheckCDCRequest:	
  2022                           ; 1 bytes @ 0x0
  2023                           
  2024  0070                     ??_USBCheckCDCRequest:	
  2025                           ; 1 bytes @ 0x0
  2026                           
  2027  0070                     ?_OSCILLATOR_Initialize:	
  2028                           ; 1 bytes @ 0x0
  2029                           
  2030  0070                     ?_WDT_Initialize:	
  2031                           ; 1 bytes @ 0x0
  2032                           
  2033  0070                     ?_EUSART_Initialize:	
  2034                           ; 1 bytes @ 0x0
  2035                           
  2036  0070                     ?_putch:	
  2037                           ; 1 bytes @ 0x0
  2038                           
  2039  0070                     ?_USBDeviceInit:	
  2040                           ; 1 bytes @ 0x0
  2041                           
  2042  0070                     ?_USBDeviceTasks:	
  2043                           ; 1 bytes @ 0x0
  2044                           
  2045  0070                     ?_USBDeviceAttach:	
  2046                           ; 1 bytes @ 0x0
  2047                           
  2048  0070                     ?_USBCtrlEPAllowDataStage:	
  2049                           ; 1 bytes @ 0x0
  2050                           
  2051  0070                     ?_USBCtrlEPServiceComplete:	
  2052                           ; 1 bytes @ 0x0
  2053                           
  2054  0070                     ?_USBCtrlTrfRxService:	
  2055                           ; 1 bytes @ 0x0
  2056                           
  2057  0070                     ?_USBStdSetCfgHandler:	
  2058                           ; 1 bytes @ 0x0
  2059                           
  2060  0070                     ?_USBStdGetDscHandler:	
  2061                           ; 1 bytes @ 0x0
  2062                           
  2063  0070                     ??_USBStdGetDscHandler:	
  2064                           ; 1 bytes @ 0x0
  2065                           
  2066  0070                     ?_USBStdGetStatusHandler:	
  2067                           ; 1 bytes @ 0x0
  2068                           
  2069  0070                     ??_USBStdGetStatusHandler:	
  2070                           ; 1 bytes @ 0x0
  2071                           
  2072  0070                     ?_INTERRUPT_InterruptManager:	
  2073                           ; 1 bytes @ 0x0
  2074                           
  2075  0070                     ?_PIN_MANAGER_Initialize:	
  2076                           ; 1 bytes @ 0x0
  2077                           
  2078  0070                     ?_SYSTEM_Initialize:	
  2079                           ; 1 bytes @ 0x0
  2080                           
  2081  0070                     ?_EUSART_is_tx_ready:	
  2082                           ; 1 bytes @ 0x0
  2083                           
  2084  0070                     ?_EUSART_Read:	
  2085                           ; 1 bytes @ 0x0
  2086                           
  2087  0070                     ?_EUSART_Write:	
  2088                           ; 1 bytes @ 0x0
  2089                           
  2090  0070                     ?_main:	
  2091                           ; 1 bytes @ 0x0
  2092                           
  2093  0070                     ?i1_USBDeviceInit:	
  2094                           ; 1 bytes @ 0x0
  2095                           
  2096  0070                     ??i1_USBDeviceInit:	
  2097                           ; 1 bytes @ 0x0
  2098                           
  2099  0070                     ?_memset:	
  2100                           ; 1 bytes @ 0x0
  2101                           
  2102  0070                     ?_USBTransferOnePacket:	
  2103                           ; 2 bytes @ 0x0
  2104                           
  2105  0070                     USBTransferOnePacket@dir:	
  2106                           ; 2 bytes @ 0x0
  2107                           
  2108  0070                     USBConfigureEndpoint@direction:	
  2109                           ; 1 bytes @ 0x0
  2110                           
  2111  0070                     putch@c:	
  2112                           ; 1 bytes @ 0x0
  2113                           
  2114  0070                     memcpy@s1:	
  2115                           ; 1 bytes @ 0x0
  2116                           
  2117  0070                     memset@dest:	
  2118                           ; 2 bytes @ 0x0
  2119                           
  2120                           
  2121                           ; 2 bytes @ 0x0
  2122  0070                     	ds	1
  2123  0071                     ??_USBConfigureEndpoint:
  2124  0071                     USBTransferOnePacket@data:	
  2125                           ; 1 bytes @ 0x1
  2126                           
  2127  0071                     i1USBDeviceInit@p:	
  2128                           ; 2 bytes @ 0x1
  2129                           
  2130                           
  2131                           ; 2 bytes @ 0x1
  2132  0071                     	ds	1
  2133  0072                     ??_USBCtrlTrfRxService:
  2134  0072                     USBCtrlTrfTxService@byteToSend:	
  2135                           ; 1 bytes @ 0x2
  2136                           
  2137  0072                     USBStdGetStatusHandler@p:	
  2138                           ; 1 bytes @ 0x2
  2139                           
  2140  0072                     memcpy@n:	
  2141                           ; 2 bytes @ 0x2
  2142                           
  2143  0072                     memset@c:	
  2144                           ; 2 bytes @ 0x2
  2145                           
  2146                           
  2147                           ; 2 bytes @ 0x2
  2148  0072                     	ds	1
  2149  0073                     ??_USBCtrlTrfInHandler:
  2150  0073                     ??_USBCtrlEPAllowDataStage:	
  2151                           ; 1 bytes @ 0x3
  2152                           
  2153  0073                     USBTransferOnePacket@len:	
  2154                           ; 1 bytes @ 0x3
  2155                           
  2156  0073                     i1USBDeviceInit@i_771:	
  2157                           ; 1 bytes @ 0x3
  2158                           
  2159                           
  2160                           ; 1 bytes @ 0x3
  2161  0073                     	ds	1
  2162  0074                     ??_memcpy:
  2163  0074                     ??_USBTransferOnePacket:	
  2164                           ; 1 bytes @ 0x4
  2165                           
  2166  0074                     USBCtrlTrfRxService@i:	
  2167                           ; 1 bytes @ 0x4
  2168                           
  2169  0074                     i1USBDeviceInit@i:	
  2170                           ; 1 bytes @ 0x4
  2171                           
  2172  0074                     memset@n:	
  2173                           ; 1 bytes @ 0x4
  2174                           
  2175                           
  2176                           ; 2 bytes @ 0x4
  2177  0074                     	ds	1
  2178  0075                     ??_USBCtrlEPServiceComplete:
  2179  0075                     USBConfigureEndpoint@EPNum:	
  2180                           ; 1 bytes @ 0x5
  2181                           
  2182  0075                     USBCtrlTrfRxService@byteToRead:	
  2183                           ; 1 bytes @ 0x5
  2184                           
  2185  0075                     USBCtrlTrfInHandler@lastDTS:	
  2186                           ; 1 bytes @ 0x5
  2187                           
  2188  0075                     memcpy@s:	
  2189                           ; 1 bytes @ 0x5
  2190                           
  2191                           
  2192                           ; 2 bytes @ 0x5
  2193  0075                     	ds	1
  2194  0076                     ??_memset:
  2195  0076                     ??_USBCtrlTrfOutHandler:	
  2196                           ; 1 bytes @ 0x6
  2197                           
  2198  0076                     USBConfigureEndpoint@handle:	
  2199                           ; 1 bytes @ 0x6
  2200                           
  2201                           
  2202                           ; 1 bytes @ 0x6
  2203  0076                     	ds	1
  2204  0077                     ?_USBEnableEndpoint:
  2205  0077                     USBEnableEndpoint@options:	
  2206                           ; 1 bytes @ 0x7
  2207                           
  2208  0077                     memcpy@tmp:	
  2209                           ; 1 bytes @ 0x7
  2210                           
  2211                           
  2212                           ; 1 bytes @ 0x7
  2213  0077                     	ds	1
  2214  0078                     ??_USBEnableEndpoint:
  2215  0078                     USBTransferOnePacket@ep:	
  2216                           ; 1 bytes @ 0x8
  2217                           
  2218  0078                     memcpy@d1:	
  2219                           ; 1 bytes @ 0x8
  2220                           
  2221                           
  2222                           ; 1 bytes @ 0x8
  2223  0078                     	ds	1
  2224  0079                     memcpy@d:
  2225  0079                     USBTransferOnePacket@handle:	
  2226                           ; 1 bytes @ 0x9
  2227                           
  2228                           
  2229                           ; 2 bytes @ 0x9
  2230  0079                     	ds	1
  2231  007A                     USBEnableEndpoint@p:
  2232  007A                     memset@k:	
  2233                           ; 2 bytes @ 0xA
  2234                           
  2235                           
  2236                           ; 2 bytes @ 0xA
  2237  007A                     	ds	2
  2238  007C                     USBEnableEndpoint@ep:
  2239  007C                     memset@s:	
  2240                           ; 1 bytes @ 0xC
  2241                           
  2242                           
  2243                           ; 2 bytes @ 0xC
  2244  007C                     	ds	1
  2245  007D                     ??_CDCInitEP:
  2246                           
  2247                           ; 1 bytes @ 0xD
  2248  007D                     	ds	1
  2249  007E                     ??_USER_USB_CALLBACK_EVENT_HANDLER:
  2250  007E                     ??_INTERRUPT_InterruptManager:	
  2251                           ; 1 bytes @ 0xE
  2252                           
  2253                           
  2254                           	psect	cstackBANK0
  2255  0060                     __pcstackBANK0:	
  2256                           ; 1 bytes @ 0xE
  2257                           
  2258  0060                     ?_USER_USB_CALLBACK_EVENT_HANDLER:
  2259  0060                     USER_USB_CALLBACK_EVENT_HANDLER@event:	
  2260                           ; 1 bytes @ 0x0
  2261                           
  2262                           
  2263                           ; 2 bytes @ 0x0
  2264  0060                     	ds	2
  2265  0062                     USER_USB_CALLBACK_EVENT_HANDLER@pdata:
  2266                           
  2267                           ; 2 bytes @ 0x2
  2268  0062                     	ds	2
  2269  0064                     USER_USB_CALLBACK_EVENT_HANDLER@size:
  2270                           
  2271                           ; 2 bytes @ 0x4
  2272  0064                     	ds	2
  2273  0066                     ??_USBWakeFromSuspend:
  2274  0066                     ??_USBSuspend:	
  2275                           ; 1 bytes @ 0x6
  2276                           
  2277  0066                     ??_USBStdFeatureReqHandler:	
  2278                           ; 1 bytes @ 0x6
  2279                           
  2280  0066                     ??_USBStdSetCfgHandler:	
  2281                           ; 1 bytes @ 0x6
  2282                           
  2283                           
  2284                           ; 1 bytes @ 0x6
  2285  0066                     	ds	1
  2286  0067                     USBStdSetCfgHandler@p:
  2287                           
  2288                           ; 2 bytes @ 0x7
  2289  0067                     	ds	1
  2290  0068                     USBStdFeatureReqHandler@pUEP:
  2291                           
  2292                           ; 2 bytes @ 0x8
  2293  0068                     	ds	1
  2294  0069                     USBStdSetCfgHandler@i_1499:
  2295                           
  2296                           ; 1 bytes @ 0x9
  2297  0069                     	ds	1
  2298  006A                     USBStdSetCfgHandler@i:
  2299  006A                     USBStdFeatureReqHandler@current_ep_data:	
  2300                           ; 1 bytes @ 0xA
  2301                           
  2302                           
  2303                           ; 1 bytes @ 0xA
  2304  006A                     	ds	1
  2305  006B                     USBStdFeatureReqHandler@p:
  2306                           
  2307                           ; 2 bytes @ 0xB
  2308  006B                     	ds	2
  2309  006D                     ??_USBCheckStdRequest:
  2310                           
  2311                           ; 1 bytes @ 0xD
  2312  006D                     	ds	2
  2313  006F                     ??_USBCtrlTrfSetupHandler:
  2314                           
  2315                           ; 1 bytes @ 0xF
  2316  006F                     	ds	1
  2317                           
  2318                           	psect	maintext
  2319  095C                     __pmaintext:	
  2320 ;;
  2321 ;;Main: autosize = 0, tempsize = 1, incstack = 0, save=0
  2322 ;;
  2323 ;; *************** function _main *****************
  2324 ;; Defined at:
  2325 ;;		line 93 in file "main.c"
  2326 ;; Parameters:    Size  Location     Type
  2327 ;;		None
  2328 ;; Auto vars:     Size  Location     Type
  2329 ;;  rxData          1    4[BANK4 ] volatile unsigned char 
  2330 ;; Return value:  Size  Location     Type
  2331 ;;                  1    wreg      void 
  2332 ;; Registers used:
  2333 ;;		wreg, fsr0l, fsr0h, fsr1l, fsr1h, status,2, status,0, pclath, cstack
  2334 ;; Tracked objects:
  2335 ;;		On entry : B1F/0
  2336 ;;		On exit  : 0/0
  2337 ;;		Unchanged: 0/0
  2338 ;; Data sizes:     COMMON   BANK0   BANK1   BANK2   BANK3   BANK4   BANK5   BANK6   BANK7   BANK8   BANK9  BANK10  BANK1
      +1  BANK12
  2339 ;;      Params:         0       0       0       0       0       0       0       0       0       0       0       0       
      +0       0
  2340 ;;      Locals:         0       0       0       0       0       1       0       0       0       0       0       0       
      +0       0
  2341 ;;      Temps:          0       0       0       0       0       1       0       0       0       0       0       0       
      +0       0
  2342 ;;      Totals:         0       0       0       0       0       2       0       0       0       0       0       0       
      +0       0
  2343 ;;Total ram usage:        2 bytes
  2344 ;; Hardware stack levels required when called: 15
  2345 ;; This function calls:
  2346 ;;		_EUSART_Read
  2347 ;;		_EUSART_Write
  2348 ;;		_EUSART_is_tx_ready
  2349 ;;		_SYSTEM_Initialize
  2350 ;;		_printf
  2351 ;; This function is called by:
  2352 ;;		Startup code after reset
  2353 ;; This function uses a non-reentrant model
  2354 ;;
  2355                           
  2356                           
  2357                           ;psect for function _main
  2358  095C                     _main:
  2359  095C                     l5153:	
  2360                           ;incstack = 0
  2361                           ; Regs used in _main: [wreg-fsr1h+status,2+status,0+pclath+cstack]
  2362                           
  2363                           
  2364                           ;main.c: 178:          volatile uint8_t rxData;;main.c: 181:         SYSTEM_Initialize()
      +                          ;
  2365  095C  3188  20C5  3189   	fcall	_SYSTEM_Initialize
  2366  095F                     l5155:
  2367                           
  2368                           ;main.c: 184:         {;main.c: 186:                 rxData = EUSART_Read();
  2369  095F  3188  20A4  3189   	fcall	_EUSART_Read
  2370  0962  0024               	movlb	4	; select bank4
  2371  0963  00E8               	movwf	??_main^(0+512)
  2372  0964  0868               	movf	??_main^(0+512),w
  2373  0965  00E9               	movwf	main@rxData^(0+512)	;volatile
  2374  0966                     l5157:
  2375                           
  2376                           ;main.c: 187:                 printf("Why");
  2377  0966  30A7               	movlw	low (STR_1| (0+32768))
  2378  0967  00E5               	movwf	printf@fmt^(0+512)
  2379  0968  3090               	movlw	high (STR_1| (0+32768))
  2380  0969  00E6               	movwf	(printf@fmt^(0+512)+1)
  2381  096A  3188  20EC  3189   	fcall	_printf
  2382  096D                     l5159:
  2383                           
  2384                           ;main.c: 188:                 if(EUSART_is_tx_ready())
  2385  096D  3188  20B3  3189   	fcall	_EUSART_is_tx_ready
  2386  0970  3A00               	xorlw	0
  2387  0971  1903               	skipnz
  2388  0972  2974               	goto	u4061
  2389  0973  2975               	goto	u4060
  2390  0974                     u4061:
  2391  0974  295F               	goto	l5155
  2392  0975                     u4060:
  2393  0975                     l5161:
  2394                           
  2395                           ;main.c: 189:                 {;main.c: 190:                     EUSART_Write(rxData);
  2396  0975  0024               	movlb	4	; select bank4
  2397  0976  0869               	movf	main@rxData^(0+512),w	;volatile
  2398  0977  3188  207E  3189   	fcall	_EUSART_Write
  2399  097A  295F               	goto	l5155
  2400  097B  3180  2819         	ljmp	start
  2401  097D                     __end_of_main:
  2402                           
  2403                           	psect	text1
  2404  08EC                     __ptext1:	
  2405 ;; *************** function _printf *****************
  2406 ;; Defined at:
  2407 ;;		line 5 in file "C:\Program Files\Microchip\xc8\v2.32\pic\sources\c99\common\printf.c"
  2408 ;; Parameters:    Size  Location     Type
  2409 ;;  fmt             2    0[BANK4 ] PTR const unsigned char 
  2410 ;;		 -> STR_1(4), 
  2411 ;; Auto vars:     Size  Location     Type
  2412 ;;  ret             2    0        int 
  2413 ;;  ap              1    2[BANK4 ] PTR void [1]
  2414 ;;		 -> ?_printf(2), 
  2415 ;; Return value:  Size  Location     Type
  2416 ;;                  2    0[BANK4 ] int 
  2417 ;; Registers used:
  2418 ;;		wreg, fsr0l, fsr0h, fsr1l, fsr1h, status,2, status,0, pclath, cstack
  2419 ;; Tracked objects:
  2420 ;;		On entry : 0/0
  2421 ;;		On exit  : 0/0
  2422 ;;		Unchanged: 0/0
  2423 ;; Data sizes:     COMMON   BANK0   BANK1   BANK2   BANK3   BANK4   BANK5   BANK6   BANK7   BANK8   BANK9  BANK10  BANK1
      +1  BANK12
  2424 ;;      Params:         0       0       0       0       0       2       0       0       0       0       0       0       
      +0       0
  2425 ;;      Locals:         0       0       0       0       0       1       0       0       0       0       0       0       
      +0       0
  2426 ;;      Temps:          0       0       1       0       0       0       0       0       0       0       0       0       
      +0       0
  2427 ;;      Totals:         0       0       1       0       0       3       0       0       0       0       0       0       
      +0       0
  2428 ;;Total ram usage:        4 bytes
  2429 ;; Hardware stack levels used: 1
  2430 ;; Hardware stack levels required when called: 14
  2431 ;; This function calls:
  2432 ;;		_vfprintf
  2433 ;; This function is called by:
  2434 ;;		_main
  2435 ;; This function uses a non-reentrant model
  2436 ;;
  2437                           
  2438                           
  2439                           ;psect for function _printf
  2440  08EC                     _printf:
  2441  08EC                     l5139:	
  2442                           ;incstack = 0
  2443                           ; Regs used in _printf: [wreg-fsr1h+status,2+status,0+pclath+cstack]
  2444                           
  2445  08EC  3067               	movlw	(low ((?_printf| (0+512)+2)))& (0+255)
  2446  08ED  0021               	movlb	1	; select bank1
  2447  08EE  00BD               	movwf	??_printf^(0+128)
  2448  08EF  083D               	movf	??_printf^(0+128),w
  2449  08F0  0024               	movlb	4	; select bank4
  2450  08F1  00E7               	movwf	printf@ap^(0+512)
  2451  08F2                     l5141:
  2452  08F2  0866               	movf	(printf@fmt+1)^(0+512),w
  2453  08F3  0021               	movlb	1	; select bank1
  2454  08F4  00B6               	movwf	(vfprintf@fmt+1)^(0+128)
  2455  08F5  0024               	movlb	4	; select bank4
  2456  08F6  0865               	movf	printf@fmt^(0+512),w
  2457  08F7  0021               	movlb	1	; select bank1
  2458  08F8  00B5               	movwf	vfprintf@fmt^(0+128)
  2459  08F9  3067               	movlw	(low (printf@ap| (0+512)))& (0+255)
  2460  08FA  00BD               	movwf	??_printf^(0+128)
  2461  08FB  083D               	movf	??_printf^(0+128),w
  2462  08FC  00B7               	movwf	vfprintf@ap^(0+128)
  2463  08FD  3000               	movlw	0
  2464  08FE  318A  2245  3188   	fcall	_vfprintf
  2465  0901                     l1313:
  2466  0901  0008               	return
  2467  0902                     __end_of_printf:
  2468                           
  2469                           	psect	text2
  2470  0A45                     __ptext2:	
  2471 ;; *************** function _vfprintf *****************
  2472 ;; Defined at:
  2473 ;;		line 1390 in file "C:\Program Files\Microchip\xc8\v2.32\pic\sources\c99\common\doprnt.c"
  2474 ;; Parameters:    Size  Location     Type
  2475 ;;  fp              1    wreg     PTR struct _IO_FILE
  2476 ;;		 -> NULL(0), 
  2477 ;;  fmt             2   21[BANK1 ] PTR const unsigned char 
  2478 ;;		 -> STR_1(4), 
  2479 ;;  ap              1   23[BANK1 ] PTR PTR void 
  2480 ;;		 -> printf@ap(1), 
  2481 ;; Auto vars:     Size  Location     Type
  2482 ;;  fp              1   26[BANK1 ] PTR struct _IO_FILE
  2483 ;;		 -> NULL(0), 
  2484 ;;  cfmt            2   27[BANK1 ] PTR unsigned char 
  2485 ;;		 -> STR_1(4), 
  2486 ;; Return value:  Size  Location     Type
  2487 ;;                  2   21[BANK1 ] int 
  2488 ;; Registers used:
  2489 ;;		wreg, fsr0l, fsr0h, fsr1l, fsr1h, status,2, status,0, pclath, cstack
  2490 ;; Tracked objects:
  2491 ;;		On entry : 0/0
  2492 ;;		On exit  : 0/0
  2493 ;;		Unchanged: 0/0
  2494 ;; Data sizes:     COMMON   BANK0   BANK1   BANK2   BANK3   BANK4   BANK5   BANK6   BANK7   BANK8   BANK9  BANK10  BANK1
      +1  BANK12
  2495 ;;      Params:         0       0       3       0       0       0       0       0       0       0       0       0       
      +0       0
  2496 ;;      Locals:         0       0       3       0       0       0       0       0       0       0       0       0       
      +0       0
  2497 ;;      Temps:          0       0       2       0       0       0       0       0       0       0       0       0       
      +0       0
  2498 ;;      Totals:         0       0       8       0       0       0       0       0       0       0       0       0       
      +0       0
  2499 ;;Total ram usage:        8 bytes
  2500 ;; Hardware stack levels used: 1
  2501 ;; Hardware stack levels required when called: 13
  2502 ;; This function calls:
  2503 ;;		_vfpfcnvrt
  2504 ;; This function is called by:
  2505 ;;		_printf
  2506 ;; This function uses a non-reentrant model
  2507 ;;
  2508                           
  2509                           
  2510                           ;psect for function _vfprintf
  2511  0A45                     _vfprintf:
  2512                           
  2513                           ;incstack = 0
  2514                           ; Regs used in _vfprintf: [wreg-fsr1h+status,2+status,0+pclath+cstack]
  2515                           ;vfprintf@fp stored from wreg
  2516  0A45  0021               	movlb	1	; select bank1
  2517  0A46  00BA               	movwf	vfprintf@fp^(0+128)
  2518  0A47                     l4989:
  2519                           
  2520                           ;C:\Program Files\Microchip\xc8\v2.32\pic\sources\c99\common\doprnt.c: 1390: int vfprint
      +                          f(FILE *fp, const char *fmt, va_list ap);C:\Program Files\Microchip\xc8\v2.32\pic\source
      +                          s\c99\common\doprnt.c: 1391: {;C:\Program Files\Microchip\xc8\v2.32\pic\sources\c99\comm
      +                          on\doprnt.c: 1393:     char *cfmt;;C:\Program Files\Microchip\xc8\v2.32\pic\sources\c99\
      +                          common\doprnt.c: 1395:     cfmt = (char *)fmt;
  2521  0A47  0836               	movf	(vfprintf@fmt+1)^(0+128),w
  2522  0A48  00BC               	movwf	(vfprintf@cfmt+1)^(0+128)
  2523  0A49  0835               	movf	vfprintf@fmt^(0+128),w
  2524  0A4A  00BB               	movwf	vfprintf@cfmt^(0+128)
  2525  0A4B                     l4991:
  2526                           
  2527                           ;C:\Program Files\Microchip\xc8\v2.32\pic\sources\c99\common\doprnt.c: 1396:     nout = 
      +                          0;
  2528  0A4B  0023               	movlb	3	; select bank3
  2529  0A4C  01CD               	clrf	_nout^(0+384)
  2530  0A4D  01CE               	clrf	(_nout+1)^(0+384)
  2531                           
  2532                           ;C:\Program Files\Microchip\xc8\v2.32\pic\sources\c99\common\doprnt.c: 1397:     while (
      +                          *cfmt) {
  2533  0A4E  2A63               	goto	l4995
  2534  0A4F                     l4993:
  2535                           
  2536                           ;C:\Program Files\Microchip\xc8\v2.32\pic\sources\c99\common\doprnt.c: 1398:         nou
      +                          t += vfpfcnvrt(fp, &cfmt, ap);
  2537  0A4F  30BB               	movlw	(low (vfprintf@cfmt| 0))& (0+255)
  2538  0A50  00B8               	movwf	??_vfprintf^(0+128)
  2539  0A51  0838               	movf	??_vfprintf^(0+128),w
  2540  0A52  00AD               	movwf	vfpfcnvrt@fmt^(0+128)
  2541  0A53  0837               	movf	vfprintf@ap^(0+128),w
  2542  0A54  00B9               	movwf	(??_vfprintf+1)^(0+128)
  2543  0A55  0839               	movf	(??_vfprintf+1)^(0+128),w
  2544  0A56  00AE               	movwf	vfpfcnvrt@ap^(0+128)
  2545  0A57  083A               	movf	vfprintf@fp^(0+128),w
  2546  0A58  318E  2677  318A   	fcall	_vfpfcnvrt
  2547  0A5B  0021               	movlb	1	; select bank1
  2548  0A5C  082D               	movf	?_vfpfcnvrt^(0+128),w
  2549  0A5D  0023               	movlb	3	; select bank3
  2550  0A5E  07CD               	addwf	_nout^(0+384),f
  2551  0A5F  0021               	movlb	1	; select bank1
  2552  0A60  082E               	movf	(?_vfpfcnvrt+1)^(0+128),w
  2553  0A61  0023               	movlb	3	; select bank3
  2554  0A62  3DCE               	addwfc	(_nout+1)^(0+384),f
  2555  0A63                     l4995:
  2556                           
  2557                           ;C:\Program Files\Microchip\xc8\v2.32\pic\sources\c99\common\doprnt.c: 1397:     while (
      +                          *cfmt) {
  2558  0A63  0021               	movlb	1	; select bank1
  2559  0A64  083B               	movf	vfprintf@cfmt^(0+128),w
  2560  0A65  0084               	movwf	4
  2561  0A66  083C               	movf	(vfprintf@cfmt+1)^(0+128),w
  2562  0A67  0085               	movwf	5
  2563  0A68  0012               	moviw fsr0++
  2564  0A69  1D03               	btfss	3,2
  2565  0A6A  2A6C               	goto	u3741
  2566  0A6B  2A6D               	goto	u3740
  2567  0A6C                     u3741:
  2568  0A6C  2A4F               	goto	l4993
  2569  0A6D                     u3740:
  2570  0A6D                     l4997:
  2571                           
  2572                           ;C:\Program Files\Microchip\xc8\v2.32\pic\sources\c99\common\doprnt.c: 1400:     return 
      +                          nout;
  2573  0A6D  0023               	movlb	3	; select bank3
  2574  0A6E  084E               	movf	(_nout+1)^(0+384),w
  2575  0A6F  0021               	movlb	1	; select bank1
  2576  0A70  00B6               	movwf	(?_vfprintf+1)^(0+128)
  2577  0A71  0023               	movlb	3	; select bank3
  2578  0A72  084D               	movf	_nout^(0+384),w
  2579  0A73  0021               	movlb	1	; select bank1
  2580  0A74  00B5               	movwf	?_vfprintf^(0+128)
  2581  0A75                     l1352:
  2582  0A75  0008               	return
  2583  0A76                     __end_of_vfprintf:
  2584                           
  2585                           	psect	text3
  2586  0E77                     __ptext3:	
  2587 ;; *************** function _vfpfcnvrt *****************
  2588 ;; Defined at:
  2589 ;;		line 692 in file "C:\Program Files\Microchip\xc8\v2.32\pic\sources\c99\common\doprnt.c"
  2590 ;; Parameters:    Size  Location     Type
  2591 ;;  fp              1    wreg     PTR struct _IO_FILE
  2592 ;;		 -> NULL(0), 
  2593 ;;  fmt             1   13[BANK1 ] PTR PTR unsigned char 
  2594 ;;		 -> vfprintf@cfmt(2), 
  2595 ;;  ap              1   14[BANK1 ] PTR PTR void 
  2596 ;;		 -> printf@ap(1), 
  2597 ;; Auto vars:     Size  Location     Type
  2598 ;;  fp              1   20[BANK1 ] PTR struct _IO_FILE
  2599 ;;		 -> NULL(0), 
  2600 ;;  llu             8    0        unsigned long long 
  2601 ;;  ll              8    0        long long 
  2602 ;;  f               4    0        long long 
  2603 ;;  ct              3    0        unsigned char [3]
  2604 ;;  vp              2    0        PTR void 
  2605 ;;  i               2    0        int 
  2606 ;;  done            2    0        int 
  2607 ;;  cp              2    0        PTR unsigned char 
  2608 ;;  c               1    0        unsigned char 
  2609 ;; Return value:  Size  Location     Type
  2610 ;;                  2   13[BANK1 ] int 
  2611 ;; Registers used:
  2612 ;;		wreg, fsr0l, fsr0h, fsr1l, fsr1h, status,2, status,0, pclath, cstack
  2613 ;; Tracked objects:
  2614 ;;		On entry : 0/0
  2615 ;;		On exit  : 0/0
  2616 ;;		Unchanged: 0/0
  2617 ;; Data sizes:     COMMON   BANK0   BANK1   BANK2   BANK3   BANK4   BANK5   BANK6   BANK7   BANK8   BANK9  BANK10  BANK1
      +1  BANK12
  2618 ;;      Params:         0       0       2       0       0       0       0       0       0       0       0       0       
      +0       0
  2619 ;;      Locals:         0       0       1       0       0       0       0       0       0       0       0       0       
      +0       0
  2620 ;;      Temps:          0       0       5       0       0       0       0       0       0       0       0       0       
      +0       0
  2621 ;;      Totals:         0       0       8       0       0       0       0       0       0       0       0       0       
      +0       0
  2622 ;;Total ram usage:        8 bytes
  2623 ;; Hardware stack levels used: 1
  2624 ;; Hardware stack levels required when called: 12
  2625 ;; This function calls:
  2626 ;;		_fputc
  2627 ;; This function is called by:
  2628 ;;		_vfprintf
  2629 ;; This function uses a non-reentrant model
  2630 ;;
  2631                           
  2632                           
  2633                           ;psect for function _vfpfcnvrt
  2634  0E77                     _vfpfcnvrt:
  2635                           
  2636                           ;incstack = 0
  2637                           ; Regs used in _vfpfcnvrt: [wreg-fsr1h+status,2+status,0+pclath+cstack]
  2638                           ;vfpfcnvrt@fp stored from wreg
  2639  0E77  0021               	movlb	1	; select bank1
  2640  0E78  00B4               	movwf	vfpfcnvrt@fp^(0+128)
  2641  0E79                     l4803:
  2642                           
  2643                           ;C:\Program Files\Microchip\xc8\v2.32\pic\sources\c99\common\doprnt.c: 692: static int v
      +                          fpfcnvrt(FILE *fp, char *fmt[], va_list ap);C:\Program Files\Microchip\xc8\v2.32\pic\sou
      +                          rces\c99\common\doprnt.c: 693: {;C:\Program Files\Microchip\xc8\v2.32\pic\sources\c99\co
      +                          mmon\doprnt.c: 694:     char c, *cp, ct[3];;C:\Program Files\Microchip\xc8\v2.32\pic\sou
      +                          rces\c99\common\doprnt.c: 695:     int done, i;;C:\Program Files\Microchip\xc8\v2.32\pic
      +                          \sources\c99\common\doprnt.c: 696:     long long ll;;C:\Program Files\Microchip\xc8\v2.3
      +                          2\pic\sources\c99\common\doprnt.c: 697:     unsigned long long llu;
  2644  0E79  082D               	movf	vfpfcnvrt@fmt^(0+128),w
  2645  0E7A  0086               	movwf	6
  2646  0E7B  0187               	clrf	7
  2647  0E7C  3F40               	moviw [0]fsr1
  2648  0E7D  00AF               	movwf	??_vfpfcnvrt^(0+128)
  2649  0E7E  3F41               	moviw [1]fsr1
  2650  0E7F  00B0               	movwf	(??_vfpfcnvrt^(0+128)+1)
  2651  0E80  082F               	movf	??_vfpfcnvrt^(0+128),w
  2652  0E81  0084               	movwf	4
  2653  0E82  0830               	movf	(??_vfpfcnvrt+1)^(0+128),w
  2654  0E83  0085               	movwf	5
  2655  0E84  0012               	moviw fsr0++
  2656  0E85  3A25               	xorlw	37
  2657  0E86  1D03               	btfss	3,2
  2658  0E87  2E89               	goto	u3601
  2659  0E88  2E8A               	goto	u3600
  2660  0E89                     u3601:
  2661  0E89  2ED1               	goto	l4827
  2662  0E8A                     u3600:
  2663  0E8A                     l4805:
  2664                           
  2665                           ;C:\Program Files\Microchip\xc8\v2.32\pic\sources\c99\common\doprnt.c: 703:         ++*f
      +                          mt;
  2666  0E8A  082D               	movf	vfpfcnvrt@fmt^(0+128),w
  2667  0E8B  0086               	movwf	6
  2668  0E8C  0187               	clrf	7
  2669  0E8D  3001               	movlw	1
  2670  0E8E  0781               	addwf	1,f
  2671  0E8F  3141               	addfsr 1,1
  2672  0E90  1803               	skipnc
  2673  0E91  0A81               	incf	1,f
  2674  0E92                     l4807:
  2675                           
  2676                           ;C:\Program Files\Microchip\xc8\v2.32\pic\sources\c99\common\doprnt.c: 705:         flag
      +                          s = width = 0;
  2677  0E92  0024               	movlb	4	; select bank4
  2678  0E93  01CE               	clrf	_width^(0+512)
  2679  0E94  01CF               	clrf	(_width+1)^(0+512)
  2680  0E95  01D2               	clrf	_flags^(0+512)
  2681  0E96  01D3               	clrf	(_flags+1)^(0+512)
  2682  0E97                     l4809:
  2683                           
  2684                           ;C:\Program Files\Microchip\xc8\v2.32\pic\sources\c99\common\doprnt.c: 706:         prec
      +                           = -1;
  2685  0E97  30FF               	movlw	255
  2686  0E98  00D0               	movwf	_prec^(0+512)
  2687  0E99  30FF               	movlw	255
  2688  0E9A  00D1               	movwf	(_prec^(0+512)+1)
  2689  0E9B                     l4811:
  2690                           
  2691                           ;C:\Program Files\Microchip\xc8\v2.32\pic\sources\c99\common\doprnt.c: 1372:         if 
      +                          ((*fmt)[0] == '%') {
  2692  0E9B  0021               	movlb	1	; select bank1
  2693  0E9C  082D               	movf	vfpfcnvrt@fmt^(0+128),w
  2694  0E9D  0086               	movwf	6
  2695  0E9E  0187               	clrf	7
  2696  0E9F  3F40               	moviw [0]fsr1
  2697  0EA0  00AF               	movwf	??_vfpfcnvrt^(0+128)
  2698  0EA1  3F41               	moviw [1]fsr1
  2699  0EA2  00B0               	movwf	(??_vfpfcnvrt^(0+128)+1)
  2700  0EA3  082F               	movf	??_vfpfcnvrt^(0+128),w
  2701  0EA4  0084               	movwf	4
  2702  0EA5  0830               	movf	(??_vfpfcnvrt+1)^(0+128),w
  2703  0EA6  0085               	movwf	5
  2704  0EA7  0012               	moviw fsr0++
  2705  0EA8  3A25               	xorlw	37
  2706  0EA9  1D03               	btfss	3,2
  2707  0EAA  2EAC               	goto	u3611
  2708  0EAB  2EAD               	goto	u3610
  2709  0EAC                     u3611:
  2710  0EAC  2EC6               	goto	l4821
  2711  0EAD                     u3610:
  2712  0EAD                     l4813:
  2713                           
  2714                           ;C:\Program Files\Microchip\xc8\v2.32\pic\sources\c99\common\doprnt.c: 1373:            
      +                           ++*fmt;
  2715  0EAD  082D               	movf	vfpfcnvrt@fmt^(0+128),w
  2716  0EAE  0086               	movwf	6
  2717  0EAF  0187               	clrf	7
  2718  0EB0  3001               	movlw	1
  2719  0EB1  0781               	addwf	1,f
  2720  0EB2  3141               	addfsr 1,1
  2721  0EB3  1803               	skipnc
  2722  0EB4  0A81               	incf	1,f
  2723  0EB5                     l4815:
  2724                           
  2725                           ;C:\Program Files\Microchip\xc8\v2.32\pic\sources\c99\common\doprnt.c: 1374:            
      +                           fputc((int)'%', fp);
  2726  0EB5  3025               	movlw	37
  2727  0EB6  00A5               	movwf	fputc@c^(0+128)
  2728  0EB7  3000               	movlw	0
  2729  0EB8  00A6               	movwf	(fputc@c^(0+128)+1)
  2730  0EB9  0834               	movf	vfpfcnvrt@fp^(0+128),w
  2731  0EBA  00AF               	movwf	??_vfpfcnvrt^(0+128)
  2732  0EBB  082F               	movf	??_vfpfcnvrt^(0+128),w
  2733  0EBC  00A7               	movwf	fputc@fp^(0+128)
  2734  0EBD  318B  231A  318E   	fcall	_fputc
  2735  0EC0                     l4817:
  2736                           
  2737                           ;C:\Program Files\Microchip\xc8\v2.32\pic\sources\c99\common\doprnt.c: 1375:            
      +                           return 1;
  2738  0EC0  3001               	movlw	1
  2739  0EC1  0021               	movlb	1	; select bank1
  2740  0EC2  00AD               	movwf	?_vfpfcnvrt^(0+128)
  2741  0EC3  3000               	movlw	0
  2742  0EC4  00AE               	movwf	(?_vfpfcnvrt^(0+128)+1)
  2743  0EC5  2EF4               	goto	l1346
  2744  0EC6                     l4821:
  2745                           
  2746                           ;C:\Program Files\Microchip\xc8\v2.32\pic\sources\c99\common\doprnt.c: 1379:         ++*
      +                          fmt;
  2747  0EC6  082D               	movf	vfpfcnvrt@fmt^(0+128),w
  2748  0EC7  0086               	movwf	6
  2749  0EC8  0187               	clrf	7
  2750  0EC9  3001               	movlw	1
  2751  0ECA  0781               	addwf	1,f
  2752  0ECB  3141               	addfsr 1,1
  2753  0ECC  1803               	skipnc
  2754  0ECD  0A81               	incf	1,f
  2755  0ECE                     l4823:
  2756                           
  2757                           ;C:\Program Files\Microchip\xc8\v2.32\pic\sources\c99\common\doprnt.c: 1380:         ret
      +                          urn 0;
  2758  0ECE  01AD               	clrf	?_vfpfcnvrt^(0+128)
  2759  0ECF  01AE               	clrf	(?_vfpfcnvrt+1)^(0+128)
  2760  0ED0  2EF4               	goto	l1346
  2761  0ED1                     l4827:
  2762                           
  2763                           ;C:\Program Files\Microchip\xc8\v2.32\pic\sources\c99\common\doprnt.c: 1384:     fputc((
      +                          int)(*fmt)[0], fp);
  2764  0ED1  082D               	movf	vfpfcnvrt@fmt^(0+128),w
  2765  0ED2  0086               	movwf	6
  2766  0ED3  0187               	clrf	7
  2767  0ED4  3F40               	moviw [0]fsr1
  2768  0ED5  00AF               	movwf	??_vfpfcnvrt^(0+128)
  2769  0ED6  3F41               	moviw [1]fsr1
  2770  0ED7  00B0               	movwf	(??_vfpfcnvrt^(0+128)+1)
  2771  0ED8  082F               	movf	??_vfpfcnvrt^(0+128),w
  2772  0ED9  0084               	movwf	4
  2773  0EDA  0830               	movf	(??_vfpfcnvrt+1)^(0+128),w
  2774  0EDB  0085               	movwf	5
  2775  0EDC  0800               	movf	0,w	;code access
  2776  0EDD  00B1               	movwf	(??_vfpfcnvrt+2)^(0+128)
  2777  0EDE  01B2               	clrf	((??_vfpfcnvrt+2)^(0+128)+1)
  2778  0EDF  0831               	movf	(??_vfpfcnvrt+2)^(0+128),w
  2779  0EE0  00A5               	movwf	fputc@c^(0+128)
  2780  0EE1  0832               	movf	(??_vfpfcnvrt+3)^(0+128),w
  2781  0EE2  00A6               	movwf	(fputc@c+1)^(0+128)
  2782  0EE3  0834               	movf	vfpfcnvrt@fp^(0+128),w
  2783  0EE4  00B3               	movwf	(??_vfpfcnvrt+4)^(0+128)
  2784  0EE5  0833               	movf	(??_vfpfcnvrt+4)^(0+128),w
  2785  0EE6  00A7               	movwf	fputc@fp^(0+128)
  2786  0EE7  318B  231A  318E   	fcall	_fputc
  2787  0EEA                     l4829:
  2788                           
  2789                           ;C:\Program Files\Microchip\xc8\v2.32\pic\sources\c99\common\doprnt.c: 1385:     ++*fmt;
  2790  0EEA  0021               	movlb	1	; select bank1
  2791  0EEB  082D               	movf	vfpfcnvrt@fmt^(0+128),w
  2792  0EEC  0086               	movwf	6
  2793  0EED  0187               	clrf	7
  2794  0EEE  3001               	movlw	1
  2795  0EEF  0781               	addwf	1,f
  2796  0EF0  3141               	addfsr 1,1
  2797  0EF1  1803               	skipnc
  2798  0EF2  0A81               	incf	1,f
  2799  0EF3  2EC0               	goto	l4817
  2800  0EF4                     l1346:
  2801  0EF4  0008               	return
  2802  0EF5                     __end_of_vfpfcnvrt:
  2803                           
  2804                           	psect	text4
  2805  0B1A                     __ptext4:	
  2806 ;; *************** function _fputc *****************
  2807 ;; Defined at:
  2808 ;;		line 8 in file "C:\Program Files\Microchip\xc8\v2.32\pic\sources\c99\common\nf_fputc.c"
  2809 ;; Parameters:    Size  Location     Type
  2810 ;;  c               2    5[BANK1 ] int 
  2811 ;;  fp              1    7[BANK1 ] PTR struct _IO_FILE
  2812 ;;		 -> NULL(0), 
  2813 ;; Auto vars:     Size  Location     Type
  2814 ;;		None
  2815 ;; Return value:  Size  Location     Type
  2816 ;;                  2    5[BANK1 ] int 
  2817 ;; Registers used:
  2818 ;;		wreg, fsr1l, fsr1h, status,2, status,0, pclath, cstack
  2819 ;; Tracked objects:
  2820 ;;		On entry : 0/0
  2821 ;;		On exit  : 0/0
  2822 ;;		Unchanged: 0/0
  2823 ;; Data sizes:     COMMON   BANK0   BANK1   BANK2   BANK3   BANK4   BANK5   BANK6   BANK7   BANK8   BANK9  BANK10  BANK1
      +1  BANK12
  2824 ;;      Params:         0       0       3       0       0       0       0       0       0       0       0       0       
      +0       0
  2825 ;;      Locals:         0       0       0       0       0       0       0       0       0       0       0       0       
      +0       0
  2826 ;;      Temps:          0       0       5       0       0       0       0       0       0       0       0       0       
      +0       0
  2827 ;;      Totals:         0       0       8       0       0       0       0       0       0       0       0       0       
      +0       0
  2828 ;;Total ram usage:        8 bytes
  2829 ;; Hardware stack levels used: 1
  2830 ;; Hardware stack levels required when called: 11
  2831 ;; This function calls:
  2832 ;;		_putch
  2833 ;; This function is called by:
  2834 ;;		_vfpfcnvrt
  2835 ;; This function uses a non-reentrant model
  2836 ;;
  2837                           
  2838                           
  2839                           ;psect for function _fputc
  2840  0B1A                     _fputc:
  2841  0B1A                     l4757:	
  2842                           ;incstack = 0
  2843                           ; Regs used in _fputc: [wreg+fsr1l+fsr1h+status,2+status,0+pclath+cstack]
  2844                           
  2845  0B1A  0021               	movlb	1	; select bank1
  2846  0B1B  0827               	movf	fputc@fp^(0+128),w
  2847  0B1C  1903               	btfsc	3,2
  2848  0B1D  2B1F               	goto	u3561
  2849  0B1E  2B20               	goto	u3560
  2850  0B1F                     u3561:
  2851  0B1F  2B25               	goto	l4761
  2852  0B20                     u3560:
  2853  0B20                     l4759:
  2854  0B20  0827               	movf	fputc@fp^(0+128),w
  2855  0B21  1D03               	btfss	3,2
  2856  0B22  2B24               	goto	u3571
  2857  0B23  2B25               	goto	u3570
  2858  0B24                     u3571:
  2859  0B24  2B2A               	goto	l4763
  2860  0B25                     u3570:
  2861  0B25                     l4761:
  2862  0B25  0825               	movf	fputc@c^(0+128),w
  2863  0B26  3187  27FE  318B   	fcall	_putch
  2864  0B29  2B5A               	goto	l1364
  2865  0B2A                     l4763:
  2866  0B2A  0827               	movf	fputc@fp^(0+128),w
  2867  0B2B  3E03               	addlw	3
  2868  0B2C  0086               	movwf	6
  2869  0B2D  0187               	clrf	7
  2870  0B2E  0016               	moviw fsr1++
  2871  0B2F  0401               	iorwf	1,w
  2872  0B30  1903               	btfsc	3,2
  2873  0B31  2B33               	goto	u3581
  2874  0B32  2B34               	goto	u3580
  2875  0B33                     u3581:
  2876  0B33  2B51               	goto	l4767
  2877  0B34                     u3580:
  2878  0B34                     l4765:
  2879  0B34  0827               	movf	fputc@fp^(0+128),w
  2880  0B35  3E03               	addlw	3
  2881  0B36  0086               	movwf	6
  2882  0B37  0187               	clrf	7
  2883  0B38  3F40               	moviw [0]fsr1
  2884  0B39  00A8               	movwf	??_fputc^(0+128)
  2885  0B3A  3F41               	moviw [1]fsr1
  2886  0B3B  00A9               	movwf	(??_fputc^(0+128)+1)
  2887  0B3C  0A27               	incf	fputc@fp^(0+128),w
  2888  0B3D  0086               	movwf	6
  2889  0B3E  0187               	clrf	7
  2890  0B3F  3F40               	moviw [0]fsr1
  2891  0B40  00AA               	movwf	(??_fputc+2)^(0+128)
  2892  0B41  3F41               	moviw [1]fsr1
  2893  0B42  00AB               	movwf	((??_fputc+2)^(0+128)+1)
  2894  0B43  082B               	movf	(??_fputc+3)^(0+128),w
  2895  0B44  3A80               	xorlw	128
  2896  0B45  00AC               	movwf	(??_fputc+4)^(0+128)
  2897  0B46  0829               	movf	(??_fputc+1)^(0+128),w
  2898  0B47  3A80               	xorlw	128
  2899  0B48  022C               	subwf	(??_fputc+4)^(0+128),w
  2900  0B49  1D03               	skipz
  2901  0B4A  2B4D               	goto	u3595
  2902  0B4B  0828               	movf	??_fputc^(0+128),w
  2903  0B4C  022A               	subwf	(??_fputc+2)^(0+128),w
  2904  0B4D                     u3595:
  2905  0B4D  1803               	skipnc
  2906  0B4E  2B50               	goto	u3591
  2907  0B4F  2B51               	goto	u3590
  2908  0B50                     u3591:
  2909  0B50  2B5A               	goto	l1364
  2910  0B51                     u3590:
  2911  0B51                     l4767:
  2912  0B51  0021               	movlb	1	; select bank1
  2913  0B52  0A27               	incf	fputc@fp^(0+128),w
  2914  0B53  0086               	movwf	6
  2915  0B54  0187               	clrf	7
  2916  0B55  3001               	movlw	1
  2917  0B56  0781               	addwf	1,f
  2918  0B57  3141               	addfsr 1,1
  2919  0B58  1803               	skipnc
  2920  0B59  0A81               	incf	1,f
  2921  0B5A                     l1364:
  2922  0B5A  0008               	return
  2923  0B5B                     __end_of_fputc:
  2924                           
  2925                           	psect	text5
  2926  07FE                     __ptext5:	
  2927 ;; *************** function _putch *****************
  2928 ;; Defined at:
  2929 ;;		line 7 in file "C:\Program Files\Microchip\xc8\v2.32\pic\sources\c99\common\putch.c"
  2930 ;; Parameters:    Size  Location     Type
  2931 ;;  c               1    wreg     unsigned char 
  2932 ;; Auto vars:     Size  Location     Type
  2933 ;;  c               1    0[COMMON] unsigned char 
  2934 ;; Return value:  Size  Location     Type
  2935 ;;                  1    wreg      void 
  2936 ;; Registers used:
  2937 ;;		wreg
  2938 ;; Tracked objects:
  2939 ;;		On entry : 0/0
  2940 ;;		On exit  : 0/0
  2941 ;;		Unchanged: 0/0
  2942 ;; Data sizes:     COMMON   BANK0   BANK1   BANK2   BANK3   BANK4   BANK5   BANK6   BANK7   BANK8   BANK9  BANK10  BANK1
      +1  BANK12
  2943 ;;      Params:         0       0       0       0       0       0       0       0       0       0       0       0       
      +0       0
  2944 ;;      Locals:         0       0       0       0       0       0       0       0       0       0       0       0       
      +0       0
  2945 ;;      Temps:          0       0       0       0       0       0       0       0       0       0       0       0       
      +0       0
  2946 ;;      Totals:         0       0       0       0       0       0       0       0       0       0       0       0       
      +0       0
  2947 ;;Total ram usage:        0 bytes
  2948 ;; Hardware stack levels used: 1
  2949 ;; Hardware stack levels required when called: 10
  2950 ;; This function calls:
  2951 ;;		Nothing
  2952 ;; This function is called by:
  2953 ;;		_fputc
  2954 ;; This function uses a non-reentrant model
  2955 ;;
  2956                           
  2957                           
  2958                           ;psect for function _putch
  2959  07FE                     _putch:
  2960  07FE                     l1375:	
  2961                           ;incstack = 0
  2962                           ; Regs used in _putch: [wreg]
  2963                           
  2964  07FE  0008               	return
  2965  07FF                     __end_of_putch:
  2966                           
  2967                           	psect	text6
  2968  08C5                     __ptext6:	
  2969 ;; *************** function _SYSTEM_Initialize *****************
  2970 ;; Defined at:
  2971 ;;		line 50 in file "mcc_generated_files/mcc.c"
  2972 ;; Parameters:    Size  Location     Type
  2973 ;;		None
  2974 ;; Auto vars:     Size  Location     Type
  2975 ;;		None
  2976 ;; Return value:  Size  Location     Type
  2977 ;;                  1    wreg      void 
  2978 ;; Registers used:
  2979 ;;		wreg, fsr1l, fsr1h, status,2, status,0, pclath, cstack
  2980 ;; Tracked objects:
  2981 ;;		On entry : 0/0
  2982 ;;		On exit  : 0/0
  2983 ;;		Unchanged: 0/0
  2984 ;; Data sizes:     COMMON   BANK0   BANK1   BANK2   BANK3   BANK4   BANK5   BANK6   BANK7   BANK8   BANK9  BANK10  BANK1
      +1  BANK12
  2985 ;;      Params:         0       0       0       0       0       0       0       0       0       0       0       0       
      +0       0
  2986 ;;      Locals:         0       0       0       0       0       0       0       0       0       0       0       0       
      +0       0
  2987 ;;      Temps:          0       0       0       0       0       0       0       0       0       0       0       0       
      +0       0
  2988 ;;      Totals:         0       0       0       0       0       0       0       0       0       0       0       0       
      +0       0
  2989 ;;Total ram usage:        0 bytes
  2990 ;; Hardware stack levels used: 1
  2991 ;; Hardware stack levels required when called: 12
  2992 ;; This function calls:
  2993 ;;		_EUSART_Initialize
  2994 ;;		_OSCILLATOR_Initialize
  2995 ;;		_PIN_MANAGER_Initialize
  2996 ;;		_USBDeviceAttach
  2997 ;;		_USBDeviceInit
  2998 ;;		_WDT_Initialize
  2999 ;; This function is called by:
  3000 ;;		_main
  3001 ;; This function uses a non-reentrant model
  3002 ;;
  3003                           
  3004                           
  3005                           ;psect for function _SYSTEM_Initialize
  3006  08C5                     _SYSTEM_Initialize:
  3007  08C5                     l5103:	
  3008                           ;incstack = 0
  3009                           ; Regs used in _SYSTEM_Initialize: [wreg+fsr1l+fsr1h+status,2+status,0+pclath+cstack]
  3010                           
  3011                           
  3012                           ;mcc_generated_files/mcc.c: 53:     PIN_MANAGER_Initialize();
  3013  08C5  3188  20D8  3188   	fcall	_PIN_MANAGER_Initialize
  3014                           
  3015                           ;mcc_generated_files/mcc.c: 54:     OSCILLATOR_Initialize();
  3016  08C8  3188  2096  3188   	fcall	_OSCILLATOR_Initialize
  3017                           
  3018                           ;mcc_generated_files/mcc.c: 55:     WDT_Initialize();
  3019  08CB  3188  2068  3188   	fcall	_WDT_Initialize
  3020  08CE                     l5105:
  3021                           
  3022                           ;mcc_generated_files/mcc.c: 56:     USBDeviceInit();
  3023  08CE  3183  23A5  3188   	fcall	_USBDeviceInit
  3024  08D1                     l5107:
  3025                           
  3026                           ;mcc_generated_files/mcc.c: 57:     USBDeviceAttach();
  3027  08D1  3189  211E  3188   	fcall	_USBDeviceAttach
  3028  08D4                     l5109:
  3029                           
  3030                           ;mcc_generated_files/mcc.c: 58:     EUSART_Initialize();
  3031  08D4  3189  21C4  3188   	fcall	_EUSART_Initialize
  3032  08D7                     l646:
  3033  08D7  0008               	return
  3034  08D8                     __end_of_SYSTEM_Initialize:
  3035                           
  3036                           	psect	text7
  3037  0868                     __ptext7:	
  3038 ;; *************** function _WDT_Initialize *****************
  3039 ;; Defined at:
  3040 ;;		line 77 in file "mcc_generated_files/mcc.c"
  3041 ;; Parameters:    Size  Location     Type
  3042 ;;		None
  3043 ;; Auto vars:     Size  Location     Type
  3044 ;;		None
  3045 ;; Return value:  Size  Location     Type
  3046 ;;                  1    wreg      void 
  3047 ;; Registers used:
  3048 ;;		wreg
  3049 ;; Tracked objects:
  3050 ;;		On entry : 0/0
  3051 ;;		On exit  : 0/0
  3052 ;;		Unchanged: 0/0
  3053 ;; Data sizes:     COMMON   BANK0   BANK1   BANK2   BANK3   BANK4   BANK5   BANK6   BANK7   BANK8   BANK9  BANK10  BANK1
      +1  BANK12
  3054 ;;      Params:         0       0       0       0       0       0       0       0       0       0       0       0       
      +0       0
  3055 ;;      Locals:         0       0       0       0       0       0       0       0       0       0       0       0       
      +0       0
  3056 ;;      Temps:          0       0       0       0       0       0       0       0       0       0       0       0       
      +0       0
  3057 ;;      Totals:         0       0       0       0       0       0       0       0       0       0       0       0       
      +0       0
  3058 ;;Total ram usage:        0 bytes
  3059 ;; Hardware stack levels used: 1
  3060 ;; Hardware stack levels required when called: 10
  3061 ;; This function calls:
  3062 ;;		Nothing
  3063 ;; This function is called by:
  3064 ;;		_SYSTEM_Initialize
  3065 ;; This function uses a non-reentrant model
  3066 ;;
  3067                           
  3068                           
  3069                           ;psect for function _WDT_Initialize
  3070  0868                     _WDT_Initialize:
  3071  0868                     l4977:	
  3072                           ;incstack = 0
  3073                           ; Regs used in _WDT_Initialize: [wreg]
  3074                           
  3075                           
  3076                           ;mcc_generated_files/mcc.c: 80:     WDTCON = 0x16;
  3077  0868  3016               	movlw	22
  3078  0869  0021               	movlb	1	; select bank1
  3079  086A  0097               	movwf	23	;volatile
  3080  086B                     l655:
  3081  086B  0008               	return
  3082  086C                     __end_of_WDT_Initialize:
  3083                           
  3084                           	psect	text8
  3085  03A5                     __ptext8:	
  3086 ;; *************** function _USBDeviceInit *****************
  3087 ;; Defined at:
  3088 ;;		line 281 in file "mcc_generated_files/usb/usb_device.c"
  3089 ;; Parameters:    Size  Location     Type
  3090 ;;		None
  3091 ;; Auto vars:     Size  Location     Type
  3092 ;;  p               2    6[BANK1 ] PTR unsigned char 
  3093 ;;		 -> UEP1(1), 
  3094 ;;  i               1    8[BANK1 ] unsigned char 
  3095 ;;  i               1    9[BANK1 ] unsigned char 
  3096 ;; Return value:  Size  Location     Type
  3097 ;;                  1    wreg      void 
  3098 ;; Registers used:
  3099 ;;		wreg, fsr1l, fsr1h, status,2, status,0
  3100 ;; Tracked objects:
  3101 ;;		On entry : 0/0
  3102 ;;		On exit  : 0/0
  3103 ;;		Unchanged: 0/0
  3104 ;; Data sizes:     COMMON   BANK0   BANK1   BANK2   BANK3   BANK4   BANK5   BANK6   BANK7   BANK8   BANK9  BANK10  BANK1
      +1  BANK12
  3105 ;;      Params:         0       0       0       0       0       0       0       0       0       0       0       0       
      +0       0
  3106 ;;      Locals:         0       0       4       0       0       0       0       0       0       0       0       0       
      +0       0
  3107 ;;      Temps:          0       0       1       0       0       0       0       0       0       0       0       0       
      +0       0
  3108 ;;      Totals:         0       0       5       0       0       0       0       0       0       0       0       0       
      +0       0
  3109 ;;Total ram usage:        5 bytes
  3110 ;; Hardware stack levels used: 1
  3111 ;; Hardware stack levels required when called: 10
  3112 ;; This function calls:
  3113 ;;		Nothing
  3114 ;; This function is called by:
  3115 ;;		_SYSTEM_Initialize
  3116 ;; This function uses a non-reentrant model
  3117 ;;
  3118                           
  3119                           
  3120                           ;psect for function _USBDeviceInit
  3121  03A5                     _USBDeviceInit:
  3122  03A5                     l4835:	
  3123                           ;incstack = 0
  3124                           ; Regs used in _USBDeviceInit: [wreg+fsr1l+fsr1h+status,2+status,0]
  3125                           
  3126                           
  3127                           ;mcc_generated_files/usb/usb_device.c: 283:     uint8_t i;;mcc_generated_files/usb/usb_d
      +                          evice.c: 285:     {PIE2bits.USBIE = 0;};
  3128  03A5  0021               	movlb	1	; select bank1
  3129  03A6  1112               	bcf	18,2	;volatile
  3130  03A7                     l4837:
  3131                           
  3132                           ;mcc_generated_files/usb/usb_device.c: 292:     {UEIR = 0;};
  3133  03A7  003D               	movlb	29	; select bank29
  3134  03A8  0193               	clrf	19	;volatile
  3135                           
  3136                           ;mcc_generated_files/usb/usb_device.c: 295:     {UIR = 0;};
  3137  03A9  0190               	clrf	16	;volatile
  3138                           
  3139                           ;mcc_generated_files/usb/usb_device.c: 298:     UEP0 = 0;
  3140  03AA  0198               	clrf	24	;volatile
  3141  03AB                     l4839:
  3142                           
  3143                           ;mcc_generated_files/usb/usb_device.c: 300:     { uint8_t i; uint8_t* p = (uint8_t*)&UEP
      +                          1; for(i=0;i<2;i++) *p++ = 0; };
  3144  03AB  300E               	movlw	14
  3145  03AC  0021               	movlb	1	; select bank1
  3146  03AD  00A7               	movwf	(USBDeviceInit@p+1)^(0+128)
  3147  03AE  3099               	movlw	153
  3148  03AF  00A6               	movwf	USBDeviceInit@p^(0+128)
  3149  03B0  01A8               	clrf	USBDeviceInit@i_771^(0+128)
  3150  03B1                     l4845:
  3151  03B1  0826               	movf	USBDeviceInit@p^(0+128),w
  3152  03B2  0086               	movwf	6
  3153  03B3  0827               	movf	(USBDeviceInit@p+1)^(0+128),w
  3154  03B4  0087               	movwf	7
  3155  03B5  0181               	clrf	1
  3156  03B6                     l4847:
  3157  03B6  3001               	movlw	1
  3158  03B7  07A6               	addwf	USBDeviceInit@p^(0+128),f
  3159  03B8  3000               	movlw	0
  3160  03B9  3DA7               	addwfc	(USBDeviceInit@p+1)^(0+128),f
  3161  03BA                     l4849:
  3162  03BA  3001               	movlw	1
  3163  03BB  00A5               	movwf	??_USBDeviceInit^(0+128)
  3164  03BC  0825               	movf	??_USBDeviceInit^(0+128),w
  3165  03BD  07A8               	addwf	USBDeviceInit@i_771^(0+128),f
  3166  03BE                     l4851:
  3167  03BE  3002               	movlw	2
  3168  03BF  0228               	subwf	USBDeviceInit@i_771^(0+128),w
  3169  03C0  1C03               	skipc
  3170  03C1  2BC3               	goto	u3621
  3171  03C2  2BC4               	goto	u3620
  3172  03C3                     u3621:
  3173  03C3  2BB1               	goto	l4845
  3174  03C4                     u3620:
  3175  03C4                     l4853:
  3176                           
  3177                           ;mcc_generated_files/usb/usb_device.c: 302:     { UCFG = 0x10 | 0x00 | 0x04 | 0x02; UEIE
      +                           = 0x9F; UIE = 0x39 | 0x40 | 0x02; };
  3178  03C4  3016               	movlw	22
  3179  03C5  003D               	movlb	29	; select bank29
  3180  03C6  0091               	movwf	17	;volatile
  3181  03C7  309F               	movlw	159
  3182  03C8  0097               	movwf	23	;volatile
  3183  03C9  307B               	movlw	123
  3184  03CA  0092               	movwf	18	;volatile
  3185  03CB                     l4855:
  3186                           
  3187                           ;mcc_generated_files/usb/usb_device.c: 311:     for(i = 0; i < (sizeof(BDT)/sizeof(BDT_E
      +                          NTRY)); i++)
  3188  03CB  0021               	movlb	1	; select bank1
  3189  03CC  01A9               	clrf	USBDeviceInit@i^(0+128)
  3190  03CD                     l4861:
  3191                           
  3192                           ;mcc_generated_files/usb/usb_device.c: 312:     {;mcc_generated_files/usb/usb_device.c: 
      +                          313:         BDT[i].Val = 0x00;
  3193  03CD  0829               	movf	USBDeviceInit@i^(0+128),w
  3194  03CE  00A5               	movwf	??_USBDeviceInit^(0+128)
  3195  03CF  3001               	movlw	1
  3196  03D0                     u3635:
  3197  03D0  35A5               	lslf	??_USBDeviceInit^(0+128),f
  3198  03D1  3EFF               	addlw	-1
  3199  03D2  1D03               	skipz
  3200  03D3  2BD0               	goto	u3635
  3201  03D4  3525               	lslf	??_USBDeviceInit^(0+128),w
  3202  03D5  3E20               	addlw	32
  3203  03D6  0086               	movwf	6
  3204  03D7  0187               	clrf	7
  3205  03D8  3000               	movlw	0
  3206  03D9  3FC0               	movwi [0]fsr1
  3207  03DA  3000               	movlw	0
  3208  03DB  3FC1               	movwi [1]fsr1
  3209  03DC  3FC2               	movwi [2]fsr1
  3210  03DD  3FC3               	movwi [3]fsr1
  3211  03DE                     l4863:
  3212                           
  3213                           ;mcc_generated_files/usb/usb_device.c: 314:     }
  3214  03DE  3001               	movlw	1
  3215  03DF  00A5               	movwf	??_USBDeviceInit^(0+128)
  3216  03E0  0825               	movf	??_USBDeviceInit^(0+128),w
  3217  03E1  07A9               	addwf	USBDeviceInit@i^(0+128),f
  3218  03E2                     l4865:
  3219  03E2  300C               	movlw	12
  3220  03E3  0229               	subwf	USBDeviceInit@i^(0+128),w
  3221  03E4  1C03               	skipc
  3222  03E5  2BE7               	goto	u3641
  3223  03E6  2BE8               	goto	u3640
  3224  03E7                     u3641:
  3225  03E7  2BCD               	goto	l4861
  3226  03E8                     u3640:
  3227  03E8                     l181:
  3228                           
  3229                           ;mcc_generated_files/usb/usb_device.c: 317:     UCONbits.PPBRST = 1;
  3230  03E8  003D               	movlb	29	; select bank29
  3231  03E9  170E               	bsf	14,6	;volatile
  3232  03EA                     l4867:
  3233                           
  3234                           ;mcc_generated_files/usb/usb_device.c: 320:     UADDR = 0x00;
  3235  03EA  0196               	clrf	22	;volatile
  3236  03EB                     l4869:
  3237                           
  3238                           ;mcc_generated_files/usb/usb_device.c: 323:     UCONbits.PKTDIS = 0;
  3239  03EB  120E               	bcf	14,4	;volatile
  3240  03EC                     l4871:
  3241                           
  3242                           ;mcc_generated_files/usb/usb_device.c: 326:     UCONbits.PPBRST = 0;
  3243  03EC  130E               	bcf	14,6	;volatile
  3244  03ED                     l4873:
  3245                           
  3246                           ;mcc_generated_files/usb/usb_device.c: 330:     {;mcc_generated_files/usb/usb_device.c: 
      +                          331:         (UIR &= 0xF7);
  3247  03ED  30F7               	movlw	247
  3248  03EE  0021               	movlb	1	; select bank1
  3249  03EF  00A5               	movwf	??_USBDeviceInit^(0+128)
  3250  03F0  0825               	movf	??_USBDeviceInit^(0+128),w
  3251  03F1  003D               	movlb	29	; select bank29
  3252  03F2  0590               	andwf	16,f	;volatile
  3253  03F3                     l4875:
  3254                           
  3255                           ;mcc_generated_files/usb/usb_device.c: 333:         inPipes[0].info.Val = 0;
  3256  03F3  0021               	movlb	1	; select bank1
  3257  03F4  01C0               	clrf	(_inPipes^(0+128)+2)	;volatile
  3258  03F5                     l4877:
  3259                           
  3260                           ;mcc_generated_files/usb/usb_device.c: 334:         outPipes[0].info.Val = 0;
  3261  03F5  0023               	movlb	3	; select bank3
  3262  03F6  01B2               	clrf	(_outPipes^(0+384)+2)	;volatile
  3263  03F7                     l4879:
  3264                           
  3265                           ;mcc_generated_files/usb/usb_device.c: 335:         outPipes[0].wCount.Val = 0;
  3266  03F7  01B3               	clrf	(_outPipes^(0+384)+3)	;volatile
  3267  03F8  01B4               	clrf	((_outPipes+1)^(0+384)+3)	;volatile
  3268  03F9                     l4881:
  3269                           
  3270                           ;mcc_generated_files/usb/usb_device.c: 336:     }while(UIRbits.TRNIF == 1);
  3271  03F9  003D               	movlb	29	; select bank29
  3272  03FA  1990               	btfsc	16,3	;volatile
  3273  03FB  2BFD               	goto	u3651
  3274  03FC  2BFE               	goto	u3650
  3275  03FD                     u3651:
  3276  03FD  2BED               	goto	l4873
  3277  03FE                     u3650:
  3278  03FE                     l4883:
  3279                           
  3280                           ;mcc_generated_files/usb/usb_device.c: 340:     USBStatusStageEnabledFlag1 = 1;
  3281  03FE  3001               	movlw	1
  3282  03FF  0021               	movlb	1	; select bank1
  3283  0400  00A5               	movwf	??_USBDeviceInit^(0+128)
  3284  0401  0825               	movf	??_USBDeviceInit^(0+128),w
  3285  0402  0023               	movlb	3	; select bank3
  3286  0403  00E5               	movwf	_USBStatusStageEnabledFlag1^(0+384)	;volatile
  3287                           
  3288                           ;mcc_generated_files/usb/usb_device.c: 341:     USBStatusStageEnabledFlag2 = 1;
  3289  0404  3001               	movlw	1
  3290  0405  0021               	movlb	1	; select bank1
  3291  0406  00A5               	movwf	??_USBDeviceInit^(0+128)
  3292  0407  0825               	movf	??_USBDeviceInit^(0+128),w
  3293  0408  0023               	movlb	3	; select bank3
  3294  0409  00E4               	movwf	_USBStatusStageEnabledFlag2^(0+384)	;volatile
  3295  040A                     l4885:
  3296                           
  3297                           ;mcc_generated_files/usb/usb_device.c: 343:     USBDeferINDataStagePackets = 0;
  3298  040A  01E3               	clrf	_USBDeferINDataStagePackets^(0+384)	;volatile
  3299  040B                     l4887:
  3300                           
  3301                           ;mcc_generated_files/usb/usb_device.c: 344:     USBDeferOUTDataStagePackets = 0;
  3302  040B  01E2               	clrf	_USBDeferOUTDataStagePackets^(0+384)	;volatile
  3303  040C                     l4889:
  3304                           
  3305                           ;mcc_generated_files/usb/usb_device.c: 345:     USBBusIsSuspended = 0;
  3306  040C  01EA               	clrf	_USBBusIsSuspended^(0+384)	;volatile
  3307  040D                     l4891:
  3308                           
  3309                           ;mcc_generated_files/usb/usb_device.c: 349:     for(i = 0; i < (uint8_t)(2 +1u); i++)
  3310  040D  0021               	movlb	1	; select bank1
  3311  040E  01A9               	clrf	USBDeviceInit@i^(0+128)
  3312  040F                     l4895:
  3313                           
  3314                           ;mcc_generated_files/usb/usb_device.c: 350:     {;mcc_generated_files/usb/usb_device.c: 
      +                          351:         pBDTEntryIn[i] = 0u;
  3315  040F  3529               	lslf	USBDeviceInit@i^(0+128),w
  3316  0410  3EB7               	addlw	(low (_pBDTEntryIn| (0+256)))& (0+255)
  3317  0411  0086               	movwf	6
  3318  0412  3001               	movlw	1	; select bank3/4
  3319  0413  0087               	movwf	7
  3320  0414  3000               	movlw	0
  3321  0415  3FC0               	movwi [0]fsr1
  3322  0416  3FC1               	movwi [1]fsr1
  3323                           
  3324                           ;mcc_generated_files/usb/usb_device.c: 352:         pBDTEntryOut[i] = 0u;
  3325  0417  3529               	lslf	USBDeviceInit@i^(0+128),w
  3326  0418  3EBD               	addlw	(low (_pBDTEntryOut| (0+256)))& (0+255)
  3327  0419  0086               	movwf	6
  3328  041A  3001               	movlw	1	; select bank3/4
  3329  041B  0087               	movwf	7
  3330  041C  3000               	movlw	0
  3331  041D  3FC0               	movwi [0]fsr1
  3332  041E  3FC1               	movwi [1]fsr1
  3333                           
  3334                           ;mcc_generated_files/usb/usb_device.c: 353:         ep_data_in[i].Val = 0u;
  3335  041F  0829               	movf	USBDeviceInit@i^(0+128),w
  3336  0420  3ECA               	addlw	(low (_ep_data_in| (0+256)))& (0+255)
  3337  0421  0086               	movwf	6
  3338  0422  3001               	movlw	1	; select bank3/4
  3339  0423  0087               	movwf	7
  3340  0424  0181               	clrf	1
  3341                           
  3342                           ;mcc_generated_files/usb/usb_device.c: 354:         ep_data_out[i].Val = 0u;
  3343  0425  0829               	movf	USBDeviceInit@i^(0+128),w
  3344  0426  3EC7               	addlw	(low (_ep_data_out| (0+256)))& (0+255)
  3345  0427  0086               	movwf	6
  3346  0428  3001               	movlw	1	; select bank3/4
  3347  0429  0087               	movwf	7
  3348  042A  0181               	clrf	1
  3349  042B                     l4897:
  3350                           
  3351                           ;mcc_generated_files/usb/usb_device.c: 355:     }
  3352  042B  3001               	movlw	1
  3353  042C  00A5               	movwf	??_USBDeviceInit^(0+128)
  3354  042D  0825               	movf	??_USBDeviceInit^(0+128),w
  3355  042E  07A9               	addwf	USBDeviceInit@i^(0+128),f
  3356  042F                     l4899:
  3357  042F  3003               	movlw	3
  3358  0430  0229               	subwf	USBDeviceInit@i^(0+128),w
  3359  0431  1C03               	skipc
  3360  0432  2C34               	goto	u3661
  3361  0433  2C35               	goto	u3660
  3362  0434                     u3661:
  3363  0434  2C0F               	goto	l4895
  3364  0435                     u3660:
  3365  0435                     l4901:
  3366                           
  3367                           ;mcc_generated_files/usb/usb_device.c: 358:     pBDTEntryIn[0] = (volatile BDT_ENTRY*)&B
      +                          DT[2];
  3368  0435  3028               	movlw	40
  3369  0436  0023               	movlb	3	; select bank3
  3370  0437  00B7               	movwf	_pBDTEntryIn^(0+384)
  3371  0438  3000               	movlw	0
  3372  0439  00B8               	movwf	(_pBDTEntryIn+1)^(0+384)
  3373  043A                     l4903:
  3374                           
  3375                           ;mcc_generated_files/usb/usb_device.c: 360:     UEP0 = 0x06|0x10;
  3376  043A  3016               	movlw	22
  3377  043B  003D               	movlb	29	; select bank29
  3378  043C  0098               	movwf	24	;volatile
  3379  043D                     l4905:
  3380                           
  3381                           ;mcc_generated_files/usb/usb_device.c: 362:     BDT[0].ADR = (((uint16_t)(&SetupPkt)) & 
      +                          0x7FFF);
  3382  043D  3000               	movlw	0
  3383  043E  0020               	movlb	0	; select bank0
  3384  043F  00A3               	movwf	35	;volatile
  3385  0440  3050               	movlw	80
  3386  0441  00A2               	movwf	34	;volatile
  3387  0442                     l4907:
  3388                           
  3389                           ;mcc_generated_files/usb/usb_device.c: 363:     BDT[0].CNT = 8;
  3390  0442  3008               	movlw	8
  3391  0443  00A1               	movwf	33	;volatile
  3392  0444                     l4909:
  3393                           
  3394                           ;mcc_generated_files/usb/usb_device.c: 364:     BDT[0].STAT.Val = 0x00|0x04;
  3395  0444  3004               	movlw	4
  3396  0445  0021               	movlb	1	; select bank1
  3397  0446  00A5               	movwf	??_USBDeviceInit^(0+128)
  3398  0447  0825               	movf	??_USBDeviceInit^(0+128),w
  3399  0448  0020               	movlb	0	; select bank0
  3400  0449  00A0               	movwf	32	;volatile
  3401  044A                     l4911:
  3402                           
  3403                           ;mcc_generated_files/usb/usb_device.c: 365:     BDT[0].STAT.Val |= 0x80;
  3404  044A  17A0               	bsf	32,7	;volatile
  3405  044B                     l4913:
  3406                           
  3407                           ;mcc_generated_files/usb/usb_device.c: 368:     USBActiveConfiguration = 0;
  3408  044B  0021               	movlb	1	; select bank1
  3409  044C  01CA               	clrf	_USBActiveConfiguration^(0+128)	;volatile
  3410  044D                     l4915:
  3411                           
  3412                           ;mcc_generated_files/usb/usb_device.c: 370:     USB1msTickCount = 0;
  3413  044D  3000               	movlw	0
  3414  044E  0023               	movlb	3	; select bank3
  3415  044F  00C6               	movwf	(_USB1msTickCount+3)^(0+384)	;volatile
  3416  0450  3000               	movlw	0
  3417  0451  00C5               	movwf	(_USB1msTickCount+2)^(0+384)	;volatile
  3418  0452  3000               	movlw	0
  3419  0453  00C4               	movwf	(_USB1msTickCount+1)^(0+384)	;volatile
  3420  0454  3000               	movlw	0
  3421  0455  00C3               	movwf	_USB1msTickCount^(0+384)	;volatile
  3422  0456                     l4917:
  3423                           
  3424                           ;mcc_generated_files/usb/usb_device.c: 371:     USBTicksSinceSuspendEnd = 0;
  3425  0456  01E1               	clrf	_USBTicksSinceSuspendEnd^(0+384)	;volatile
  3426  0457                     l4919:
  3427                           
  3428                           ;mcc_generated_files/usb/usb_device.c: 374:     USBDeviceState = DETACHED_STATE;
  3429  0457  0021               	movlb	1	; select bank1
  3430  0458  01C8               	clrf	_USBDeviceState^(0+128)	;volatile
  3431  0459                     l186:
  3432  0459  0008               	return
  3433  045A                     __end_of_USBDeviceInit:
  3434                           
  3435                           	psect	text9
  3436  091E                     __ptext9:	
  3437 ;; *************** function _USBDeviceAttach *****************
  3438 ;; Defined at:
  3439 ;;		line 1356 in file "mcc_generated_files/usb/usb_device.c"
  3440 ;; Parameters:    Size  Location     Type
  3441 ;;		None
  3442 ;; Auto vars:     Size  Location     Type
  3443 ;;		None
  3444 ;; Return value:  Size  Location     Type
  3445 ;;                  1    wreg      void 
  3446 ;; Registers used:
  3447 ;;		wreg, status,2, status,0
  3448 ;; Tracked objects:
  3449 ;;		On entry : 0/0
  3450 ;;		On exit  : 0/0
  3451 ;;		Unchanged: 0/0
  3452 ;; Data sizes:     COMMON   BANK0   BANK1   BANK2   BANK3   BANK4   BANK5   BANK6   BANK7   BANK8   BANK9  BANK10  BANK1
      +1  BANK12
  3453 ;;      Params:         0       0       0       0       0       0       0       0       0       0       0       0       
      +0       0
  3454 ;;      Locals:         0       0       0       0       0       0       0       0       0       0       0       0       
      +0       0
  3455 ;;      Temps:          0       0       1       0       0       0       0       0       0       0       0       0       
      +0       0
  3456 ;;      Totals:         0       0       1       0       0       0       0       0       0       0       0       0       
      +0       0
  3457 ;;Total ram usage:        1 bytes
  3458 ;; Hardware stack levels used: 1
  3459 ;; Hardware stack levels required when called: 10
  3460 ;; This function calls:
  3461 ;;		Nothing
  3462 ;; This function is called by:
  3463 ;;		_SYSTEM_Initialize
  3464 ;; This function uses a non-reentrant model
  3465 ;;
  3466                           
  3467                           
  3468                           ;psect for function _USBDeviceAttach
  3469  091E                     _USBDeviceAttach:
  3470  091E                     l4943:	
  3471                           ;incstack = 0
  3472                           ; Regs used in _USBDeviceAttach: [wreg+status,2+status,0]
  3473                           
  3474                           
  3475                           ;mcc_generated_files/usb/usb_device.c: 1360:     {;mcc_generated_files/usb/usb_device.c:
      +                           1361:         if(1 == 1)
  3476  091E  0021               	movlb	1	; select bank1
  3477  091F  0848               	movf	_USBDeviceState^(0+128),w	;volatile
  3478  0920  1D03               	btfss	3,2
  3479  0921  2923               	goto	u3711
  3480  0922  2924               	goto	u3710
  3481  0923                     u3711:
  3482  0923  293B               	goto	l244
  3483  0924                     u3710:
  3484  0924                     l4945:
  3485                           
  3486                           ;mcc_generated_files/usb/usb_device.c: 1362:         {;mcc_generated_files/usb/usb_devic
      +                          e.c: 1364:             UCON = 0;
  3487  0924  003D               	movlb	29	; select bank29
  3488  0925  018E               	clrf	14	;volatile
  3489                           
  3490                           ;mcc_generated_files/usb/usb_device.c: 1367:             UIE = 0;
  3491  0926  0192               	clrf	18	;volatile
  3492  0927                     l4947:
  3493                           
  3494                           ;mcc_generated_files/usb/usb_device.c: 1371:             { UCFG = 0x10 | 0x00 | 0x04 | 0
      +                          x02; UEIE = 0x9F; UIE = 0x39 | 0x40 | 0x02; };
  3495  0927  3016               	movlw	22
  3496  0928  0091               	movwf	17	;volatile
  3497  0929                     l4949:
  3498  0929  309F               	movlw	159
  3499  092A  0097               	movwf	23	;volatile
  3500  092B                     l4951:
  3501  092B  307B               	movlw	123
  3502  092C  0092               	movwf	18	;volatile
  3503  092D                     l4953:
  3504                           
  3505                           ;mcc_generated_files/usb/usb_device.c: 1373:             {PIE2bits.USBIE = 1;};
  3506  092D  0021               	movlb	1	; select bank1
  3507  092E  1512               	bsf	18,2	;volatile
  3508                           
  3509                           ;mcc_generated_files/usb/usb_device.c: 1376:             while(!UCONbits.USBEN){UCONbits
      +                          .USBEN = 1;}
  3510  092F  2931               	goto	l241
  3511  0930                     l242:
  3512  0930  158E               	bsf	14,3	;volatile
  3513  0931                     l241:
  3514  0931  003D               	movlb	29	; select bank29
  3515  0932  1D8E               	btfss	14,3	;volatile
  3516  0933  2935               	goto	u3721
  3517  0934  2936               	goto	u3720
  3518  0935                     u3721:
  3519  0935  2930               	goto	l242
  3520  0936                     u3720:
  3521  0936                     l4955:
  3522                           
  3523                           ;mcc_generated_files/usb/usb_device.c: 1379:             USBDeviceState = ATTACHED_STATE
      +                          ;
  3524  0936  3001               	movlw	1
  3525  0937  0021               	movlb	1	; select bank1
  3526  0938  00A5               	movwf	??_USBDeviceAttach^(0+128)
  3527  0939  0825               	movf	??_USBDeviceAttach^(0+128),w
  3528  093A  00C8               	movwf	_USBDeviceState^(0+128)	;volatile
  3529  093B                     l244:
  3530  093B  0008               	return
  3531  093C                     __end_of_USBDeviceAttach:
  3532                           
  3533                           	psect	text10
  3534  08D8                     __ptext10:	
  3535 ;; *************** function _PIN_MANAGER_Initialize *****************
  3536 ;; Defined at:
  3537 ;;		line 55 in file "mcc_generated_files/pin_manager.c"
  3538 ;; Parameters:    Size  Location     Type
  3539 ;;		None
  3540 ;; Auto vars:     Size  Location     Type
  3541 ;;		None
  3542 ;; Return value:  Size  Location     Type
  3543 ;;                  1    wreg      void 
  3544 ;; Registers used:
  3545 ;;		wreg, status,2
  3546 ;; Tracked objects:
  3547 ;;		On entry : 0/0
  3548 ;;		On exit  : 0/0
  3549 ;;		Unchanged: 0/0
  3550 ;; Data sizes:     COMMON   BANK0   BANK1   BANK2   BANK3   BANK4   BANK5   BANK6   BANK7   BANK8   BANK9  BANK10  BANK1
      +1  BANK12
  3551 ;;      Params:         0       0       0       0       0       0       0       0       0       0       0       0       
      +0       0
  3552 ;;      Locals:         0       0       0       0       0       0       0       0       0       0       0       0       
      +0       0
  3553 ;;      Temps:          0       0       0       0       0       0       0       0       0       0       0       0       
      +0       0
  3554 ;;      Totals:         0       0       0       0       0       0       0       0       0       0       0       0       
      +0       0
  3555 ;;Total ram usage:        0 bytes
  3556 ;; Hardware stack levels used: 1
  3557 ;; Hardware stack levels required when called: 10
  3558 ;; This function calls:
  3559 ;;		Nothing
  3560 ;; This function is called by:
  3561 ;;		_SYSTEM_Initialize
  3562 ;; This function uses a non-reentrant model
  3563 ;;
  3564                           
  3565                           
  3566                           ;psect for function _PIN_MANAGER_Initialize
  3567  08D8                     _PIN_MANAGER_Initialize:
  3568  08D8                     l4957:	
  3569                           ;incstack = 0
  3570                           ; Regs used in _PIN_MANAGER_Initialize: [wreg+status,2]
  3571                           
  3572                           
  3573                           ;mcc_generated_files/pin_manager.c: 60:     LATA = 0x00;
  3574  08D8  0022               	movlb	2	; select bank2
  3575  08D9  018C               	clrf	12	;volatile
  3576                           
  3577                           ;mcc_generated_files/pin_manager.c: 61:     LATC = 0x00;
  3578  08DA  018E               	clrf	14	;volatile
  3579  08DB                     l4959:
  3580                           
  3581                           ;mcc_generated_files/pin_manager.c: 66:     TRISA = 0x30;
  3582  08DB  3030               	movlw	48
  3583  08DC  0021               	movlb	1	; select bank1
  3584  08DD  008C               	movwf	12	;volatile
  3585  08DE                     l4961:
  3586                           
  3587                           ;mcc_generated_files/pin_manager.c: 67:     TRISC = 0x2F;
  3588  08DE  302F               	movlw	47
  3589  08DF  008E               	movwf	14	;volatile
  3590  08E0                     l4963:
  3591                           
  3592                           ;mcc_generated_files/pin_manager.c: 72:     ANSELC = 0x07;
  3593  08E0  3007               	movlw	7
  3594  08E1  0023               	movlb	3	; select bank3
  3595  08E2  008E               	movwf	14	;volatile
  3596  08E3                     l4965:
  3597                           
  3598                           ;mcc_generated_files/pin_manager.c: 73:     ANSELA = 0x10;
  3599  08E3  3010               	movlw	16
  3600  08E4  008C               	movwf	12	;volatile
  3601                           
  3602                           ;mcc_generated_files/pin_manager.c: 78:     WPUA = 0x00;
  3603  08E5  0024               	movlb	4	; select bank4
  3604  08E6  018C               	clrf	12	;volatile
  3605  08E7                     l4967:
  3606                           
  3607                           ;mcc_generated_files/pin_manager.c: 79:     OPTION_REGbits.nWPUEN = 1;
  3608  08E7  0021               	movlb	1	; select bank1
  3609  08E8  1795               	bsf	21,7	;volatile
  3610                           
  3611                           ;mcc_generated_files/pin_manager.c: 85:     APFCON = 0x00;
  3612  08E9  0022               	movlb	2	; select bank2
  3613  08EA  019D               	clrf	29	;volatile
  3614  08EB                     l616:
  3615  08EB  0008               	return
  3616  08EC                     __end_of_PIN_MANAGER_Initialize:
  3617                           
  3618                           	psect	text11
  3619  0896                     __ptext11:	
  3620 ;; *************** function _OSCILLATOR_Initialize *****************
  3621 ;; Defined at:
  3622 ;;		line 61 in file "mcc_generated_files/mcc.c"
  3623 ;; Parameters:    Size  Location     Type
  3624 ;;		None
  3625 ;; Auto vars:     Size  Location     Type
  3626 ;;		None
  3627 ;; Return value:  Size  Location     Type
  3628 ;;                  1    wreg      void 
  3629 ;; Registers used:
  3630 ;;		wreg, status,2
  3631 ;; Tracked objects:
  3632 ;;		On entry : 0/0
  3633 ;;		On exit  : 0/0
  3634 ;;		Unchanged: 0/0
  3635 ;; Data sizes:     COMMON   BANK0   BANK1   BANK2   BANK3   BANK4   BANK5   BANK6   BANK7   BANK8   BANK9  BANK10  BANK1
      +1  BANK12
  3636 ;;      Params:         0       0       0       0       0       0       0       0       0       0       0       0       
      +0       0
  3637 ;;      Locals:         0       0       0       0       0       0       0       0       0       0       0       0       
      +0       0
  3638 ;;      Temps:          0       0       0       0       0       0       0       0       0       0       0       0       
      +0       0
  3639 ;;      Totals:         0       0       0       0       0       0       0       0       0       0       0       0       
      +0       0
  3640 ;;Total ram usage:        0 bytes
  3641 ;; Hardware stack levels used: 1
  3642 ;; Hardware stack levels required when called: 10
  3643 ;; This function calls:
  3644 ;;		Nothing
  3645 ;; This function is called by:
  3646 ;;		_SYSTEM_Initialize
  3647 ;; This function uses a non-reentrant model
  3648 ;;
  3649                           
  3650                           
  3651                           ;psect for function _OSCILLATOR_Initialize
  3652  0896                     _OSCILLATOR_Initialize:
  3653  0896                     l4969:	
  3654                           ;incstack = 0
  3655                           ; Regs used in _OSCILLATOR_Initialize: [wreg+status,2]
  3656                           
  3657                           
  3658                           ;mcc_generated_files/mcc.c: 64:     OSCCON = 0x7C;
  3659  0896  307C               	movlw	124
  3660  0897  0021               	movlb	1	; select bank1
  3661  0898  0099               	movwf	25	;volatile
  3662  0899                     l4971:
  3663                           
  3664                           ;mcc_generated_files/mcc.c: 66:     OSCTUNE = 0x00;
  3665  0899  0198               	clrf	24	;volatile
  3666  089A                     l4973:
  3667                           
  3668                           ;mcc_generated_files/mcc.c: 68:     ACTCON = 0x00;
  3669  089A  0027               	movlb	7	; select bank7
  3670  089B  019B               	clrf	27	;volatile
  3671  089C                     l4975:
  3672                           
  3673                           ;mcc_generated_files/mcc.c: 70:     BORCON = 0x00;
  3674  089C  0022               	movlb	2	; select bank2
  3675  089D  0196               	clrf	22	;volatile
  3676  089E                     l649:	
  3677                           ;mcc_generated_files/mcc.c: 73:     {;mcc_generated_files/mcc.c: 74:     }
  3678                           
  3679                           
  3680                           ;mcc_generated_files/mcc.c: 72:     while(PLLRDY == 0)
  3681  089E  0021               	movlb	1	; select bank1
  3682  089F  1F1A               	btfss	26,6	;volatile
  3683  08A0  28A2               	goto	u3731
  3684  08A1  28A3               	goto	u3730
  3685  08A2                     u3731:
  3686  08A2  289E               	goto	l649
  3687  08A3                     u3730:
  3688  08A3                     l652:
  3689  08A3  0008               	return
  3690  08A4                     __end_of_OSCILLATOR_Initialize:
  3691                           
  3692                           	psect	text12
  3693  09C4                     __ptext12:	
  3694 ;; *************** function _EUSART_Initialize *****************
  3695 ;; Defined at:
  3696 ;;		line 66 in file "mcc_generated_files/eusart.c"
  3697 ;; Parameters:    Size  Location     Type
  3698 ;;		None
  3699 ;; Auto vars:     Size  Location     Type
  3700 ;;		None
  3701 ;; Return value:  Size  Location     Type
  3702 ;;                  1    wreg      void 
  3703 ;; Registers used:
  3704 ;;		wreg, status,2, status,0, pclath, cstack
  3705 ;; Tracked objects:
  3706 ;;		On entry : 0/0
  3707 ;;		On exit  : 0/0
  3708 ;;		Unchanged: 0/0
  3709 ;; Data sizes:     COMMON   BANK0   BANK1   BANK2   BANK3   BANK4   BANK5   BANK6   BANK7   BANK8   BANK9  BANK10  BANK1
      +1  BANK12
  3710 ;;      Params:         0       0       0       0       0       0       0       0       0       0       0       0       
      +0       0
  3711 ;;      Locals:         0       0       0       0       0       0       0       0       0       0       0       0       
      +0       0
  3712 ;;      Temps:          0       0       0       0       0       0       0       0       0       0       0       0       
      +0       0
  3713 ;;      Totals:         0       0       0       0       0       0       0       0       0       0       0       0       
      +0       0
  3714 ;;Total ram usage:        0 bytes
  3715 ;; Hardware stack levels used: 1
  3716 ;; Hardware stack levels required when called: 11
  3717 ;; This function calls:
  3718 ;;		_EUSART_SetErrorHandler
  3719 ;;		_EUSART_SetFramingErrorHandler
  3720 ;;		_EUSART_SetOverrunErrorHandler
  3721 ;; This function is called by:
  3722 ;;		_SYSTEM_Initialize
  3723 ;; This function uses a non-reentrant model
  3724 ;;
  3725                           
  3726                           
  3727                           ;psect for function _EUSART_Initialize
  3728  09C4                     _EUSART_Initialize:
  3729  09C4                     l4979:	
  3730                           ;incstack = 0
  3731                           ; Regs used in _EUSART_Initialize: [wreg+status,2+status,0+pclath+cstack]
  3732                           
  3733                           
  3734                           ;mcc_generated_files/eusart.c: 71:     BAUDCON = 0x08;
  3735  09C4  3008               	movlw	8
  3736  09C5  0023               	movlb	3	; select bank3
  3737  09C6  009F               	movwf	31	;volatile
  3738                           
  3739                           ;mcc_generated_files/eusart.c: 74:     RCSTA = 0x90;
  3740  09C7  3090               	movlw	144
  3741  09C8  009D               	movwf	29	;volatile
  3742                           
  3743                           ;mcc_generated_files/eusart.c: 77:     TXSTA = 0x24;
  3744  09C9  3024               	movlw	36
  3745  09CA  009E               	movwf	30	;volatile
  3746                           
  3747                           ;mcc_generated_files/eusart.c: 80:     SPBRGL = 0xE1;
  3748  09CB  30E1               	movlw	225
  3749  09CC  009B               	movwf	27	;volatile
  3750                           
  3751                           ;mcc_generated_files/eusart.c: 83:     SPBRGH = 0x04;
  3752  09CD  3004               	movlw	4
  3753  09CE  009C               	movwf	28	;volatile
  3754  09CF                     l4981:
  3755                           
  3756                           ;mcc_generated_files/eusart.c: 86:     EUSART_SetFramingErrorHandler(EUSART_DefaultFrami
      +                          ngErrorHandler);
  3757  09CF  3000               	movlw	0
  3758  09D0  0021               	movlb	1	; select bank1
  3759  09D1  00A5               	movwf	EUSART_SetFramingErrorHandler@interruptHandler^(0+128)
  3760  09D2  3000               	movlw	0
  3761  09D3  00A6               	movwf	(EUSART_SetFramingErrorHandler@interruptHandler^(0+128)+1)
  3762  09D4  3188  2075  3189   	fcall	_EUSART_SetFramingErrorHandler
  3763  09D7                     l4983:
  3764                           
  3765                           ;mcc_generated_files/eusart.c: 87:     EUSART_SetOverrunErrorHandler(EUSART_DefaultOverr
      +                          unErrorHandler);
  3766  09D7  3000               	movlw	0
  3767  09D8  0021               	movlb	1	; select bank1
  3768  09D9  00A5               	movwf	EUSART_SetOverrunErrorHandler@interruptHandler^(0+128)
  3769  09DA  3000               	movlw	0
  3770  09DB  00A6               	movwf	(EUSART_SetOverrunErrorHandler@interruptHandler^(0+128)+1)
  3771  09DC  3187  27F5  3189   	fcall	_EUSART_SetOverrunErrorHandler
  3772  09DF                     l4985:
  3773                           
  3774                           ;mcc_generated_files/eusart.c: 88:     EUSART_SetErrorHandler(EUSART_DefaultErrorHandler
      +                          );
  3775  09DF  3000               	movlw	0
  3776  09E0  0021               	movlb	1	; select bank1
  3777  09E1  00A5               	movwf	EUSART_SetErrorHandler@interruptHandler^(0+128)
  3778  09E2  3000               	movlw	0
  3779  09E3  00A6               	movwf	(EUSART_SetErrorHandler@interruptHandler^(0+128)+1)
  3780  09E4  3188  206C  3189   	fcall	_EUSART_SetErrorHandler
  3781  09E7                     l4987:
  3782                           
  3783                           ;mcc_generated_files/eusart.c: 90:     eusartRxLastError.status = 0;
  3784  09E7  0023               	movlb	3	; select bank3
  3785  09E8  01DC               	clrf	_eusartRxLastError^(0+384)	;volatile
  3786  09E9                     l698:
  3787  09E9  0008               	return
  3788  09EA                     __end_of_EUSART_Initialize:
  3789                           
  3790                           	psect	text13
  3791  07F5                     __ptext13:	
  3792 ;; *************** function _EUSART_SetOverrunErrorHandler *****************
  3793 ;; Defined at:
  3794 ;;		line 161 in file "mcc_generated_files/eusart.c"
  3795 ;; Parameters:    Size  Location     Type
  3796 ;;  interruptHan    2    5[BANK1 ] PTR FTN()void 
  3797 ;;		 -> EUSART_DefaultOverrunErrorHandler(1), 
  3798 ;; Auto vars:     Size  Location     Type
  3799 ;;		None
  3800 ;; Return value:  Size  Location     Type
  3801 ;;                  1    wreg      void 
  3802 ;; Registers used:
  3803 ;;		wreg
  3804 ;; Tracked objects:
  3805 ;;		On entry : 0/0
  3806 ;;		On exit  : 0/0
  3807 ;;		Unchanged: 0/0
  3808 ;; Data sizes:     COMMON   BANK0   BANK1   BANK2   BANK3   BANK4   BANK5   BANK6   BANK7   BANK8   BANK9  BANK10  BANK1
      +1  BANK12
  3809 ;;      Params:         0       0       2       0       0       0       0       0       0       0       0       0       
      +0       0
  3810 ;;      Locals:         0       0       0       0       0       0       0       0       0       0       0       0       
      +0       0
  3811 ;;      Temps:          0       0       0       0       0       0       0       0       0       0       0       0       
      +0       0
  3812 ;;      Totals:         0       0       2       0       0       0       0       0       0       0       0       0       
      +0       0
  3813 ;;Total ram usage:        2 bytes
  3814 ;; Hardware stack levels used: 1
  3815 ;; Hardware stack levels required when called: 10
  3816 ;; This function calls:
  3817 ;;		Nothing
  3818 ;; This function is called by:
  3819 ;;		_EUSART_Initialize
  3820 ;; This function uses a non-reentrant model
  3821 ;;
  3822                           
  3823                           
  3824                           ;psect for function _EUSART_SetOverrunErrorHandler
  3825  07F5                     _EUSART_SetOverrunErrorHandler:
  3826  07F5                     l4799:	
  3827                           ;incstack = 0
  3828                           ; Regs used in _EUSART_SetOverrunErrorHandler: [wreg]
  3829                           
  3830                           
  3831                           ;mcc_generated_files/eusart.c: 162:     EUSART_OverrunErrorHandler = interruptHandler;
  3832  07F5  0021               	movlb	1	; select bank1
  3833  07F6  0826               	movf	(EUSART_SetOverrunErrorHandler@interruptHandler+1)^(0+128),w
  3834  07F7  0023               	movlb	3	; select bank3
  3835  07F8  00D0               	movwf	(_EUSART_OverrunErrorHandler+1)^(0+384)
  3836  07F9  0021               	movlb	1	; select bank1
  3837  07FA  0825               	movf	EUSART_SetOverrunErrorHandler@interruptHandler^(0+128),w
  3838  07FB  0023               	movlb	3	; select bank3
  3839  07FC  00CF               	movwf	_EUSART_OverrunErrorHandler^(0+384)
  3840  07FD                     l740:
  3841  07FD  0008               	return
  3842  07FE                     __end_of_EUSART_SetOverrunErrorHandler:
  3843                           
  3844                           	psect	text14
  3845  0875                     __ptext14:	
  3846 ;; *************** function _EUSART_SetFramingErrorHandler *****************
  3847 ;; Defined at:
  3848 ;;		line 157 in file "mcc_generated_files/eusart.c"
  3849 ;; Parameters:    Size  Location     Type
  3850 ;;  interruptHan    2    5[BANK1 ] PTR FTN()void 
  3851 ;;		 -> EUSART_DefaultFramingErrorHandler(1), 
  3852 ;; Auto vars:     Size  Location     Type
  3853 ;;		None
  3854 ;; Return value:  Size  Location     Type
  3855 ;;                  1    wreg      void 
  3856 ;; Registers used:
  3857 ;;		wreg
  3858 ;; Tracked objects:
  3859 ;;		On entry : 0/0
  3860 ;;		On exit  : 0/0
  3861 ;;		Unchanged: 0/0
  3862 ;; Data sizes:     COMMON   BANK0   BANK1   BANK2   BANK3   BANK4   BANK5   BANK6   BANK7   BANK8   BANK9  BANK10  BANK1
      +1  BANK12
  3863 ;;      Params:         0       0       2       0       0       0       0       0       0       0       0       0       
      +0       0
  3864 ;;      Locals:         0       0       0       0       0       0       0       0       0       0       0       0       
      +0       0
  3865 ;;      Temps:          0       0       0       0       0       0       0       0       0       0       0       0       
      +0       0
  3866 ;;      Totals:         0       0       2       0       0       0       0       0       0       0       0       0       
      +0       0
  3867 ;;Total ram usage:        2 bytes
  3868 ;; Hardware stack levels used: 1
  3869 ;; Hardware stack levels required when called: 10
  3870 ;; This function calls:
  3871 ;;		Nothing
  3872 ;; This function is called by:
  3873 ;;		_EUSART_Initialize
  3874 ;; This function uses a non-reentrant model
  3875 ;;
  3876                           
  3877                           
  3878                           ;psect for function _EUSART_SetFramingErrorHandler
  3879  0875                     _EUSART_SetFramingErrorHandler:
  3880  0875                     l4797:	
  3881                           ;incstack = 0
  3882                           ; Regs used in _EUSART_SetFramingErrorHandler: [wreg]
  3883                           
  3884                           
  3885                           ;mcc_generated_files/eusart.c: 158:     EUSART_FramingErrorHandler = interruptHandler;
  3886  0875  0021               	movlb	1	; select bank1
  3887  0876  0826               	movf	(EUSART_SetFramingErrorHandler@interruptHandler+1)^(0+128),w
  3888  0877  0023               	movlb	3	; select bank3
  3889  0878  00D2               	movwf	(_EUSART_FramingErrorHandler+1)^(0+384)
  3890  0879  0021               	movlb	1	; select bank1
  3891  087A  0825               	movf	EUSART_SetFramingErrorHandler@interruptHandler^(0+128),w
  3892  087B  0023               	movlb	3	; select bank3
  3893  087C  00D1               	movwf	_EUSART_FramingErrorHandler^(0+384)
  3894  087D                     l737:
  3895  087D  0008               	return
  3896  087E                     __end_of_EUSART_SetFramingErrorHandler:
  3897                           
  3898                           	psect	text15
  3899  086C                     __ptext15:	
  3900 ;; *************** function _EUSART_SetErrorHandler *****************
  3901 ;; Defined at:
  3902 ;;		line 165 in file "mcc_generated_files/eusart.c"
  3903 ;; Parameters:    Size  Location     Type
  3904 ;;  interruptHan    2    5[BANK1 ] PTR FTN()void 
  3905 ;;		 -> EUSART_DefaultErrorHandler(1), 
  3906 ;; Auto vars:     Size  Location     Type
  3907 ;;		None
  3908 ;; Return value:  Size  Location     Type
  3909 ;;                  1    wreg      void 
  3910 ;; Registers used:
  3911 ;;		wreg
  3912 ;; Tracked objects:
  3913 ;;		On entry : 0/0
  3914 ;;		On exit  : 0/0
  3915 ;;		Unchanged: 0/0
  3916 ;; Data sizes:     COMMON   BANK0   BANK1   BANK2   BANK3   BANK4   BANK5   BANK6   BANK7   BANK8   BANK9  BANK10  BANK1
      +1  BANK12
  3917 ;;      Params:         0       0       2       0       0       0       0       0       0       0       0       0       
      +0       0
  3918 ;;      Locals:         0       0       0       0       0       0       0       0       0       0       0       0       
      +0       0
  3919 ;;      Temps:          0       0       0       0       0       0       0       0       0       0       0       0       
      +0       0
  3920 ;;      Totals:         0       0       2       0       0       0       0       0       0       0       0       0       
      +0       0
  3921 ;;Total ram usage:        2 bytes
  3922 ;; Hardware stack levels used: 1
  3923 ;; Hardware stack levels required when called: 10
  3924 ;; This function calls:
  3925 ;;		Nothing
  3926 ;; This function is called by:
  3927 ;;		_EUSART_Initialize
  3928 ;; This function uses a non-reentrant model
  3929 ;;
  3930                           
  3931                           
  3932                           ;psect for function _EUSART_SetErrorHandler
  3933  086C                     _EUSART_SetErrorHandler:
  3934  086C                     l4801:	
  3935                           ;incstack = 0
  3936                           ; Regs used in _EUSART_SetErrorHandler: [wreg]
  3937                           
  3938                           
  3939                           ;mcc_generated_files/eusart.c: 166:     EUSART_ErrorHandler = interruptHandler;
  3940  086C  0021               	movlb	1	; select bank1
  3941  086D  0826               	movf	(EUSART_SetErrorHandler@interruptHandler+1)^(0+128),w
  3942  086E  0024               	movlb	4	; select bank4
  3943  086F  00D5               	movwf	(_EUSART_ErrorHandler+1)^(0+512)
  3944  0870  0021               	movlb	1	; select bank1
  3945  0871  0825               	movf	EUSART_SetErrorHandler@interruptHandler^(0+128),w
  3946  0872  0024               	movlb	4	; select bank4
  3947  0873  00D4               	movwf	_EUSART_ErrorHandler^(0+512)
  3948  0874                     l743:
  3949  0874  0008               	return
  3950  0875                     __end_of_EUSART_SetErrorHandler:
  3951                           
  3952                           	psect	text16
  3953  08B3                     __ptext16:	
  3954 ;; *************** function _EUSART_is_tx_ready *****************
  3955 ;; Defined at:
  3956 ;;		line 94 in file "mcc_generated_files/eusart.c"
  3957 ;; Parameters:    Size  Location     Type
  3958 ;;		None
  3959 ;; Auto vars:     Size  Location     Type
  3960 ;;		None
  3961 ;; Return value:  Size  Location     Type
  3962 ;;                  1    wreg      _Bool 
  3963 ;; Registers used:
  3964 ;;		wreg, status,2
  3965 ;; Tracked objects:
  3966 ;;		On entry : 0/0
  3967 ;;		On exit  : 0/0
  3968 ;;		Unchanged: 0/0
  3969 ;; Data sizes:     COMMON   BANK0   BANK1   BANK2   BANK3   BANK4   BANK5   BANK6   BANK7   BANK8   BANK9  BANK10  BANK1
      +1  BANK12
  3970 ;;      Params:         0       0       0       0       0       0       0       0       0       0       0       0       
      +0       0
  3971 ;;      Locals:         0       0       1       0       0       0       0       0       0       0       0       0       
      +0       0
  3972 ;;      Temps:          0       0       0       0       0       0       0       0       0       0       0       0       
      +0       0
  3973 ;;      Totals:         0       0       1       0       0       0       0       0       0       0       0       0       
      +0       0
  3974 ;;Total ram usage:        1 bytes
  3975 ;; Hardware stack levels used: 1
  3976 ;; Hardware stack levels required when called: 10
  3977 ;; This function calls:
  3978 ;;		Nothing
  3979 ;; This function is called by:
  3980 ;;		_main
  3981 ;; This function uses a non-reentrant model
  3982 ;;
  3983                           
  3984                           
  3985                           ;psect for function _EUSART_is_tx_ready
  3986  08B3                     _EUSART_is_tx_ready:
  3987  08B3                     l5111:	
  3988                           ;incstack = 0
  3989                           ; Regs used in _EUSART_is_tx_ready: [wreg+status,2]
  3990                           
  3991                           
  3992                           ;mcc_generated_files/eusart.c: 96:     return (_Bool)(PIR1bits.TXIF && TXSTAbits.TXEN);
  3993  08B3  0021               	movlb	1	; select bank1
  3994  08B4  01A5               	clrf	_EUSART_is_tx_ready$2435^(0+128)
  3995  08B5                     l5113:
  3996  08B5  0020               	movlb	0	; select bank0
  3997  08B6  1E11               	btfss	17,4	;volatile
  3998  08B7  28B9               	goto	u3981
  3999  08B8  28BA               	goto	u3980
  4000  08B9                     u3981:
  4001  08B9  28C2               	goto	l5119
  4002  08BA                     u3980:
  4003  08BA                     l5115:
  4004  08BA  0023               	movlb	3	; select bank3
  4005  08BB  1E9E               	btfss	30,5	;volatile
  4006  08BC  28BE               	goto	u3991
  4007  08BD  28BF               	goto	u3990
  4008  08BE                     u3991:
  4009  08BE  28C2               	goto	l5119
  4010  08BF                     u3990:
  4011  08BF                     l5117:
  4012  08BF  0021               	movlb	1	; select bank1
  4013  08C0  01A5               	clrf	_EUSART_is_tx_ready$2435^(0+128)
  4014  08C1  0AA5               	incf	_EUSART_is_tx_ready$2435^(0+128),f
  4015  08C2                     l5119:
  4016  08C2  0021               	movlb	1	; select bank1
  4017  08C3  0825               	movf	_EUSART_is_tx_ready$2435^(0+128),w
  4018  08C4                     l703:
  4019  08C4  0008               	return
  4020  08C5                     __end_of_EUSART_is_tx_ready:
  4021                           
  4022                           	psect	text17
  4023  087E                     __ptext17:	
  4024 ;; *************** function _EUSART_Write *****************
  4025 ;; Defined at:
  4026 ;;		line 132 in file "mcc_generated_files/eusart.c"
  4027 ;; Parameters:    Size  Location     Type
  4028 ;;  txData          1    wreg     unsigned char 
  4029 ;; Auto vars:     Size  Location     Type
  4030 ;;  txData          1    5[BANK1 ] unsigned char 
  4031 ;; Return value:  Size  Location     Type
  4032 ;;                  1    wreg      void 
  4033 ;; Registers used:
  4034 ;;		wreg
  4035 ;; Tracked objects:
  4036 ;;		On entry : 0/0
  4037 ;;		On exit  : 0/0
  4038 ;;		Unchanged: 0/0
  4039 ;; Data sizes:     COMMON   BANK0   BANK1   BANK2   BANK3   BANK4   BANK5   BANK6   BANK7   BANK8   BANK9  BANK10  BANK1
      +1  BANK12
  4040 ;;      Params:         0       0       0       0       0       0       0       0       0       0       0       0       
      +0       0
  4041 ;;      Locals:         0       0       1       0       0       0       0       0       0       0       0       0       
      +0       0
  4042 ;;      Temps:          0       0       0       0       0       0       0       0       0       0       0       0       
      +0       0
  4043 ;;      Totals:         0       0       1       0       0       0       0       0       0       0       0       0       
      +0       0
  4044 ;;Total ram usage:        1 bytes
  4045 ;; Hardware stack levels used: 1
  4046 ;; Hardware stack levels required when called: 10
  4047 ;; This function calls:
  4048 ;;		Nothing
  4049 ;; This function is called by:
  4050 ;;		_main
  4051 ;; This function uses a non-reentrant model
  4052 ;;
  4053                           
  4054                           
  4055                           ;psect for function _EUSART_Write
  4056  087E                     _EUSART_Write:
  4057                           
  4058                           ;incstack = 0
  4059                           ; Regs used in _EUSART_Write: [wreg]
  4060                           ;EUSART_Write@txData stored from wreg
  4061  087E  0021               	movlb	1	; select bank1
  4062  087F  00A5               	movwf	EUSART_Write@txData^(0+128)
  4063  0880                     l5135:
  4064  0880                     l722:	
  4065                           ;mcc_generated_files/eusart.c: 135:     {;mcc_generated_files/eusart.c: 136:     }
  4066                           
  4067                           
  4068                           ;mcc_generated_files/eusart.c: 134:     while(0 == PIR1bits.TXIF)
  4069  0880  0020               	movlb	0	; select bank0
  4070  0881  1E11               	btfss	17,4	;volatile
  4071  0882  2884               	goto	u4021
  4072  0883  2885               	goto	u4020
  4073  0884                     u4021:
  4074  0884  2880               	goto	l722
  4075  0885                     u4020:
  4076  0885                     l5137:
  4077                           
  4078                           ;mcc_generated_files/eusart.c: 138:     TXREG = txData;
  4079  0885  0021               	movlb	1	; select bank1
  4080  0886  0825               	movf	EUSART_Write@txData^(0+128),w
  4081  0887  0023               	movlb	3	; select bank3
  4082  0888  009A               	movwf	26	;volatile
  4083  0889                     l725:
  4084  0889  0008               	return
  4085  088A                     __end_of_EUSART_Write:
  4086                           
  4087                           	psect	text18
  4088  08A4                     __ptext18:	
  4089 ;; *************** function _EUSART_Read *****************
  4090 ;; Defined at:
  4091 ;;		line 113 in file "mcc_generated_files/eusart.c"
  4092 ;; Parameters:    Size  Location     Type
  4093 ;;		None
  4094 ;; Auto vars:     Size  Location     Type
  4095 ;;		None
  4096 ;; Return value:  Size  Location     Type
  4097 ;;                  1    wreg      unsigned char 
  4098 ;; Registers used:
  4099 ;;		wreg, status,2
  4100 ;; Tracked objects:
  4101 ;;		On entry : 0/0
  4102 ;;		On exit  : 0/0
  4103 ;;		Unchanged: 0/0
  4104 ;; Data sizes:     COMMON   BANK0   BANK1   BANK2   BANK3   BANK4   BANK5   BANK6   BANK7   BANK8   BANK9  BANK10  BANK1
      +1  BANK12
  4105 ;;      Params:         0       0       0       0       0       0       0       0       0       0       0       0       
      +0       0
  4106 ;;      Locals:         0       0       0       0       0       0       0       0       0       0       0       0       
      +0       0
  4107 ;;      Temps:          0       0       0       0       0       0       0       0       0       0       0       0       
      +0       0
  4108 ;;      Totals:         0       0       0       0       0       0       0       0       0       0       0       0       
      +0       0
  4109 ;;Total ram usage:        0 bytes
  4110 ;; Hardware stack levels used: 1
  4111 ;; Hardware stack levels required when called: 10
  4112 ;; This function calls:
  4113 ;;		Nothing
  4114 ;; This function is called by:
  4115 ;;		_main
  4116 ;; This function uses a non-reentrant model
  4117 ;;
  4118                           
  4119                           
  4120                           ;psect for function _EUSART_Read
  4121  08A4                     _EUSART_Read:
  4122  08A4                     l5123:	
  4123                           ;incstack = 0
  4124                           ; Regs used in _EUSART_Read: [wreg+status,2]
  4125                           
  4126  08A4                     l715:	
  4127                           ;mcc_generated_files/eusart.c: 116:     {;mcc_generated_files/eusart.c: 117:     }
  4128                           
  4129                           
  4130                           ;mcc_generated_files/eusart.c: 115:     while(!PIR1bits.RCIF)
  4131  08A4  0020               	movlb	0	; select bank0
  4132  08A5  1E91               	btfss	17,5	;volatile
  4133  08A6  28A8               	goto	u4001
  4134  08A7  28A9               	goto	u4000
  4135  08A8                     u4001:
  4136  08A8  28A4               	goto	l715
  4137  08A9                     u4000:
  4138  08A9                     l5125:
  4139                           
  4140                           ;mcc_generated_files/eusart.c: 119:     eusartRxLastError.status = 0;
  4141  08A9  0023               	movlb	3	; select bank3
  4142  08AA  01DC               	clrf	_eusartRxLastError^(0+384)	;volatile
  4143  08AB                     l5127:
  4144                           
  4145                           ;mcc_generated_files/eusart.c: 121:     if(1 == RCSTAbits.OERR)
  4146  08AB  1C9D               	btfss	29,1	;volatile
  4147  08AC  28AE               	goto	u4011
  4148  08AD  28AF               	goto	u4010
  4149  08AE                     u4011:
  4150  08AE  28B1               	goto	l5131
  4151  08AF                     u4010:
  4152  08AF                     l5129:
  4153                           
  4154                           ;mcc_generated_files/eusart.c: 122:     {;mcc_generated_files/eusart.c: 125:         RCS
      +                          TAbits.CREN = 0;
  4155  08AF  121D               	bcf	29,4	;volatile
  4156                           
  4157                           ;mcc_generated_files/eusart.c: 126:         RCSTAbits.CREN = 1;
  4158  08B0  161D               	bsf	29,4	;volatile
  4159  08B1                     l5131:
  4160                           
  4161                           ;mcc_generated_files/eusart.c: 129:     return RCREG;
  4162  08B1  0819               	movf	25,w	;volatile
  4163  08B2                     l719:
  4164  08B2  0008               	return
  4165  08B3                     __end_of_EUSART_Read:
  4166                           
  4167                           	psect	intentry
  4168  0004                     __pintentry:	
  4169 ;; *************** function _INTERRUPT_InterruptManager *****************
  4170 ;; Defined at:
  4171 ;;		line 52 in file "mcc_generated_files/interrupt_manager.c"
  4172 ;; Parameters:    Size  Location     Type
  4173 ;;		None
  4174 ;; Auto vars:     Size  Location     Type
  4175 ;;		None
  4176 ;; Return value:  Size  Location     Type
  4177 ;;                  1    wreg      void 
  4178 ;; Registers used:
  4179 ;;		wreg, fsr0l, fsr0h, fsr1l, fsr1h, status,2, status,0, pclath, cstack
  4180 ;; Tracked objects:
  4181 ;;		On entry : 0/0
  4182 ;;		On exit  : 0/0
  4183 ;;		Unchanged: 0/0
  4184 ;; Data sizes:     COMMON   BANK0   BANK1   BANK2   BANK3   BANK4   BANK5   BANK6   BANK7   BANK8   BANK9  BANK10  BANK1
      +1  BANK12
  4185 ;;      Params:         0       0       0       0       0       0       0       0       0       0       0       0       
      +0       0
  4186 ;;      Locals:         0       0       0       0       0       0       0       0       0       0       0       0       
      +0       0
  4187 ;;      Temps:          0       0       0       0       0       0       0       0       0       0       0       0       
      +0       0
  4188 ;;      Totals:         0       0       0       0       0       0       0       0       0       0       0       0       
      +0       0
  4189 ;;Total ram usage:        0 bytes
  4190 ;; Hardware stack levels used: 1
  4191 ;; Hardware stack levels required when called: 9
  4192 ;; This function calls:
  4193 ;;		_USBDeviceTasks
  4194 ;; This function is called by:
  4195 ;;		Interrupt level 1
  4196 ;; This function uses a non-reentrant model
  4197 ;;
  4198                           
  4199  0004                     _INTERRUPT_InterruptManager:
  4200                           
  4201                           ;incstack = 0
  4202  0004  147E               	bsf	int$flags,0	;set compiler interrupt flag (level 1)
  4203                           
  4204                           ; Regs used in _INTERRUPT_InterruptManager: [wreg-fsr1h+status,2+status,0+pclath+cstack]
  4205  0005  3180               	pagesel	$
  4206  0006                     i1l5145:
  4207                           
  4208                           ;mcc_generated_files/interrupt_manager.c: 55:     if(INTCONbits.PEIE == 1)
  4209  0006  1F0B               	btfss	11,6	;volatile
  4210  0007  2809               	goto	u403_21
  4211  0008  280A               	goto	u403_20
  4212  0009                     u403_21:
  4213  0009  2817               	goto	i1l595
  4214  000A                     u403_20:
  4215  000A                     i1l5147:
  4216                           
  4217                           ;mcc_generated_files/interrupt_manager.c: 56:     {;mcc_generated_files/interrupt_manage
      +                          r.c: 57:         if(PIE2bits.USBIE == 1 && PIR2bits.USBIF == 1)
  4218  000A  0021               	movlb	1	; select bank1
  4219  000B  1D12               	btfss	18,2	;volatile
  4220  000C  280E               	goto	u404_21
  4221  000D  280F               	goto	u404_20
  4222  000E                     u404_21:
  4223  000E  2817               	goto	i1l595
  4224  000F                     u404_20:
  4225  000F                     i1l5149:
  4226  000F  0020               	movlb	0	; select bank0
  4227  0010  1D12               	btfss	18,2	;volatile
  4228  0011  2813               	goto	u405_21
  4229  0012  2814               	goto	u405_20
  4230  0013                     u405_21:
  4231  0013  2817               	goto	i1l595
  4232  0014                     u405_20:
  4233  0014                     i1l5151:
  4234                           
  4235                           ;mcc_generated_files/interrupt_manager.c: 58:         {;mcc_generated_files/interrupt_ma
      +                          nager.c: 59:             USBDeviceTasks();
  4236  0014  3181  21BB  3180   	fcall	_USBDeviceTasks
  4237  0017                     i1l595:	
  4238                           ;mcc_generated_files/interrupt_manager.c: 60:         }
  4239                           
  4240  0017  107E               	bcf	int$flags,0	;clear compiler interrupt flag (level 1)
  4241  0018  0009               	retfie
  4242  0019                     __end_of_INTERRUPT_InterruptManager:
  4243                           
  4244                           	psect	text20
  4245  01BB                     __ptext20:	
  4246 ;; *************** function _USBDeviceTasks *****************
  4247 ;; Defined at:
  4248 ;;		line 481 in file "mcc_generated_files/usb/usb_device.c"
  4249 ;; Parameters:    Size  Location     Type
  4250 ;;		None
  4251 ;; Auto vars:     Size  Location     Type
  4252 ;;  i               1    4[BANK1 ] unsigned char 
  4253 ;; Return value:  Size  Location     Type
  4254 ;;                  1    wreg      void 
  4255 ;; Registers used:
  4256 ;;		wreg, fsr0l, fsr0h, fsr1l, fsr1h, status,2, status,0, pclath, cstack
  4257 ;; Tracked objects:
  4258 ;;		On entry : 0/0
  4259 ;;		On exit  : 0/0
  4260 ;;		Unchanged: 0/0
  4261 ;; Data sizes:     COMMON   BANK0   BANK1   BANK2   BANK3   BANK4   BANK5   BANK6   BANK7   BANK8   BANK9  BANK10  BANK1
      +1  BANK12
  4262 ;;      Params:         0       0       0       0       0       0       0       0       0       0       0       0       
      +0       0
  4263 ;;      Locals:         0       0       1       0       0       0       0       0       0       0       0       0       
      +0       0
  4264 ;;      Temps:          0       0       2       0       0       0       0       0       0       0       0       0       
      +0       0
  4265 ;;      Totals:         0       0       3       0       0       0       0       0       0       0       0       0       
      +0       0
  4266 ;;Total ram usage:        3 bytes
  4267 ;; Hardware stack levels used: 1
  4268 ;; Hardware stack levels required when called: 8
  4269 ;; This function calls:
  4270 ;;		_USBCtrlEPAllowStatusStage
  4271 ;;		_USBCtrlEPService
  4272 ;;		_USBIncrement1msInternalTimers
  4273 ;;		_USBStallHandler
  4274 ;;		_USBSuspend
  4275 ;;		_USBWakeFromSuspend
  4276 ;;		_USER_USB_CALLBACK_EVENT_HANDLER
  4277 ;;		i1_USBDeviceInit
  4278 ;; This function is called by:
  4279 ;;		_INTERRUPT_InterruptManager
  4280 ;; This function uses a non-reentrant model
  4281 ;;
  4282                           
  4283                           
  4284                           ;psect for function _USBDeviceTasks
  4285  01BB                     _USBDeviceTasks:
  4286  01BB                     i1l5001:	
  4287                           ;incstack = 0
  4288                           ; Regs used in _USBDeviceTasks: [wreg-fsr1h+status,2+status,0+pclath+cstack]
  4289                           
  4290                           
  4291                           ;mcc_generated_files/usb/usb_device.c: 483:     uint8_t i;;mcc_generated_files/usb/usb_d
      +                          evice.c: 594:     if(USBDeviceState == ATTACHED_STATE)
  4292  01BB  0021               	movlb	1	; select bank1
  4293  01BC  0348               	decf	_USBDeviceState^(0+128),w	;volatile
  4294  01BD  1D03               	btfss	3,2
  4295  01BE  29C0               	goto	u375_21
  4296  01BF  29C1               	goto	u375_20
  4297  01C0                     u375_21:
  4298  01C0  29CE               	goto	i1l5013
  4299  01C1                     u375_20:
  4300  01C1                     i1l5003:
  4301                           
  4302                           ;mcc_generated_files/usb/usb_device.c: 595:     {;mcc_generated_files/usb/usb_device.c: 
      +                          605:         if(!UCONbits.SE0)
  4303  01C1  003D               	movlb	29	; select bank29
  4304  01C2  1A8E               	btfsc	14,5	;volatile
  4305  01C3  29C5               	goto	u376_21
  4306  01C4  29C6               	goto	u376_20
  4307  01C5                     u376_21:
  4308  01C5  29CE               	goto	i1l5013
  4309  01C6                     u376_20:
  4310  01C6                     i1l5005:
  4311                           
  4312                           ;mcc_generated_files/usb/usb_device.c: 606:         {;mcc_generated_files/usb/usb_device
      +                          .c: 612:                 {UIR = 0;};
  4313  01C6  0190               	clrf	16	;volatile
  4314  01C7                     i1l5007:
  4315                           
  4316                           ;mcc_generated_files/usb/usb_device.c: 618:             UIEbits.URSTIE = 1;
  4317  01C7  1412               	bsf	18,0	;volatile
  4318  01C8                     i1l5009:
  4319                           
  4320                           ;mcc_generated_files/usb/usb_device.c: 619:             UIEbits.IDLEIE = 1;
  4321  01C8  1612               	bsf	18,4	;volatile
  4322  01C9                     i1l5011:
  4323                           
  4324                           ;mcc_generated_files/usb/usb_device.c: 620:             USBDeviceState = POWERED_STATE;
  4325  01C9  3002               	movlw	2
  4326  01CA  0021               	movlb	1	; select bank1
  4327  01CB  00A2               	movwf	??_USBDeviceTasks^(0+128)
  4328  01CC  0822               	movf	??_USBDeviceTasks^(0+128),w
  4329  01CD  00C8               	movwf	_USBDeviceState^(0+128)	;volatile
  4330  01CE                     i1l5013:
  4331                           
  4332                           ;mcc_generated_files/usb/usb_device.c: 638:     if(UIRbits.ACTVIF && UIEbits.ACTVIE)
  4333  01CE  003D               	movlb	29	; select bank29
  4334  01CF  1D10               	btfss	16,2	;volatile
  4335  01D0  29D2               	goto	u377_21
  4336  01D1  29D3               	goto	u377_20
  4337  01D2                     u377_21:
  4338  01D2  29E0               	goto	i1l5021
  4339  01D3                     u377_20:
  4340  01D3                     i1l5015:
  4341  01D3  1D12               	btfss	18,2	;volatile
  4342  01D4  29D6               	goto	u378_21
  4343  01D5  29D7               	goto	u378_20
  4344  01D6                     u378_21:
  4345  01D6  29E0               	goto	i1l5021
  4346  01D7                     u378_20:
  4347  01D7                     i1l5017:
  4348                           
  4349                           ;mcc_generated_files/usb/usb_device.c: 639:     {;mcc_generated_files/usb/usb_device.c: 
      +                          640:         (UIR &= 0xFB);
  4350  01D7  30FB               	movlw	251
  4351  01D8  0021               	movlb	1	; select bank1
  4352  01D9  00A2               	movwf	??_USBDeviceTasks^(0+128)
  4353  01DA  0822               	movf	??_USBDeviceTasks^(0+128),w
  4354  01DB  003D               	movlb	29	; select bank29
  4355  01DC  0590               	andwf	16,f	;volatile
  4356  01DD                     i1l5019:
  4357                           
  4358                           ;mcc_generated_files/usb/usb_device.c: 644:             USBWakeFromSuspend();
  4359  01DD  3189  217D  3181   	fcall	_USBWakeFromSuspend
  4360  01E0                     i1l5021:
  4361                           
  4362                           ;mcc_generated_files/usb/usb_device.c: 651:     if(UCONbits.SUSPND==1)
  4363  01E0  003D               	movlb	29	; select bank29
  4364  01E1  1C8E               	btfss	14,1	;volatile
  4365  01E2  29E4               	goto	u379_21
  4366  01E3  29E5               	goto	u379_20
  4367  01E4                     u379_21:
  4368  01E4  29E8               	goto	i1l192
  4369  01E5                     u379_20:
  4370  01E5                     i1l5023:
  4371                           
  4372                           ;mcc_generated_files/usb/usb_device.c: 652:     {;mcc_generated_files/usb/usb_device.c: 
      +                          653:         PIR2bits.USBIF = 0;;
  4373  01E5  0020               	movlb	0	; select bank0
  4374  01E6  1112               	bcf	18,2	;volatile
  4375                           
  4376                           ;mcc_generated_files/usb/usb_device.c: 654:         return;
  4377  01E7  2ADA               	goto	i1l193
  4378  01E8                     i1l192:	
  4379                           ;mcc_generated_files/usb/usb_device.c: 655:     }
  4380                           
  4381                           
  4382                           ;mcc_generated_files/usb/usb_device.c: 667:     if(UIRbits.URSTIF && UIEbits.URSTIE)
  4383  01E8  1C10               	btfss	16,0	;volatile
  4384  01E9  29EB               	goto	u380_21
  4385  01EA  29EC               	goto	u380_20
  4386  01EB                     u380_21:
  4387  01EB  29FE               	goto	i1l5035
  4388  01EC                     u380_20:
  4389  01EC                     i1l5025:
  4390  01EC  1C12               	btfss	18,0	;volatile
  4391  01ED  29EF               	goto	u381_21
  4392  01EE  29F0               	goto	u381_20
  4393  01EF                     u381_21:
  4394  01EF  29FE               	goto	i1l5035
  4395  01F0                     u381_20:
  4396  01F0                     i1l5027:
  4397                           
  4398                           ;mcc_generated_files/usb/usb_device.c: 668:     {;mcc_generated_files/usb/usb_device.c: 
      +                          669:         USBDeviceInit();
  4399  01F0  3185  2506  3181   	fcall	i1_USBDeviceInit
  4400  01F3                     i1l5029:
  4401                           
  4402                           ;mcc_generated_files/usb/usb_device.c: 673:         {PIE2bits.USBIE = 1;};
  4403  01F3  0021               	movlb	1	; select bank1
  4404  01F4  1512               	bsf	18,2	;volatile
  4405  01F5                     i1l5031:
  4406                           
  4407                           ;mcc_generated_files/usb/usb_device.c: 675:         USBDeviceState = DEFAULT_STATE;
  4408  01F5  3004               	movlw	4
  4409  01F6  00A2               	movwf	??_USBDeviceTasks^(0+128)
  4410  01F7  0822               	movf	??_USBDeviceTasks^(0+128),w
  4411  01F8  00C8               	movwf	_USBDeviceState^(0+128)	;volatile
  4412  01F9                     i1l5033:
  4413                           
  4414                           ;mcc_generated_files/usb/usb_device.c: 685:         (UIR &= 0xFE);
  4415  01F9  30FE               	movlw	254
  4416  01FA  00A2               	movwf	??_USBDeviceTasks^(0+128)
  4417  01FB  0822               	movf	??_USBDeviceTasks^(0+128),w
  4418  01FC  003D               	movlb	29	; select bank29
  4419  01FD  0590               	andwf	16,f	;volatile
  4420  01FE                     i1l5035:
  4421                           
  4422                           ;mcc_generated_files/usb/usb_device.c: 691:     if(UIRbits.IDLEIF && UIEbits.IDLEIE)
  4423  01FE  1E10               	btfss	16,4	;volatile
  4424  01FF  2A01               	goto	u382_21
  4425  0200  2A02               	goto	u382_20
  4426  0201                     u382_21:
  4427  0201  2A09               	goto	i1l5041
  4428  0202                     u382_20:
  4429  0202                     i1l5037:
  4430  0202  1E12               	btfss	18,4	;volatile
  4431  0203  2A05               	goto	u383_21
  4432  0204  2A06               	goto	u383_20
  4433  0205                     u383_21:
  4434  0205  2A09               	goto	i1l5041
  4435  0206                     u383_20:
  4436  0206                     i1l5039:
  4437                           
  4438                           ;mcc_generated_files/usb/usb_device.c: 692:     {;mcc_generated_files/usb/usb_device.c: 
      +                          698:             USBSuspend();
  4439  0206  3189  213C  3181   	fcall	_USBSuspend
  4440  0209                     i1l5041:
  4441                           
  4442                           ;mcc_generated_files/usb/usb_device.c: 712:     if(UIRbits.SOFIF)
  4443  0209  003D               	movlb	29	; select bank29
  4444  020A  1F10               	btfss	16,6	;volatile
  4445  020B  2A0D               	goto	u384_21
  4446  020C  2A0E               	goto	u384_20
  4447  020D                     u384_21:
  4448  020D  2A3B               	goto	i1l5057
  4449  020E                     u384_20:
  4450  020E                     i1l5043:
  4451                           
  4452                           ;mcc_generated_files/usb/usb_device.c: 713:     {;mcc_generated_files/usb/usb_device.c: 
      +                          715:         if(UIEbits.SOFIE)
  4453  020E  1F12               	btfss	18,6	;volatile
  4454  020F  2A11               	goto	u385_21
  4455  0210  2A12               	goto	u385_20
  4456  0211                     u385_21:
  4457  0211  2A22               	goto	i1l5047
  4458  0212                     u385_20:
  4459  0212                     i1l5045:
  4460                           
  4461                           ;mcc_generated_files/usb/usb_device.c: 716:         {;mcc_generated_files/usb/usb_device
      +                          .c: 717:             USER_USB_CALLBACK_EVENT_HANDLER((USB_EVENT)EVENT_SOF,0,1);
  4462  0212  3073               	movlw	115
  4463  0213  0020               	movlb	0	; select bank0
  4464  0214  00E0               	movwf	USER_USB_CALLBACK_EVENT_HANDLER@event
  4465  0215  3000               	movlw	0
  4466  0216  00E1               	movwf	USER_USB_CALLBACK_EVENT_HANDLER@event+1
  4467  0217  3000               	movlw	0
  4468  0218  00E2               	movwf	USER_USB_CALLBACK_EVENT_HANDLER@pdata
  4469  0219  3000               	movlw	0
  4470  021A  00E3               	movwf	USER_USB_CALLBACK_EVENT_HANDLER@pdata+1
  4471  021B  3001               	movlw	1
  4472  021C  00E4               	movwf	USER_USB_CALLBACK_EVENT_HANDLER@size
  4473  021D  3000               	movlw	0
  4474  021E  00E5               	movwf	USER_USB_CALLBACK_EVENT_HANDLER@size+1
  4475  021F  318A  2276  3181   	fcall	_USER_USB_CALLBACK_EVENT_HANDLER
  4476  0222                     i1l5047:
  4477                           
  4478                           ;mcc_generated_files/usb/usb_device.c: 719:         (UIR &= 0xBF);
  4479  0222  30BF               	movlw	191
  4480  0223  0021               	movlb	1	; select bank1
  4481  0224  00A2               	movwf	??_USBDeviceTasks^(0+128)
  4482  0225  0822               	movf	??_USBDeviceTasks^(0+128),w
  4483  0226  003D               	movlb	29	; select bank29
  4484  0227  0590               	andwf	16,f	;volatile
  4485  0228                     i1l5049:
  4486                           
  4487                           ;mcc_generated_files/usb/usb_device.c: 722:             USBIncrement1msInternalTimers();
  4488  0228  3189  2102  3181   	fcall	_USBIncrement1msInternalTimers
  4489  022B                     i1l5051:
  4490                           
  4491                           ;mcc_generated_files/usb/usb_device.c: 739:             if(USBStatusStageTimeoutCounter 
      +                          != 0u)
  4492  022B  0023               	movlb	3	; select bank3
  4493  022C  0867               	movf	_USBStatusStageTimeoutCounter^(0+384),w	;volatile
  4494  022D  1903               	btfsc	3,2
  4495  022E  2A30               	goto	u386_21
  4496  022F  2A31               	goto	u386_20
  4497  0230                     u386_21:
  4498  0230  2A33               	goto	i1l198
  4499  0231                     u386_20:
  4500  0231                     i1l5053:
  4501                           
  4502                           ;mcc_generated_files/usb/usb_device.c: 740:             {;mcc_generated_files/usb/usb_de
      +                          vice.c: 741:                 USBStatusStageTimeoutCounter--;
  4503  0231  3001               	movlw	1
  4504  0232  02E7               	subwf	_USBStatusStageTimeoutCounter^(0+384),f	;volatile
  4505  0233                     i1l198:	
  4506                           ;mcc_generated_files/usb/usb_device.c: 742:             }
  4507                           
  4508                           
  4509                           ;mcc_generated_files/usb/usb_device.c: 748:             if(USBStatusStageTimeoutCounter 
      +                          == 0)
  4510  0233  0867               	movf	_USBStatusStageTimeoutCounter^(0+384),w	;volatile
  4511  0234  1D03               	btfss	3,2
  4512  0235  2A37               	goto	u387_21
  4513  0236  2A38               	goto	u387_20
  4514  0237                     u387_21:
  4515  0237  2A3B               	goto	i1l5057
  4516  0238                     u387_20:
  4517  0238                     i1l5055:
  4518                           
  4519                           ;mcc_generated_files/usb/usb_device.c: 749:             {;mcc_generated_files/usb/usb_de
      +                          vice.c: 750:                 USBCtrlEPAllowStatusStage();
  4520  0238  318D  2581  3181   	fcall	_USBCtrlEPAllowStatusStage
  4521  023B                     i1l5057:
  4522                           
  4523                           ;mcc_generated_files/usb/usb_device.c: 755:     if(UIRbits.STALLIF && UIEbits.STALLIE)
  4524  023B  003D               	movlb	29	; select bank29
  4525  023C  1E90               	btfss	16,5	;volatile
  4526  023D  2A3F               	goto	u388_21
  4527  023E  2A40               	goto	u388_20
  4528  023F                     u388_21:
  4529  023F  2A47               	goto	i1l5063
  4530  0240                     u388_20:
  4531  0240                     i1l5059:
  4532  0240  1E92               	btfss	18,5	;volatile
  4533  0241  2A43               	goto	u389_21
  4534  0242  2A44               	goto	u389_20
  4535  0243                     u389_21:
  4536  0243  2A47               	goto	i1l5063
  4537  0244                     u389_20:
  4538  0244                     i1l5061:
  4539                           
  4540                           ;mcc_generated_files/usb/usb_device.c: 756:     {;mcc_generated_files/usb/usb_device.c: 
      +                          757:         USBStallHandler();
  4541  0244  3189  21EA  3181   	fcall	_USBStallHandler
  4542  0247                     i1l5063:
  4543                           
  4544                           ;mcc_generated_files/usb/usb_device.c: 760:     if(UIRbits.UERRIF && UIEbits.UERRIE)
  4545  0247  003D               	movlb	29	; select bank29
  4546  0248  1C90               	btfss	16,1	;volatile
  4547  0249  2A4B               	goto	u390_21
  4548  024A  2A4C               	goto	u390_20
  4549  024B                     u390_21:
  4550  024B  2A62               	goto	i1l5071
  4551  024C                     u390_20:
  4552  024C                     i1l5065:
  4553  024C  1C92               	btfss	18,1	;volatile
  4554  024D  2A4F               	goto	u391_21
  4555  024E  2A50               	goto	u391_20
  4556  024F                     u391_21:
  4557  024F  2A62               	goto	i1l5071
  4558  0250                     u391_20:
  4559  0250                     i1l5067:
  4560                           
  4561                           ;mcc_generated_files/usb/usb_device.c: 761:     {;mcc_generated_files/usb/usb_device.c: 
      +                          762:         USER_USB_CALLBACK_EVENT_HANDLER((USB_EVENT)EVENT_BUS_ERROR,0,1);
  4562  0250  30FF               	movlw	255
  4563  0251  0020               	movlb	0	; select bank0
  4564  0252  00E0               	movwf	USER_USB_CALLBACK_EVENT_HANDLER@event
  4565  0253  307F               	movlw	127
  4566  0254  00E1               	movwf	USER_USB_CALLBACK_EVENT_HANDLER@event+1
  4567  0255  3000               	movlw	0
  4568  0256  00E2               	movwf	USER_USB_CALLBACK_EVENT_HANDLER@pdata
  4569  0257  3000               	movlw	0
  4570  0258  00E3               	movwf	USER_USB_CALLBACK_EVENT_HANDLER@pdata+1
  4571  0259  3001               	movlw	1
  4572  025A  00E4               	movwf	USER_USB_CALLBACK_EVENT_HANDLER@size
  4573  025B  3000               	movlw	0
  4574  025C  00E5               	movwf	USER_USB_CALLBACK_EVENT_HANDLER@size+1
  4575  025D  318A  2276  3181   	fcall	_USER_USB_CALLBACK_EVENT_HANDLER
  4576  0260                     i1l5069:
  4577                           
  4578                           ;mcc_generated_files/usb/usb_device.c: 763:         {UEIR = 0;};
  4579  0260  003D               	movlb	29	; select bank29
  4580  0261  0193               	clrf	19	;volatile
  4581  0262                     i1l5071:
  4582                           
  4583                           ;mcc_generated_files/usb/usb_device.c: 778:     if(USBDeviceState < DEFAULT_STATE)
  4584  0262  3004               	movlw	4
  4585  0263  0021               	movlb	1	; select bank1
  4586  0264  0248               	subwf	_USBDeviceState^(0+128),w	;volatile
  4587  0265  1803               	skipnc
  4588  0266  2A68               	goto	u392_21
  4589  0267  2A69               	goto	u392_20
  4590  0268                     u392_21:
  4591  0268  2A6C               	goto	i1l202
  4592  0269                     u392_20:
  4593  0269                     i1l5073:
  4594                           
  4595                           ;mcc_generated_files/usb/usb_device.c: 779:     {;mcc_generated_files/usb/usb_device.c: 
      +                          780:         PIR2bits.USBIF = 0;;
  4596  0269  0020               	movlb	0	; select bank0
  4597  026A  1112               	bcf	18,2	;volatile
  4598                           
  4599                           ;mcc_generated_files/usb/usb_device.c: 781:         return;
  4600  026B  2ADA               	goto	i1l193
  4601  026C                     i1l202:	
  4602                           ;mcc_generated_files/usb/usb_device.c: 782:     }
  4603                           
  4604                           
  4605                           ;mcc_generated_files/usb/usb_device.c: 787:     if(UIEbits.TRNIE)
  4606  026C  003D               	movlb	29	; select bank29
  4607  026D  1D92               	btfss	18,3	;volatile
  4608  026E  2A70               	goto	u393_21
  4609  026F  2A71               	goto	u393_20
  4610  0270                     u393_21:
  4611  0270  2AD8               	goto	i1l203
  4612  0271                     u393_20:
  4613  0271                     i1l5075:
  4614                           
  4615                           ;mcc_generated_files/usb/usb_device.c: 788:     {;mcc_generated_files/usb/usb_device.c: 
      +                          789:         for(i = 0; i < 4u; i++)
  4616  0271  0021               	movlb	1	; select bank1
  4617  0272  01A4               	clrf	USBDeviceTasks@i^(0+128)
  4618  0273                     i1l204:
  4619                           
  4620                           ;mcc_generated_files/usb/usb_device.c: 790:         {;mcc_generated_files/usb/usb_device
      +                          .c: 791:             if(UIRbits.TRNIF)
  4621  0273  003D               	movlb	29	; select bank29
  4622  0274  1D90               	btfss	16,3	;volatile
  4623  0275  2A77               	goto	u394_21
  4624  0276  2A78               	goto	u394_20
  4625  0277                     u394_21:
  4626  0277  2AD8               	goto	i1l203
  4627  0278                     u394_20:
  4628  0278                     i1l5081:
  4629                           
  4630                           ;mcc_generated_files/usb/usb_device.c: 792:             {;mcc_generated_files/usb/usb_de
      +                          vice.c: 794:                 USTATcopy.Val = USTAT;
  4631  0278  080F               	movf	15,w	;volatile
  4632  0279  0021               	movlb	1	; select bank1
  4633  027A  00A2               	movwf	??_USBDeviceTasks^(0+128)
  4634  027B  0822               	movf	??_USBDeviceTasks^(0+128),w
  4635  027C  00C9               	movwf	_USTATcopy^(0+128)	;volatile
  4636  027D                     i1l5083:
  4637                           
  4638                           ;mcc_generated_files/usb/usb_device.c: 795:                 endpoint_number = USTATcopy.
      +                          endpoint_number;
  4639  027D  0C49               	rrf	_USTATcopy^(0+128),w	;volatile
  4640  027E  00A2               	movwf	??_USBDeviceTasks^(0+128)
  4641  027F  0CA2               	rrf	??_USBDeviceTasks^(0+128),f
  4642  0280  0C22               	rrf	??_USBDeviceTasks^(0+128),w
  4643  0281  390F               	andlw	15
  4644  0282  00A3               	movwf	(??_USBDeviceTasks+1)^(0+128)
  4645  0283  0823               	movf	(??_USBDeviceTasks+1)^(0+128),w
  4646  0284  0023               	movlb	3	; select bank3
  4647  0285  00E9               	movwf	_endpoint_number^(0+384)	;volatile
  4648  0286                     i1l5085:
  4649                           
  4650                           ;mcc_generated_files/usb/usb_device.c: 797:                 (UIR &= 0xF7);
  4651  0286  30F7               	movlw	247
  4652  0287  0021               	movlb	1	; select bank1
  4653  0288  00A2               	movwf	??_USBDeviceTasks^(0+128)
  4654  0289  0822               	movf	??_USBDeviceTasks^(0+128),w
  4655  028A  003D               	movlb	29	; select bank29
  4656  028B  0590               	andwf	16,f	;volatile
  4657  028C                     i1l5087:
  4658                           
  4659                           ;mcc_generated_files/usb/usb_device.c: 802:                 if(USTATcopy.direction == 0)
  4660  028C  0021               	movlb	1	; select bank1
  4661  028D  1949               	btfsc	_USTATcopy^(0+128),2	;volatile
  4662  028E  2A90               	goto	u395_21
  4663  028F  2A91               	goto	u395_20
  4664  0290                     u395_21:
  4665  0290  2AA3               	goto	i1l5091
  4666  0291                     u395_20:
  4667  0291                     i1l5089:
  4668                           
  4669                           ;mcc_generated_files/usb/usb_device.c: 803:                 {;mcc_generated_files/usb/us
      +                          b_device.c: 804:                     ep_data_out[endpoint_number].bits.ping_pong_state ^
      +                          = 1;
  4670  0291  0023               	movlb	3	; select bank3
  4671  0292  0869               	movf	_endpoint_number^(0+384),w	;volatile
  4672  0293  3EC7               	addlw	(low (_ep_data_out| (0+256)))& (0+255)
  4673  0294  0086               	movwf	6
  4674  0295  3001               	movlw	1	; select bank3/4
  4675  0296  0087               	movwf	7
  4676  0297  0801               	movf	1,w
  4677  0298  3901               	andlw	1
  4678  0299  0021               	movlb	1	; select bank1
  4679  029A  00A2               	movwf	??_USBDeviceTasks^(0+128)
  4680  029B  3001               	movlw	1
  4681  029C  06A2               	xorwf	??_USBDeviceTasks^(0+128),f
  4682  029D  0801               	movf	1,w
  4683  029E  0622               	xorwf	??_USBDeviceTasks^(0+128),w
  4684  029F  39FE               	andlw	-2
  4685  02A0  0622               	xorwf	??_USBDeviceTasks^(0+128),w
  4686  02A1  0081               	movwf	1
  4687                           
  4688                           ;mcc_generated_files/usb/usb_device.c: 805:                 }
  4689  02A2  2AB4               	goto	i1l5093
  4690  02A3                     i1l5091:
  4691                           
  4692                           ;mcc_generated_files/usb/usb_device.c: 807:                 {;mcc_generated_files/usb/us
      +                          b_device.c: 808:                     ep_data_in[endpoint_number].bits.ping_pong_state ^=
      +                           1;
  4693  02A3  0023               	movlb	3	; select bank3
  4694  02A4  0869               	movf	_endpoint_number^(0+384),w	;volatile
  4695  02A5  3ECA               	addlw	(low (_ep_data_in| (0+256)))& (0+255)
  4696  02A6  0086               	movwf	6
  4697  02A7  3001               	movlw	1	; select bank3/4
  4698  02A8  0087               	movwf	7
  4699  02A9  0801               	movf	1,w
  4700  02AA  3901               	andlw	1
  4701  02AB  0021               	movlb	1	; select bank1
  4702  02AC  00A2               	movwf	??_USBDeviceTasks^(0+128)
  4703  02AD  3001               	movlw	1
  4704  02AE  06A2               	xorwf	??_USBDeviceTasks^(0+128),f
  4705  02AF  0801               	movf	1,w
  4706  02B0  0622               	xorwf	??_USBDeviceTasks^(0+128),w
  4707  02B1  39FE               	andlw	-2
  4708  02B2  0622               	xorwf	??_USBDeviceTasks^(0+128),w
  4709  02B3  0081               	movwf	1
  4710  02B4                     i1l5093:
  4711                           
  4712                           ;mcc_generated_files/usb/usb_device.c: 814:                 if(endpoint_number == 0)
  4713  02B4  0023               	movlb	3	; select bank3
  4714  02B5  0869               	movf	_endpoint_number^(0+384),w	;volatile
  4715  02B6  1D03               	btfss	3,2
  4716  02B7  2AB9               	goto	u396_21
  4717  02B8  2ABA               	goto	u396_20
  4718  02B9                     u396_21:
  4719  02B9  2ABE               	goto	i1l5097
  4720  02BA                     u396_20:
  4721  02BA                     i1l5095:
  4722                           
  4723                           ;mcc_generated_files/usb/usb_device.c: 815:                 {;mcc_generated_files/usb/us
      +                          b_device.c: 816:                     USBCtrlEPService();
  4724  02BA  318B  23F4  3181   	fcall	_USBCtrlEPService
  4725                           
  4726                           ;mcc_generated_files/usb/usb_device.c: 817:                 }
  4727  02BD  2ACD               	goto	i1l5099
  4728  02BE                     i1l5097:
  4729                           
  4730                           ;mcc_generated_files/usb/usb_device.c: 819:                 {;mcc_generated_files/usb/us
      +                          b_device.c: 820:                     USER_USB_CALLBACK_EVENT_HANDLER((USB_EVENT)EVENT_TR
      +                          ANSFER,(uint8_t*)&USTATcopy.Val,0);
  4731  02BE  3072               	movlw	114
  4732  02BF  0020               	movlb	0	; select bank0
  4733  02C0  00E0               	movwf	USER_USB_CALLBACK_EVENT_HANDLER@event
  4734  02C1  3000               	movlw	0
  4735  02C2  00E1               	movwf	USER_USB_CALLBACK_EVENT_HANDLER@event+1
  4736  02C3  30C9               	movlw	low _USTATcopy
  4737  02C4  00E2               	movwf	USER_USB_CALLBACK_EVENT_HANDLER@pdata
  4738  02C5  3000               	movlw	high _USTATcopy
  4739  02C6  00E3               	movwf	USER_USB_CALLBACK_EVENT_HANDLER@pdata+1
  4740  02C7  3000               	movlw	0
  4741  02C8  00E4               	movwf	USER_USB_CALLBACK_EVENT_HANDLER@size
  4742  02C9  00E5               	movwf	USER_USB_CALLBACK_EVENT_HANDLER@size+1
  4743  02CA  318A  2276  3181   	fcall	_USER_USB_CALLBACK_EVENT_HANDLER
  4744  02CD                     i1l5099:
  4745                           
  4746                           ;mcc_generated_files/usb/usb_device.c: 827:         }
  4747  02CD  3001               	movlw	1
  4748  02CE  0021               	movlb	1	; select bank1
  4749  02CF  00A2               	movwf	??_USBDeviceTasks^(0+128)
  4750  02D0  0822               	movf	??_USBDeviceTasks^(0+128),w
  4751  02D1  07A4               	addwf	USBDeviceTasks@i^(0+128),f
  4752  02D2                     i1l5101:
  4753  02D2  3004               	movlw	4
  4754  02D3  0224               	subwf	USBDeviceTasks@i^(0+128),w
  4755  02D4  1C03               	skipc
  4756  02D5  2AD7               	goto	u397_21
  4757  02D6  2AD8               	goto	u397_20
  4758  02D7                     u397_21:
  4759  02D7  2A73               	goto	i1l204
  4760  02D8                     u397_20:
  4761  02D8                     i1l203:	
  4762                           ;mcc_generated_files/usb/usb_device.c: 828:     }
  4763                           
  4764                           
  4765                           ;mcc_generated_files/usb/usb_device.c: 830:     PIR2bits.USBIF = 0;;
  4766  02D8  0020               	movlb	0	; select bank0
  4767  02D9  1112               	bcf	18,2	;volatile
  4768  02DA                     i1l193:
  4769  02DA  0008               	return
  4770  02DB                     __end_of_USBDeviceTasks:
  4771                           
  4772                           	psect	text21
  4773  0506                     __ptext21:	
  4774 ;; *************** function i1_USBDeviceInit *****************
  4775 ;; Defined at:
  4776 ;;		line 281 in file "mcc_generated_files/usb/usb_device.c"
  4777 ;; Parameters:    Size  Location     Type
  4778 ;;		None
  4779 ;; Auto vars:     Size  Location     Type
  4780 ;;  p               2    1[COMMON] PTR unsigned char 
  4781 ;;		 -> UEP1(1), 
  4782 ;;  i               1    4[COMMON] unsigned char 
  4783 ;;  i               1    3[COMMON] unsigned char 
  4784 ;; Return value:  Size  Location     Type
  4785 ;;                  1    wreg      void 
  4786 ;; Registers used:
  4787 ;;		wreg, fsr1l, fsr1h, status,2, status,0
  4788 ;; Tracked objects:
  4789 ;;		On entry : 0/0
  4790 ;;		On exit  : 0/0
  4791 ;;		Unchanged: 0/0
  4792 ;; Data sizes:     COMMON   BANK0   BANK1   BANK2   BANK3   BANK4   BANK5   BANK6   BANK7   BANK8   BANK9  BANK10  BANK1
      +1  BANK12
  4793 ;;      Params:         0       0       0       0       0       0       0       0       0       0       0       0       
      +0       0
  4794 ;;      Locals:         4       0       0       0       0       0       0       0       0       0       0       0       
      +0       0
  4795 ;;      Temps:          1       0       0       0       0       0       0       0       0       0       0       0       
      +0       0
  4796 ;;      Totals:         5       0       0       0       0       0       0       0       0       0       0       0       
      +0       0
  4797 ;;Total ram usage:        5 bytes
  4798 ;; Hardware stack levels used: 1
  4799 ;; This function calls:
  4800 ;;		Nothing
  4801 ;; This function is called by:
  4802 ;;		_USBDeviceTasks
  4803 ;; This function uses a non-reentrant model
  4804 ;;
  4805                           
  4806                           
  4807                           ;psect for function i1_USBDeviceInit
  4808  0506                     i1_USBDeviceInit:
  4809  0506                     i1l4005:	
  4810                           ;incstack = 0
  4811                           ; Regs used in i1_USBDeviceInit: [wreg+fsr1l+fsr1h+status,2+status,0]
  4812                           
  4813                           
  4814                           ;mcc_generated_files/usb/usb_device.c: 283:     uint8_t i;;mcc_generated_files/usb/usb_d
      +                          evice.c: 285:     {PIE2bits.USBIE = 0;};
  4815  0506  0021               	movlb	1	; select bank1
  4816  0507  1112               	bcf	18,2	;volatile
  4817  0508                     i1l4007:
  4818                           
  4819                           ;mcc_generated_files/usb/usb_device.c: 292:     {UEIR = 0;};
  4820  0508  003D               	movlb	29	; select bank29
  4821  0509  0193               	clrf	19	;volatile
  4822                           
  4823                           ;mcc_generated_files/usb/usb_device.c: 295:     {UIR = 0;};
  4824  050A  0190               	clrf	16	;volatile
  4825                           
  4826                           ;mcc_generated_files/usb/usb_device.c: 298:     UEP0 = 0;
  4827  050B  0198               	clrf	24	;volatile
  4828  050C                     i1l4009:
  4829                           
  4830                           ;mcc_generated_files/usb/usb_device.c: 300:     { uint8_t i; uint8_t* p = (uint8_t*)&UEP
      +                          1; for(i=0;i<2;i++) *p++ = 0; };
  4831  050C  300E               	movlw	14
  4832  050D  00F2               	movwf	i1USBDeviceInit@p+1
  4833  050E  3099               	movlw	153
  4834  050F  00F1               	movwf	i1USBDeviceInit@p
  4835  0510  01F3               	clrf	i1USBDeviceInit@i_771
  4836  0511                     i1l4015:
  4837  0511  0871               	movf	i1USBDeviceInit@p,w
  4838  0512  0086               	movwf	6
  4839  0513  0872               	movf	i1USBDeviceInit@p+1,w
  4840  0514  0087               	movwf	7
  4841  0515  0181               	clrf	1
  4842  0516                     i1l4017:
  4843  0516  3001               	movlw	1
  4844  0517  07F1               	addwf	i1USBDeviceInit@p,f
  4845  0518  3000               	movlw	0
  4846  0519  3DF2               	addwfc	i1USBDeviceInit@p+1,f
  4847  051A                     i1l4019:
  4848  051A  3001               	movlw	1
  4849  051B  00F0               	movwf	??i1_USBDeviceInit
  4850  051C  0870               	movf	??i1_USBDeviceInit,w
  4851  051D  07F3               	addwf	i1USBDeviceInit@i_771,f
  4852  051E                     i1l4021:
  4853  051E  3002               	movlw	2
  4854  051F  0273               	subwf	i1USBDeviceInit@i_771,w
  4855  0520  1C03               	skipc
  4856  0521  2D23               	goto	u273_21
  4857  0522  2D24               	goto	u273_20
  4858  0523                     u273_21:
  4859  0523  2D11               	goto	i1l4015
  4860  0524                     u273_20:
  4861  0524                     i1l4023:
  4862                           
  4863                           ;mcc_generated_files/usb/usb_device.c: 302:     { UCFG = 0x10 | 0x00 | 0x04 | 0x02; UEIE
      +                           = 0x9F; UIE = 0x39 | 0x40 | 0x02; };
  4864  0524  3016               	movlw	22
  4865  0525  003D               	movlb	29	; select bank29
  4866  0526  0091               	movwf	17	;volatile
  4867  0527  309F               	movlw	159
  4868  0528  0097               	movwf	23	;volatile
  4869  0529  307B               	movlw	123
  4870  052A  0092               	movwf	18	;volatile
  4871  052B                     i1l4025:
  4872                           
  4873                           ;mcc_generated_files/usb/usb_device.c: 311:     for(i = 0; i < (sizeof(BDT)/sizeof(BDT_E
      +                          NTRY)); i++)
  4874  052B  01F4               	clrf	i1USBDeviceInit@i
  4875  052C                     i1l4031:
  4876                           
  4877                           ;mcc_generated_files/usb/usb_device.c: 312:     {;mcc_generated_files/usb/usb_device.c: 
      +                          313:         BDT[i].Val = 0x00;
  4878  052C  0874               	movf	i1USBDeviceInit@i,w
  4879  052D  00F0               	movwf	??i1_USBDeviceInit
  4880  052E  3001               	movlw	1
  4881  052F                     u274_25:
  4882  052F  35F0               	lslf	??i1_USBDeviceInit,f
  4883  0530  3EFF               	addlw	-1
  4884  0531  1D03               	skipz
  4885  0532  2D2F               	goto	u274_25
  4886  0533  3570               	lslf	??i1_USBDeviceInit,w
  4887  0534  3E20               	addlw	32
  4888  0535  0086               	movwf	6
  4889  0536  0187               	clrf	7
  4890  0537  3000               	movlw	0
  4891  0538  3FC0               	movwi [0]fsr1
  4892  0539  3000               	movlw	0
  4893  053A  3FC1               	movwi [1]fsr1
  4894  053B  3FC2               	movwi [2]fsr1
  4895  053C  3FC3               	movwi [3]fsr1
  4896  053D                     i1l4033:
  4897                           
  4898                           ;mcc_generated_files/usb/usb_device.c: 314:     }
  4899  053D  3001               	movlw	1
  4900  053E  00F0               	movwf	??i1_USBDeviceInit
  4901  053F  0870               	movf	??i1_USBDeviceInit,w
  4902  0540  07F4               	addwf	i1USBDeviceInit@i,f
  4903  0541                     i1l4035:
  4904  0541  300C               	movlw	12
  4905  0542  0274               	subwf	i1USBDeviceInit@i,w
  4906  0543  1C03               	skipc
  4907  0544  2D46               	goto	u275_21
  4908  0545  2D47               	goto	u275_20
  4909  0546                     u275_21:
  4910  0546  2D2C               	goto	i1l4031
  4911  0547                     u275_20:
  4912  0547                     i1l181:
  4913                           
  4914                           ;mcc_generated_files/usb/usb_device.c: 317:     UCONbits.PPBRST = 1;
  4915  0547  003D               	movlb	29	; select bank29
  4916  0548  170E               	bsf	14,6	;volatile
  4917  0549                     i1l4037:
  4918                           
  4919                           ;mcc_generated_files/usb/usb_device.c: 320:     UADDR = 0x00;
  4920  0549  0196               	clrf	22	;volatile
  4921  054A                     i1l4039:
  4922                           
  4923                           ;mcc_generated_files/usb/usb_device.c: 323:     UCONbits.PKTDIS = 0;
  4924  054A  120E               	bcf	14,4	;volatile
  4925  054B                     i1l4041:
  4926                           
  4927                           ;mcc_generated_files/usb/usb_device.c: 326:     UCONbits.PPBRST = 0;
  4928  054B  130E               	bcf	14,6	;volatile
  4929  054C                     i1l4043:
  4930                           
  4931                           ;mcc_generated_files/usb/usb_device.c: 330:     {;mcc_generated_files/usb/usb_device.c: 
      +                          331:         (UIR &= 0xF7);
  4932  054C  30F7               	movlw	247
  4933  054D  00F0               	movwf	??i1_USBDeviceInit
  4934  054E  0870               	movf	??i1_USBDeviceInit,w
  4935  054F  0590               	andwf	16,f	;volatile
  4936  0550                     i1l4045:
  4937                           
  4938                           ;mcc_generated_files/usb/usb_device.c: 333:         inPipes[0].info.Val = 0;
  4939  0550  0021               	movlb	1	; select bank1
  4940  0551  01C0               	clrf	(_inPipes^(0+128)+2)	;volatile
  4941  0552                     i1l4047:
  4942                           
  4943                           ;mcc_generated_files/usb/usb_device.c: 334:         outPipes[0].info.Val = 0;
  4944  0552  0023               	movlb	3	; select bank3
  4945  0553  01B2               	clrf	(_outPipes^(0+384)+2)	;volatile
  4946  0554                     i1l4049:
  4947                           
  4948                           ;mcc_generated_files/usb/usb_device.c: 335:         outPipes[0].wCount.Val = 0;
  4949  0554  01B3               	clrf	(_outPipes^(0+384)+3)	;volatile
  4950  0555  01B4               	clrf	((_outPipes+1)^(0+384)+3)	;volatile
  4951  0556                     i1l4051:
  4952                           
  4953                           ;mcc_generated_files/usb/usb_device.c: 336:     }while(UIRbits.TRNIF == 1);
  4954  0556  003D               	movlb	29	; select bank29
  4955  0557  1990               	btfsc	16,3	;volatile
  4956  0558  2D5A               	goto	u276_21
  4957  0559  2D5B               	goto	u276_20
  4958  055A                     u276_21:
  4959  055A  2D4C               	goto	i1l4043
  4960  055B                     u276_20:
  4961  055B                     i1l4053:
  4962                           
  4963                           ;mcc_generated_files/usb/usb_device.c: 340:     USBStatusStageEnabledFlag1 = 1;
  4964  055B  3001               	movlw	1
  4965  055C  00F0               	movwf	??i1_USBDeviceInit
  4966  055D  0870               	movf	??i1_USBDeviceInit,w
  4967  055E  0023               	movlb	3	; select bank3
  4968  055F  00E5               	movwf	_USBStatusStageEnabledFlag1^(0+384)	;volatile
  4969                           
  4970                           ;mcc_generated_files/usb/usb_device.c: 341:     USBStatusStageEnabledFlag2 = 1;
  4971  0560  3001               	movlw	1
  4972  0561  00F0               	movwf	??i1_USBDeviceInit
  4973  0562  0870               	movf	??i1_USBDeviceInit,w
  4974  0563  00E4               	movwf	_USBStatusStageEnabledFlag2^(0+384)	;volatile
  4975  0564                     i1l4055:
  4976                           
  4977                           ;mcc_generated_files/usb/usb_device.c: 343:     USBDeferINDataStagePackets = 0;
  4978  0564  01E3               	clrf	_USBDeferINDataStagePackets^(0+384)	;volatile
  4979  0565                     i1l4057:
  4980                           
  4981                           ;mcc_generated_files/usb/usb_device.c: 344:     USBDeferOUTDataStagePackets = 0;
  4982  0565  01E2               	clrf	_USBDeferOUTDataStagePackets^(0+384)	;volatile
  4983  0566                     i1l4059:
  4984                           
  4985                           ;mcc_generated_files/usb/usb_device.c: 345:     USBBusIsSuspended = 0;
  4986  0566  01EA               	clrf	_USBBusIsSuspended^(0+384)	;volatile
  4987  0567                     i1l4061:
  4988                           
  4989                           ;mcc_generated_files/usb/usb_device.c: 349:     for(i = 0; i < (uint8_t)(2 +1u); i++)
  4990  0567  01F4               	clrf	i1USBDeviceInit@i
  4991  0568                     i1l4065:
  4992                           
  4993                           ;mcc_generated_files/usb/usb_device.c: 350:     {;mcc_generated_files/usb/usb_device.c: 
      +                          351:         pBDTEntryIn[i] = 0u;
  4994  0568  3574               	lslf	i1USBDeviceInit@i,w
  4995  0569  3EB7               	addlw	(low (_pBDTEntryIn| (0+256)))& (0+255)
  4996  056A  0086               	movwf	6
  4997  056B  3001               	movlw	1	; select bank3/4
  4998  056C  0087               	movwf	7
  4999  056D  3000               	movlw	0
  5000  056E  3FC0               	movwi [0]fsr1
  5001  056F  3FC1               	movwi [1]fsr1
  5002                           
  5003                           ;mcc_generated_files/usb/usb_device.c: 352:         pBDTEntryOut[i] = 0u;
  5004  0570  3574               	lslf	i1USBDeviceInit@i,w
  5005  0571  3EBD               	addlw	(low (_pBDTEntryOut| (0+256)))& (0+255)
  5006  0572  0086               	movwf	6
  5007  0573  3001               	movlw	1	; select bank3/4
  5008  0574  0087               	movwf	7
  5009  0575  3000               	movlw	0
  5010  0576  3FC0               	movwi [0]fsr1
  5011  0577  3FC1               	movwi [1]fsr1
  5012                           
  5013                           ;mcc_generated_files/usb/usb_device.c: 353:         ep_data_in[i].Val = 0u;
  5014  0578  0874               	movf	i1USBDeviceInit@i,w
  5015  0579  3ECA               	addlw	(low (_ep_data_in| (0+256)))& (0+255)
  5016  057A  0086               	movwf	6
  5017  057B  3001               	movlw	1	; select bank3/4
  5018  057C  0087               	movwf	7
  5019  057D  0181               	clrf	1
  5020                           
  5021                           ;mcc_generated_files/usb/usb_device.c: 354:         ep_data_out[i].Val = 0u;
  5022  057E  0874               	movf	i1USBDeviceInit@i,w
  5023  057F  3EC7               	addlw	(low (_ep_data_out| (0+256)))& (0+255)
  5024  0580  0086               	movwf	6
  5025  0581  3001               	movlw	1	; select bank3/4
  5026  0582  0087               	movwf	7
  5027  0583  0181               	clrf	1
  5028  0584                     i1l4067:
  5029                           
  5030                           ;mcc_generated_files/usb/usb_device.c: 355:     }
  5031  0584  3001               	movlw	1
  5032  0585  00F0               	movwf	??i1_USBDeviceInit
  5033  0586  0870               	movf	??i1_USBDeviceInit,w
  5034  0587  07F4               	addwf	i1USBDeviceInit@i,f
  5035  0588                     i1l4069:
  5036  0588  3003               	movlw	3
  5037  0589  0274               	subwf	i1USBDeviceInit@i,w
  5038  058A  1C03               	skipc
  5039  058B  2D8D               	goto	u277_21
  5040  058C  2D8E               	goto	u277_20
  5041  058D                     u277_21:
  5042  058D  2D68               	goto	i1l4065
  5043  058E                     u277_20:
  5044  058E                     i1l4071:
  5045                           
  5046                           ;mcc_generated_files/usb/usb_device.c: 358:     pBDTEntryIn[0] = (volatile BDT_ENTRY*)&B
      +                          DT[2];
  5047  058E  3028               	movlw	40
  5048  058F  0023               	movlb	3	; select bank3
  5049  0590  00B7               	movwf	_pBDTEntryIn^(0+384)
  5050  0591  3000               	movlw	0
  5051  0592  00B8               	movwf	(_pBDTEntryIn+1)^(0+384)
  5052  0593                     i1l4073:
  5053                           
  5054                           ;mcc_generated_files/usb/usb_device.c: 360:     UEP0 = 0x06|0x10;
  5055  0593  3016               	movlw	22
  5056  0594  003D               	movlb	29	; select bank29
  5057  0595  0098               	movwf	24	;volatile
  5058  0596                     i1l4075:
  5059                           
  5060                           ;mcc_generated_files/usb/usb_device.c: 362:     BDT[0].ADR = (((uint16_t)(&SetupPkt)) & 
      +                          0x7FFF);
  5061  0596  3000               	movlw	0
  5062  0597  0020               	movlb	0	; select bank0
  5063  0598  00A3               	movwf	35	;volatile
  5064  0599  3050               	movlw	80
  5065  059A  00A2               	movwf	34	;volatile
  5066  059B                     i1l4077:
  5067                           
  5068                           ;mcc_generated_files/usb/usb_device.c: 363:     BDT[0].CNT = 8;
  5069  059B  3008               	movlw	8
  5070  059C  00A1               	movwf	33	;volatile
  5071  059D                     i1l4079:
  5072                           
  5073                           ;mcc_generated_files/usb/usb_device.c: 364:     BDT[0].STAT.Val = 0x00|0x04;
  5074  059D  3004               	movlw	4
  5075  059E  00F0               	movwf	??i1_USBDeviceInit
  5076  059F  0870               	movf	??i1_USBDeviceInit,w
  5077  05A0  00A0               	movwf	32	;volatile
  5078  05A1                     i1l4081:
  5079                           
  5080                           ;mcc_generated_files/usb/usb_device.c: 365:     BDT[0].STAT.Val |= 0x80;
  5081  05A1  17A0               	bsf	32,7	;volatile
  5082  05A2                     i1l4083:
  5083                           
  5084                           ;mcc_generated_files/usb/usb_device.c: 368:     USBActiveConfiguration = 0;
  5085  05A2  0021               	movlb	1	; select bank1
  5086  05A3  01CA               	clrf	_USBActiveConfiguration^(0+128)	;volatile
  5087  05A4                     i1l4085:
  5088                           
  5089                           ;mcc_generated_files/usb/usb_device.c: 370:     USB1msTickCount = 0;
  5090  05A4  3000               	movlw	0
  5091  05A5  0023               	movlb	3	; select bank3
  5092  05A6  00C6               	movwf	(_USB1msTickCount+3)^(0+384)	;volatile
  5093  05A7  3000               	movlw	0
  5094  05A8  00C5               	movwf	(_USB1msTickCount+2)^(0+384)	;volatile
  5095  05A9  3000               	movlw	0
  5096  05AA  00C4               	movwf	(_USB1msTickCount+1)^(0+384)	;volatile
  5097  05AB  3000               	movlw	0
  5098  05AC  00C3               	movwf	_USB1msTickCount^(0+384)	;volatile
  5099  05AD                     i1l4087:
  5100                           
  5101                           ;mcc_generated_files/usb/usb_device.c: 371:     USBTicksSinceSuspendEnd = 0;
  5102  05AD  01E1               	clrf	_USBTicksSinceSuspendEnd^(0+384)	;volatile
  5103  05AE                     i1l4089:
  5104                           
  5105                           ;mcc_generated_files/usb/usb_device.c: 374:     USBDeviceState = DETACHED_STATE;
  5106  05AE  0021               	movlb	1	; select bank1
  5107  05AF  01C8               	clrf	_USBDeviceState^(0+128)	;volatile
  5108  05B0                     i1l186:
  5109  05B0  0008               	return
  5110  05B1                     __end_ofi1_USBDeviceInit:
  5111                           
  5112                           	psect	text22
  5113  097D                     __ptext22:	
  5114 ;; *************** function _USBWakeFromSuspend *****************
  5115 ;; Defined at:
  5116 ;;		line 2307 in file "mcc_generated_files/usb/usb_device.c"
  5117 ;; Parameters:    Size  Location     Type
  5118 ;;		None
  5119 ;; Auto vars:     Size  Location     Type
  5120 ;;		None
  5121 ;; Return value:  Size  Location     Type
  5122 ;;                  1    wreg      void 
  5123 ;; Registers used:
  5124 ;;		wreg, fsr0l, fsr0h, fsr1l, fsr1h, status,2, status,0, pclath, cstack
  5125 ;; Tracked objects:
  5126 ;;		On entry : 0/0
  5127 ;;		On exit  : 0/0
  5128 ;;		Unchanged: 0/0
  5129 ;; Data sizes:     COMMON   BANK0   BANK1   BANK2   BANK3   BANK4   BANK5   BANK6   BANK7   BANK8   BANK9  BANK10  BANK1
      +1  BANK12
  5130 ;;      Params:         0       0       0       0       0       0       0       0       0       0       0       0       
      +0       0
  5131 ;;      Locals:         0       0       0       0       0       0       0       0       0       0       0       0       
      +0       0
  5132 ;;      Temps:          0       1       0       0       0       0       0       0       0       0       0       0       
      +0       0
  5133 ;;      Totals:         0       1       0       0       0       0       0       0       0       0       0       0       
      +0       0
  5134 ;;Total ram usage:        1 bytes
  5135 ;; Hardware stack levels used: 1
  5136 ;; Hardware stack levels required when called: 4
  5137 ;; This function calls:
  5138 ;;		_USER_USB_CALLBACK_EVENT_HANDLER
  5139 ;; This function is called by:
  5140 ;;		_USBDeviceTasks
  5141 ;; This function uses a non-reentrant model
  5142 ;;
  5143                           
  5144                           
  5145                           ;psect for function _USBWakeFromSuspend
  5146  097D                     _USBWakeFromSuspend:
  5147  097D                     i1l3879:	
  5148                           ;incstack = 0
  5149                           ; Regs used in _USBWakeFromSuspend: [wreg-fsr1h+status,2+status,0+pclath+cstack]
  5150                           
  5151                           
  5152                           ;mcc_generated_files/usb/usb_device.c: 2309:     USBBusIsSuspended = 0;
  5153  097D  0023               	movlb	3	; select bank3
  5154  097E  01EA               	clrf	_USBBusIsSuspended^(0+384)	;volatile
  5155  097F                     i1l3881:
  5156                           
  5157                           ;mcc_generated_files/usb/usb_device.c: 2315:     USER_USB_CALLBACK_EVENT_HANDLER((USB_EV
      +                          ENT)EVENT_RESUME,0,0);
  5158  097F  3074               	movlw	116
  5159  0980  0020               	movlb	0	; select bank0
  5160  0981  00E0               	movwf	USER_USB_CALLBACK_EVENT_HANDLER@event
  5161  0982  3000               	movlw	0
  5162  0983  00E1               	movwf	USER_USB_CALLBACK_EVENT_HANDLER@event+1
  5163  0984  3000               	movlw	0
  5164  0985  00E2               	movwf	USER_USB_CALLBACK_EVENT_HANDLER@pdata
  5165  0986  3000               	movlw	0
  5166  0987  00E3               	movwf	USER_USB_CALLBACK_EVENT_HANDLER@pdata+1
  5167  0988  3000               	movlw	0
  5168  0989  00E4               	movwf	USER_USB_CALLBACK_EVENT_HANDLER@size
  5169  098A  00E5               	movwf	USER_USB_CALLBACK_EVENT_HANDLER@size+1
  5170  098B  318A  2276  3189   	fcall	_USER_USB_CALLBACK_EVENT_HANDLER
  5171  098E                     i1l3883:
  5172                           
  5173                           ;mcc_generated_files/usb/usb_device.c: 2322:         UCONbits.SUSPND = 0;
  5174  098E  003D               	movlb	29	; select bank29
  5175  098F  108E               	bcf	14,1	;volatile
  5176  0990                     i1l3885:
  5177                           
  5178                           ;mcc_generated_files/usb/usb_device.c: 2327:     UIEbits.ACTVIE = 0;
  5179  0990  1112               	bcf	18,2	;volatile
  5180                           
  5181                           ;mcc_generated_files/usb/usb_device.c: 2345:     while(UIRbits.ACTVIF)
  5182  0991  2998               	goto	i1l3889
  5183  0992                     i1l3887:
  5184                           
  5185                           ;mcc_generated_files/usb/usb_device.c: 2347:     {;mcc_generated_files/usb/usb_device.c:
      +                           2348:         (UIR &= 0xFB);
  5186  0992  30FB               	movlw	251
  5187  0993  0020               	movlb	0	; select bank0
  5188  0994  00E6               	movwf	??_USBWakeFromSuspend
  5189  0995  0866               	movf	??_USBWakeFromSuspend,w
  5190  0996  003D               	movlb	29	; select bank29
  5191  0997  0590               	andwf	16,f	;volatile
  5192  0998                     i1l3889:
  5193                           
  5194                           ;mcc_generated_files/usb/usb_device.c: 2345:     while(UIRbits.ACTVIF)
  5195  0998  1910               	btfsc	16,2	;volatile
  5196  0999  299B               	goto	u259_21
  5197  099A  299C               	goto	u259_20
  5198  099B                     u259_21:
  5199  099B  2992               	goto	i1l3887
  5200  099C                     u259_20:
  5201  099C                     i1l3891:
  5202                           
  5203                           ;mcc_generated_files/usb/usb_device.c: 2351:     USBTicksSinceSuspendEnd = 0;
  5204  099C  0023               	movlb	3	; select bank3
  5205  099D  01E1               	clrf	_USBTicksSinceSuspendEnd^(0+384)	;volatile
  5206  099E                     i1l355:
  5207  099E  0008               	return
  5208  099F                     __end_of_USBWakeFromSuspend:
  5209                           
  5210                           	psect	text23
  5211  093C                     __ptext23:	
  5212 ;; *************** function _USBSuspend *****************
  5213 ;; Defined at:
  5214 ;;		line 2249 in file "mcc_generated_files/usb/usb_device.c"
  5215 ;; Parameters:    Size  Location     Type
  5216 ;;		None
  5217 ;; Auto vars:     Size  Location     Type
  5218 ;;		None
  5219 ;; Return value:  Size  Location     Type
  5220 ;;                  1    wreg      void 
  5221 ;; Registers used:
  5222 ;;		wreg, fsr0l, fsr0h, fsr1l, fsr1h, status,2, status,0, pclath, cstack
  5223 ;; Tracked objects:
  5224 ;;		On entry : 0/0
  5225 ;;		On exit  : 0/0
  5226 ;;		Unchanged: 0/0
  5227 ;; Data sizes:     COMMON   BANK0   BANK1   BANK2   BANK3   BANK4   BANK5   BANK6   BANK7   BANK8   BANK9  BANK10  BANK1
      +1  BANK12
  5228 ;;      Params:         0       0       0       0       0       0       0       0       0       0       0       0       
      +0       0
  5229 ;;      Locals:         0       0       0       0       0       0       0       0       0       0       0       0       
      +0       0
  5230 ;;      Temps:          0       1       0       0       0       0       0       0       0       0       0       0       
      +0       0
  5231 ;;      Totals:         0       1       0       0       0       0       0       0       0       0       0       0       
      +0       0
  5232 ;;Total ram usage:        1 bytes
  5233 ;; Hardware stack levels used: 1
  5234 ;; Hardware stack levels required when called: 4
  5235 ;; This function calls:
  5236 ;;		_USER_USB_CALLBACK_EVENT_HANDLER
  5237 ;; This function is called by:
  5238 ;;		_USBDeviceTasks
  5239 ;; This function uses a non-reentrant model
  5240 ;;
  5241                           
  5242                           
  5243                           ;psect for function _USBSuspend
  5244  093C                     _USBSuspend:
  5245  093C                     i1l3893:	
  5246                           ;incstack = 0
  5247                           ; Regs used in _USBSuspend: [wreg-fsr1h+status,2+status,0+pclath+cstack]
  5248                           
  5249                           
  5250                           ;mcc_generated_files/usb/usb_device.c: 2274:     UIEbits.ACTVIE = 1;
  5251  093C  003D               	movlb	29	; select bank29
  5252  093D  1512               	bsf	18,2	;volatile
  5253  093E                     i1l3895:
  5254                           
  5255                           ;mcc_generated_files/usb/usb_device.c: 2275:     (UIR &= 0xEF);
  5256  093E  30EF               	movlw	239
  5257  093F  0020               	movlb	0	; select bank0
  5258  0940  00E6               	movwf	??_USBSuspend
  5259  0941  0866               	movf	??_USBSuspend,w
  5260  0942  003D               	movlb	29	; select bank29
  5261  0943  0590               	andwf	16,f	;volatile
  5262  0944                     i1l3897:
  5263                           
  5264                           ;mcc_generated_files/usb/usb_device.c: 2278:         UCONbits.SUSPND = 1;
  5265  0944  148E               	bsf	14,1	;volatile
  5266  0945                     i1l3899:
  5267                           
  5268                           ;mcc_generated_files/usb/usb_device.c: 2281:     USBBusIsSuspended = 1;
  5269  0945  3001               	movlw	1
  5270  0946  0020               	movlb	0	; select bank0
  5271  0947  00E6               	movwf	??_USBSuspend
  5272  0948  0866               	movf	??_USBSuspend,w
  5273  0949  0023               	movlb	3	; select bank3
  5274  094A  00EA               	movwf	_USBBusIsSuspended^(0+384)	;volatile
  5275  094B                     i1l3901:
  5276                           
  5277                           ;mcc_generated_files/usb/usb_device.c: 2282:     USBTicksSinceSuspendEnd = 0;
  5278  094B  01E1               	clrf	_USBTicksSinceSuspendEnd^(0+384)	;volatile
  5279  094C                     i1l3903:
  5280                           
  5281                           ;mcc_generated_files/usb/usb_device.c: 2289:     USER_USB_CALLBACK_EVENT_HANDLER((USB_EV
      +                          ENT)EVENT_SUSPEND,0,0);
  5282  094C  3075               	movlw	117
  5283  094D  0020               	movlb	0	; select bank0
  5284  094E  00E0               	movwf	USER_USB_CALLBACK_EVENT_HANDLER@event
  5285  094F  3000               	movlw	0
  5286  0950  00E1               	movwf	USER_USB_CALLBACK_EVENT_HANDLER@event+1
  5287  0951  3000               	movlw	0
  5288  0952  00E2               	movwf	USER_USB_CALLBACK_EVENT_HANDLER@pdata
  5289  0953  3000               	movlw	0
  5290  0954  00E3               	movwf	USER_USB_CALLBACK_EVENT_HANDLER@pdata+1
  5291  0955  3000               	movlw	0
  5292  0956  00E4               	movwf	USER_USB_CALLBACK_EVENT_HANDLER@size
  5293  0957  00E5               	movwf	USER_USB_CALLBACK_EVENT_HANDLER@size+1
  5294  0958  318A  2276  3189   	fcall	_USER_USB_CALLBACK_EVENT_HANDLER
  5295  095B                     i1l349:
  5296  095B  0008               	return
  5297  095C                     __end_of_USBSuspend:
  5298                           
  5299                           	psect	text24
  5300  09EA                     __ptext24:	
  5301 ;; *************** function _USBStallHandler *****************
  5302 ;; Defined at:
  5303 ;;		line 2206 in file "mcc_generated_files/usb/usb_device.c"
  5304 ;; Parameters:    Size  Location     Type
  5305 ;;		None
  5306 ;; Auto vars:     Size  Location     Type
  5307 ;;		None
  5308 ;; Return value:  Size  Location     Type
  5309 ;;                  1    wreg      void 
  5310 ;; Registers used:
  5311 ;;		wreg, fsr1l, fsr1h, status,2, status,0
  5312 ;; Tracked objects:
  5313 ;;		On entry : 0/0
  5314 ;;		On exit  : 0/0
  5315 ;;		Unchanged: 0/0
  5316 ;; Data sizes:     COMMON   BANK0   BANK1   BANK2   BANK3   BANK4   BANK5   BANK6   BANK7   BANK8   BANK9  BANK10  BANK1
      +1  BANK12
  5317 ;;      Params:         0       0       0       0       0       0       0       0       0       0       0       0       
      +0       0
  5318 ;;      Locals:         0       0       0       0       0       0       0       0       0       0       0       0       
      +0       0
  5319 ;;      Temps:          1       0       0       0       0       0       0       0       0       0       0       0       
      +0       0
  5320 ;;      Totals:         1       0       0       0       0       0       0       0       0       0       0       0       
      +0       0
  5321 ;;Total ram usage:        1 bytes
  5322 ;; Hardware stack levels used: 1
  5323 ;; This function calls:
  5324 ;;		Nothing
  5325 ;; This function is called by:
  5326 ;;		_USBDeviceTasks
  5327 ;; This function uses a non-reentrant model
  5328 ;;
  5329                           
  5330                           
  5331                           ;psect for function _USBStallHandler
  5332  09EA                     _USBStallHandler:
  5333  09EA                     i1l3913:	
  5334                           ;incstack = 0
  5335                           ; Regs used in _USBStallHandler: [wreg+fsr1l+fsr1h+status,2+status,0]
  5336                           
  5337                           
  5338                           ;mcc_generated_files/usb/usb_device.c: 2218:     if(UEP0bits.EPSTALL == 1)
  5339  09EA  003D               	movlb	29	; select bank29
  5340  09EB  1C18               	btfss	24,0	;volatile
  5341  09EC  29EE               	goto	u262_21
  5342  09ED  29EF               	goto	u262_20
  5343  09EE                     u262_21:
  5344  09EE  2A12               	goto	i1l3923
  5345  09EF                     u262_20:
  5346  09EF                     i1l3915:
  5347                           
  5348                           ;mcc_generated_files/usb/usb_device.c: 2219:     {;mcc_generated_files/usb/usb_device.c:
      +                           2221:         if((pBDTEntryEP0OutCurrent->STAT.Val == 0x80) && (pBDTEntryIn[0]->STAT.Va
      +                          l == (0x80|0x04)))
  5349  09EF  0021               	movlb	1	; select bank1
  5350  09F0  0846               	movf	_pBDTEntryEP0OutCurrent^(0+128),w
  5351  09F1  0086               	movwf	6
  5352  09F2  0187               	clrf	7
  5353  09F3  3080               	movlw	128
  5354  09F4  0601               	xorwf	1,w
  5355  09F5  1D03               	btfss	3,2
  5356  09F6  29F8               	goto	u263_21
  5357  09F7  29F9               	goto	u263_20
  5358  09F8                     u263_21:
  5359  09F8  2A10               	goto	i1l3921
  5360  09F9                     u263_20:
  5361  09F9                     i1l3917:
  5362  09F9  0023               	movlb	3	; select bank3
  5363  09FA  0837               	movf	_pBDTEntryIn^(0+384),w
  5364  09FB  0086               	movwf	6
  5365  09FC  0838               	movf	(_pBDTEntryIn+1)^(0+384),w
  5366  09FD  0087               	movwf	7
  5367  09FE  3084               	movlw	132
  5368  09FF  0601               	xorwf	1,w
  5369  0A00  1D03               	btfss	3,2
  5370  0A01  2A03               	goto	u264_21
  5371  0A02  2A04               	goto	u264_20
  5372  0A03                     u264_21:
  5373  0A03  2A10               	goto	i1l3921
  5374  0A04                     u264_20:
  5375  0A04                     i1l3919:
  5376                           
  5377                           ;mcc_generated_files/usb/usb_device.c: 2222:         {;mcc_generated_files/usb/usb_devic
      +                          e.c: 2224:             pBDTEntryEP0OutCurrent->STAT.Val = 0x00|(0x08 & 0x08)|0x04;
  5378  0A04  300C               	movlw	12
  5379  0A05  00F0               	movwf	??_USBStallHandler
  5380  0A06  0021               	movlb	1	; select bank1
  5381  0A07  0846               	movf	_pBDTEntryEP0OutCurrent^(0+128),w
  5382  0A08  0086               	movwf	6
  5383  0A09  0187               	clrf	7
  5384  0A0A  0870               	movf	??_USBStallHandler,w
  5385  0A0B  0081               	movwf	1
  5386                           
  5387                           ;mcc_generated_files/usb/usb_device.c: 2225:             pBDTEntryEP0OutCurrent->STAT.Va
      +                          l |= 0x80;
  5388  0A0C  0846               	movf	_pBDTEntryEP0OutCurrent^(0+128),w
  5389  0A0D  0086               	movwf	6
  5390  0A0E  0187               	clrf	7
  5391  0A0F  1781               	bsf	1,7
  5392  0A10                     i1l3921:
  5393                           
  5394                           ;mcc_generated_files/usb/usb_device.c: 2227:         UEP0bits.EPSTALL = 0;
  5395  0A10  003D               	movlb	29	; select bank29
  5396  0A11  1018               	bcf	24,0	;volatile
  5397  0A12                     i1l3923:
  5398                           
  5399                           ;mcc_generated_files/usb/usb_device.c: 2230:     (UIR &= 0xDF);
  5400  0A12  30DF               	movlw	223
  5401  0A13  00F0               	movwf	??_USBStallHandler
  5402  0A14  0870               	movf	??_USBStallHandler,w
  5403  0A15  0590               	andwf	16,f	;volatile
  5404  0A16                     i1l346:
  5405  0A16  0008               	return
  5406  0A17                     __end_of_USBStallHandler:
  5407                           
  5408                           	psect	text25
  5409  0902                     __ptext25:	
  5410 ;; *************** function _USBIncrement1msInternalTimers *****************
  5411 ;; Defined at:
  5412 ;;		line 3029 in file "mcc_generated_files/usb/usb_device.c"
  5413 ;; Parameters:    Size  Location     Type
  5414 ;;		None
  5415 ;; Auto vars:     Size  Location     Type
  5416 ;;		None
  5417 ;; Return value:  Size  Location     Type
  5418 ;;                  1    wreg      void 
  5419 ;; Registers used:
  5420 ;;		wreg, status,2, status,0
  5421 ;; Tracked objects:
  5422 ;;		On entry : 0/0
  5423 ;;		On exit  : 0/0
  5424 ;;		Unchanged: 0/0
  5425 ;; Data sizes:     COMMON   BANK0   BANK1   BANK2   BANK3   BANK4   BANK5   BANK6   BANK7   BANK8   BANK9  BANK10  BANK1
      +1  BANK12
  5426 ;;      Params:         0       0       0       0       0       0       0       0       0       0       0       0       
      +0       0
  5427 ;;      Locals:         0       0       0       0       0       0       0       0       0       0       0       0       
      +0       0
  5428 ;;      Temps:          1       0       0       0       0       0       0       0       0       0       0       0       
      +0       0
  5429 ;;      Totals:         1       0       0       0       0       0       0       0       0       0       0       0       
      +0       0
  5430 ;;Total ram usage:        1 bytes
  5431 ;; Hardware stack levels used: 1
  5432 ;; This function calls:
  5433 ;;		Nothing
  5434 ;; This function is called by:
  5435 ;;		_USBDeviceTasks
  5436 ;; This function uses a non-reentrant model
  5437 ;;
  5438                           
  5439                           
  5440                           ;psect for function _USBIncrement1msInternalTimers
  5441  0902                     _USBIncrement1msInternalTimers:
  5442  0902                     i1l3905:	
  5443                           ;incstack = 0
  5444                           ; Regs used in _USBIncrement1msInternalTimers: [wreg+status,2+status,0]
  5445                           
  5446                           
  5447                           ;mcc_generated_files/usb/usb_device.c: 3037:     USB1msTickCount++;
  5448  0902  3001               	movlw	1
  5449  0903  0023               	movlb	3	; select bank3
  5450  0904  07C3               	addwf	_USB1msTickCount^(0+384),f	;volatile
  5451  0905  3000               	movlw	0
  5452  0906  3DC4               	addwfc	(_USB1msTickCount+1)^(0+384),f	;volatile
  5453  0907  3000               	movlw	0
  5454  0908  3DC5               	addwfc	(_USB1msTickCount+2)^(0+384),f	;volatile
  5455  0909  3000               	movlw	0
  5456  090A  3DC6               	addwfc	(_USB1msTickCount+3)^(0+384),f	;volatile
  5457  090B                     i1l3907:
  5458                           
  5459                           ;mcc_generated_files/usb/usb_device.c: 3038:     if(USBBusIsSuspended == 0)
  5460  090B  086A               	movf	_USBBusIsSuspended^(0+384),w	;volatile
  5461  090C  1D03               	btfss	3,2
  5462  090D  290F               	goto	u260_21
  5463  090E  2910               	goto	u260_20
  5464  090F                     u260_21:
  5465  090F  291D               	goto	i1l436
  5466  0910                     u260_20:
  5467  0910                     i1l3909:
  5468                           
  5469                           ;mcc_generated_files/usb/usb_device.c: 3039:     {;mcc_generated_files/usb/usb_device.c:
      +                           3040:         USBTicksSinceSuspendEnd++;
  5470  0910  3001               	movlw	1
  5471  0911  00F0               	movwf	??_USBIncrement1msInternalTimers
  5472  0912  0870               	movf	??_USBIncrement1msInternalTimers,w
  5473  0913  07E1               	addwf	_USBTicksSinceSuspendEnd^(0+384),f	;volatile
  5474                           
  5475                           ;mcc_generated_files/usb/usb_device.c: 3042:         if(USBTicksSinceSuspendEnd == 0)
  5476  0914  0861               	movf	_USBTicksSinceSuspendEnd^(0+384),w	;volatile
  5477  0915  1D03               	btfss	3,2
  5478  0916  2918               	goto	u261_21
  5479  0917  2919               	goto	u261_20
  5480  0918                     u261_21:
  5481  0918  291D               	goto	i1l436
  5482  0919                     u261_20:
  5483  0919                     i1l3911:
  5484                           
  5485                           ;mcc_generated_files/usb/usb_device.c: 3043:         {;mcc_generated_files/usb/usb_devic
      +                          e.c: 3044:             USBTicksSinceSuspendEnd = 255;
  5486  0919  30FF               	movlw	255
  5487  091A  00F0               	movwf	??_USBIncrement1msInternalTimers
  5488  091B  0870               	movf	??_USBIncrement1msInternalTimers,w
  5489  091C  00E1               	movwf	_USBTicksSinceSuspendEnd^(0+384)	;volatile
  5490  091D                     i1l436:
  5491  091D  0008               	return
  5492  091E                     __end_of_USBIncrement1msInternalTimers:
  5493                           
  5494                           	psect	text26
  5495  0BF4                     __ptext26:	
  5496 ;; *************** function _USBCtrlEPService *****************
  5497 ;; Defined at:
  5498 ;;		line 2376 in file "mcc_generated_files/usb/usb_device.c"
  5499 ;; Parameters:    Size  Location     Type
  5500 ;;		None
  5501 ;; Auto vars:     Size  Location     Type
  5502 ;;		None
  5503 ;; Return value:  Size  Location     Type
  5504 ;;                  1    wreg      void 
  5505 ;; Registers used:
  5506 ;;		wreg, fsr0l, fsr0h, fsr1l, fsr1h, status,2, status,0, pclath, cstack
  5507 ;; Tracked objects:
  5508 ;;		On entry : 0/0
  5509 ;;		On exit  : 0/0
  5510 ;;		Unchanged: 0/0
  5511 ;; Data sizes:     COMMON   BANK0   BANK1   BANK2   BANK3   BANK4   BANK5   BANK6   BANK7   BANK8   BANK9  BANK10  BANK1
      +1  BANK12
  5512 ;;      Params:         0       0       0       0       0       0       0       0       0       0       0       0       
      +0       0
  5513 ;;      Locals:         0       0       0       0       0       0       0       0       0       0       0       0       
      +0       0
  5514 ;;      Temps:          0       0       2       0       0       0       0       0       0       0       0       0       
      +0       0
  5515 ;;      Totals:         0       0       2       0       0       0       0       0       0       0       0       0       
      +0       0
  5516 ;;Total ram usage:        2 bytes
  5517 ;; Hardware stack levels used: 1
  5518 ;; Hardware stack levels required when called: 7
  5519 ;; This function calls:
  5520 ;;		_USBCtrlTrfInHandler
  5521 ;;		_USBCtrlTrfOutHandler
  5522 ;;		_USBCtrlTrfSetupHandler
  5523 ;;		_memcpy
  5524 ;; This function is called by:
  5525 ;;		_USBDeviceTasks
  5526 ;; This function uses a non-reentrant model
  5527 ;;
  5528                           
  5529                           
  5530                           ;psect for function _USBCtrlEPService
  5531  0BF4                     _USBCtrlEPService:
  5532  0BF4                     i1l4921:	
  5533                           ;incstack = 0
  5534                           ; Regs used in _USBCtrlEPService: [wreg-fsr1h+status,2+status,0+pclath+cstack]
  5535                           
  5536                           
  5537                           ;mcc_generated_files/usb/usb_device.c: 2382:         USBStatusStageTimeoutCounter = (uin
      +                          t8_t)45;
  5538  0BF4  302D               	movlw	45
  5539  0BF5  0021               	movlb	1	; select bank1
  5540  0BF6  00A0               	movwf	??_USBCtrlEPService^(0+128)
  5541  0BF7  0820               	movf	??_USBCtrlEPService^(0+128),w
  5542  0BF8  0023               	movlb	3	; select bank3
  5543  0BF9  00E7               	movwf	_USBStatusStageTimeoutCounter^(0+384)	;volatile
  5544  0BFA                     i1l4923:
  5545                           
  5546                           ;mcc_generated_files/usb/usb_device.c: 2386:     if((USTATcopy.Val & ~0x02) == 0x00)
  5547  0BFA  0021               	movlb	1	; select bank1
  5548  0BFB  0849               	movf	_USTATcopy^(0+128),w	;volatile
  5549  0BFC  39FD               	andlw	253
  5550  0BFD  1D03               	btfss	3,2
  5551  0BFE  2C00               	goto	u367_21
  5552  0BFF  2C01               	goto	u367_20
  5553  0C00                     u367_21:
  5554  0C00  2C3D               	goto	i1l4939
  5555  0C01                     u367_20:
  5556  0C01                     i1l4925:
  5557                           
  5558                           ;mcc_generated_files/usb/usb_device.c: 2387:     {;mcc_generated_files/usb/usb_device.c:
      +                           2390:             pBDTEntryEP0OutCurrent = (volatile BDT_ENTRY*)&BDT[(USTATcopy.Val & 0
      +                          x7E)>>1];
  5559  0C01  3649               	lsrf	_USTATcopy^(0+128),w	;volatile
  5560  0C02  393F               	andlw	63
  5561  0C03  00A0               	movwf	??_USBCtrlEPService^(0+128)
  5562  0C04  3001               	movlw	1
  5563  0C05                     u368_25:
  5564  0C05  35A0               	lslf	??_USBCtrlEPService^(0+128),f
  5565  0C06  3EFF               	addlw	-1
  5566  0C07  1D03               	skipz
  5567  0C08  2C05               	goto	u368_25
  5568  0C09  3520               	lslf	??_USBCtrlEPService^(0+128),w
  5569  0C0A  3E20               	addlw	32
  5570  0C0B  00A1               	movwf	(??_USBCtrlEPService+1)^(0+128)
  5571  0C0C  0821               	movf	(??_USBCtrlEPService+1)^(0+128),w
  5572  0C0D  00C6               	movwf	_pBDTEntryEP0OutCurrent^(0+128)
  5573  0C0E                     i1l4927:
  5574                           
  5575                           ;mcc_generated_files/usb/usb_device.c: 2398:         pBDTEntryEP0OutNext = pBDTEntryEP0O
      +                          utCurrent;
  5576  0C0E  0846               	movf	_pBDTEntryEP0OutCurrent^(0+128),w
  5577  0C0F  00C3               	movwf	_pBDTEntryEP0OutNext^(0+128)
  5578  0C10  39FF               	andlw	255
  5579  0C11  1D03               	skipz
  5580  0C12  3000               	movlw	0
  5581  0C13  00C4               	movwf	(_pBDTEntryEP0OutNext+1)^(0+128)
  5582  0C14                     i1l4929:
  5583                           
  5584                           ;mcc_generated_files/usb/usb_device.c: 2400:         pBDTEntryEP0OutNext = (volatile BDT
      +                          _ENTRY*)(((uint16_t)pBDTEntryEP0OutNext) ^ 0x0004);
  5585  0C14  3004               	movlw	4
  5586  0C15  0643               	xorwf	_pBDTEntryEP0OutNext^(0+128),w
  5587  0C16  00C3               	movwf	_pBDTEntryEP0OutNext^(0+128)
  5588  0C17  3000               	movlw	0
  5589  0C18  0644               	xorwf	(_pBDTEntryEP0OutNext+1)^(0+128),w
  5590  0C19  00C4               	movwf	(_pBDTEntryEP0OutNext+1)^(0+128)
  5591  0C1A                     i1l4931:
  5592                           
  5593                           ;mcc_generated_files/usb/usb_device.c: 2403:         if(pBDTEntryEP0OutCurrent->STAT.PID
      +                           == 0xD)
  5594  0C1A  0846               	movf	_pBDTEntryEP0OutCurrent^(0+128),w
  5595  0C1B  0086               	movwf	6
  5596  0C1C  0187               	clrf	7
  5597  0C1D  0C01               	rrf	1,w
  5598  0C1E  0C89               	rrf	9,f
  5599  0C1F  390F               	andlw	15
  5600  0C20  3A0D               	xorlw	13
  5601  0C21  1D03               	skipz
  5602  0C22  2C24               	goto	u369_21
  5603  0C23  2C25               	goto	u369_20
  5604  0C24                     u369_21:
  5605  0C24  2C39               	goto	i1l4937
  5606  0C25                     u369_20:
  5607  0C25                     i1l4933:
  5608                           
  5609                           ;mcc_generated_files/usb/usb_device.c: 2404:         {;mcc_generated_files/usb/usb_devic
      +                          e.c: 2409:             memcpy((uint8_t*)&SetupPkt, (uint8_t*)((void *)(pBDTEntryEP0OutCu
      +                          rrent->ADR)), 8);
  5610  0C25  0846               	movf	_pBDTEntryEP0OutCurrent^(0+128),w
  5611  0C26  3E02               	addlw	2
  5612  0C27  0086               	movwf	6
  5613  0C28  0187               	clrf	7
  5614  0C29  3F40               	moviw [0]fsr1
  5615  0C2A  00F0               	movwf	memcpy@s1
  5616  0C2B  3F41               	moviw [1]fsr1
  5617  0C2C  00F1               	movwf	memcpy@s1+1
  5618  0C2D  3008               	movlw	8
  5619  0C2E  00F2               	movwf	memcpy@n
  5620  0C2F  3000               	movlw	0
  5621  0C30  00F3               	movwf	memcpy@n+1
  5622  0C31  3050               	movlw	80
  5623  0C32  318A  2217  318B   	fcall	_memcpy
  5624  0C35                     i1l4935:
  5625                           
  5626                           ;mcc_generated_files/usb/usb_device.c: 2412:             USBCtrlTrfSetupHandler();
  5627  0C35  318B  239F  318B   	fcall	_USBCtrlTrfSetupHandler
  5628                           
  5629                           ;mcc_generated_files/usb/usb_device.c: 2413:         }
  5630  0C38  2C49               	goto	i1l363
  5631  0C39                     i1l4937:
  5632                           
  5633                           ;mcc_generated_files/usb/usb_device.c: 2415:         {;mcc_generated_files/usb/usb_devic
      +                          e.c: 2417:             USBCtrlTrfOutHandler();
  5634  0C39  318A  22E0  318B   	fcall	_USBCtrlTrfOutHandler
  5635  0C3C  2C49               	goto	i1l363
  5636  0C3D                     i1l4939:
  5637  0C3D  30FD               	movlw	253
  5638  0C3E  0549               	andwf	_USTATcopy^(0+128),w	;volatile
  5639  0C3F  00A0               	movwf	??_USBCtrlEPService^(0+128)
  5640  0C40  3004               	movlw	4
  5641  0C41  0620               	xorwf	??_USBCtrlEPService^(0+128),w
  5642  0C42  1D03               	btfss	3,2
  5643  0C43  2C45               	goto	u370_21
  5644  0C44  2C46               	goto	u370_20
  5645  0C45                     u370_21:
  5646  0C45  2C49               	goto	i1l363
  5647  0C46                     u370_20:
  5648  0C46                     i1l4941:
  5649                           
  5650                           ;mcc_generated_files/usb/usb_device.c: 2421:     {;mcc_generated_files/usb/usb_device.c:
      +                           2424:         USBCtrlTrfInHandler();
  5651  0C46  318D  25FB  318B   	fcall	_USBCtrlTrfInHandler
  5652  0C49                     i1l363:
  5653  0C49  0008               	return
  5654  0C4A                     __end_of_USBCtrlEPService:
  5655                           
  5656                           	psect	text27
  5657  0A17                     __ptext27:	
  5658 ;; *************** function _memcpy *****************
  5659 ;; Defined at:
  5660 ;;		line 4 in file "C:\Program Files\Microchip\xc8\v2.32\pic\sources\c99\common\memcpy.c"
  5661 ;; Parameters:    Size  Location     Type
  5662 ;;  d1              1    wreg     PTR void 
  5663 ;;		 -> SetupPkt(8), 
  5664 ;;  s1              2    0[COMMON] PTR const void 
  5665 ;;		 -> CtrlTrfData(8), RAM(4096), SetupPkt(8), 
  5666 ;;  n               2    2[COMMON] unsigned int 
  5667 ;; Auto vars:     Size  Location     Type
  5668 ;;  d1              1    8[COMMON] PTR void 
  5669 ;;		 -> SetupPkt(8), 
  5670 ;;  s               2    5[COMMON] PTR const unsigned char 
  5671 ;;		 -> CtrlTrfData(8), RAM(4096), SetupPkt(8), 
  5672 ;;  d               1    9[COMMON] PTR unsigned char 
  5673 ;;		 -> SetupPkt(8), 
  5674 ;;  tmp             1    7[COMMON] unsigned char 
  5675 ;; Return value:  Size  Location     Type
  5676 ;;                  1    wreg      PTR void 
  5677 ;; Registers used:
  5678 ;;		wreg, fsr1l, fsr1h, status,2, status,0
  5679 ;; Tracked objects:
  5680 ;;		On entry : 0/0
  5681 ;;		On exit  : 0/0
  5682 ;;		Unchanged: 0/0
  5683 ;; Data sizes:     COMMON   BANK0   BANK1   BANK2   BANK3   BANK4   BANK5   BANK6   BANK7   BANK8   BANK9  BANK10  BANK1
      +1  BANK12
  5684 ;;      Params:         4       0       0       0       0       0       0       0       0       0       0       0       
      +0       0
  5685 ;;      Locals:         5       0       0       0       0       0       0       0       0       0       0       0       
      +0       0
  5686 ;;      Temps:          1       0       0       0       0       0       0       0       0       0       0       0       
      +0       0
  5687 ;;      Totals:        10       0       0       0       0       0       0       0       0       0       0       0       
      +0       0
  5688 ;;Total ram usage:       10 bytes
  5689 ;; Hardware stack levels used: 1
  5690 ;; This function calls:
  5691 ;;		Nothing
  5692 ;; This function is called by:
  5693 ;;		_USBCtrlEPService
  5694 ;; This function uses a non-reentrant model
  5695 ;;
  5696                           
  5697                           
  5698                           ;psect for function _memcpy
  5699  0A17                     _memcpy:
  5700                           
  5701                           ;incstack = 0
  5702                           ; Regs used in _memcpy: [wreg+fsr1l+fsr1h+status,2+status,0]
  5703                           ;memcpy@d1 stored from wreg
  5704  0A17  00F8               	movwf	memcpy@d1
  5705  0A18                     i1l3665:
  5706  0A18  0871               	movf	memcpy@s1+1,w
  5707  0A19  00F6               	movwf	memcpy@s+1
  5708  0A1A  0870               	movf	memcpy@s1,w
  5709  0A1B  00F5               	movwf	memcpy@s
  5710  0A1C  0878               	movf	memcpy@d1,w
  5711  0A1D  00F4               	movwf	??_memcpy
  5712  0A1E  0874               	movf	??_memcpy,w
  5713  0A1F  00F9               	movwf	memcpy@d
  5714  0A20  2A38               	goto	i1l3675
  5715  0A21                     i1l3667:
  5716  0A21  0875               	movf	memcpy@s,w
  5717  0A22  0086               	movwf	6
  5718  0A23  0876               	movf	memcpy@s+1,w
  5719  0A24  0087               	movwf	7
  5720  0A25  0801               	movf	1,w
  5721  0A26  00F4               	movwf	??_memcpy
  5722  0A27  0874               	movf	??_memcpy,w
  5723  0A28  00F7               	movwf	memcpy@tmp
  5724  0A29                     i1l3669:
  5725  0A29  3001               	movlw	1
  5726  0A2A  07F5               	addwf	memcpy@s,f
  5727  0A2B  3000               	movlw	0
  5728  0A2C  3DF6               	addwfc	memcpy@s+1,f
  5729  0A2D                     i1l3671:
  5730  0A2D  0877               	movf	memcpy@tmp,w
  5731  0A2E  00F4               	movwf	??_memcpy
  5732  0A2F  0879               	movf	memcpy@d,w
  5733  0A30  0086               	movwf	6
  5734  0A31  0187               	clrf	7
  5735  0A32  0874               	movf	??_memcpy,w
  5736  0A33  0081               	movwf	1
  5737  0A34                     i1l3673:
  5738  0A34  3001               	movlw	1
  5739  0A35  00F4               	movwf	??_memcpy
  5740  0A36  0874               	movf	??_memcpy,w
  5741  0A37  07F9               	addwf	memcpy@d,f
  5742  0A38                     i1l3675:
  5743  0A38  3001               	movlw	1
  5744  0A39  02F2               	subwf	memcpy@n,f
  5745  0A3A  3000               	movlw	0
  5746  0A3B  3BF3               	subwfb	memcpy@n+1,f
  5747  0A3C  0A72               	incf	memcpy@n,w
  5748  0A3D  1D03               	skipz
  5749  0A3E  2A43               	goto	u243_21
  5750  0A3F  0A73               	incf	memcpy@n+1,w
  5751  0A40  1D03               	btfss	3,2
  5752  0A41  2A43               	goto	u243_21
  5753  0A42  2A44               	goto	u243_20
  5754  0A43                     u243_21:
  5755  0A43  2A21               	goto	i1l3667
  5756  0A44                     u243_20:
  5757  0A44                     i1l1296:
  5758  0A44  0008               	return
  5759  0A45                     __end_of_memcpy:
  5760                           
  5761                           	psect	text28
  5762  0B9F                     __ptext28:	
  5763 ;; *************** function _USBCtrlTrfSetupHandler *****************
  5764 ;; Defined at:
  5765 ;;		line 2469 in file "mcc_generated_files/usb/usb_device.c"
  5766 ;; Parameters:    Size  Location     Type
  5767 ;;		None
  5768 ;; Auto vars:     Size  Location     Type
  5769 ;;		None
  5770 ;; Return value:  Size  Location     Type
  5771 ;;                  1    wreg      void 
  5772 ;; Registers used:
  5773 ;;		wreg, fsr0l, fsr0h, fsr1l, fsr1h, status,2, status,0, pclath, cstack
  5774 ;; Tracked objects:
  5775 ;;		On entry : 0/0
  5776 ;;		On exit  : 0/0
  5777 ;;		Unchanged: 0/0
  5778 ;; Data sizes:     COMMON   BANK0   BANK1   BANK2   BANK3   BANK4   BANK5   BANK6   BANK7   BANK8   BANK9  BANK10  BANK1
      +1  BANK12
  5779 ;;      Params:         0       0       0       0       0       0       0       0       0       0       0       0       
      +0       0
  5780 ;;      Locals:         0       0       0       0       0       0       0       0       0       0       0       0       
      +0       0
  5781 ;;      Temps:          0       1       0       0       0       0       0       0       0       0       0       0       
      +0       0
  5782 ;;      Totals:         0       1       0       0       0       0       0       0       0       0       0       0       
      +0       0
  5783 ;;Total ram usage:        1 bytes
  5784 ;; Hardware stack levels used: 1
  5785 ;; Hardware stack levels required when called: 6
  5786 ;; This function calls:
  5787 ;;		_USBCheckStdRequest
  5788 ;;		_USBCtrlEPServiceComplete
  5789 ;;		_USER_USB_CALLBACK_EVENT_HANDLER
  5790 ;; This function is called by:
  5791 ;;		_USBCtrlEPService
  5792 ;; This function uses a non-reentrant model
  5793 ;;
  5794                           
  5795                           
  5796                           ;psect for function _USBCtrlTrfSetupHandler
  5797  0B9F                     _USBCtrlTrfSetupHandler:
  5798  0B9F                     i1l4771:	
  5799                           ;incstack = 0
  5800                           ; Regs used in _USBCtrlTrfSetupHandler: [wreg-fsr1h+status,2+status,0+pclath+cstack]
  5801                           
  5802                           
  5803                           ;mcc_generated_files/usb/usb_device.c: 2474:     shortPacketStatus = 0;
  5804  0B9F  0023               	movlb	3	; select bank3
  5805  0BA0  01ED               	clrf	_shortPacketStatus^(0+384)	;volatile
  5806                           
  5807                           ;mcc_generated_files/usb/usb_device.c: 2475:     USBDeferStatusStagePacket = 0;
  5808  0BA1  01E6               	clrf	_USBDeferStatusStagePacket^(0+384)	;volatile
  5809                           
  5810                           ;mcc_generated_files/usb/usb_device.c: 2476:     USBDeferINDataStagePackets = 0;
  5811  0BA2  01E3               	clrf	_USBDeferINDataStagePackets^(0+384)	;volatile
  5812                           
  5813                           ;mcc_generated_files/usb/usb_device.c: 2477:     USBDeferOUTDataStagePackets = 0;
  5814  0BA3  01E2               	clrf	_USBDeferOUTDataStagePackets^(0+384)	;volatile
  5815                           
  5816                           ;mcc_generated_files/usb/usb_device.c: 2478:     BothEP0OutUOWNsSet = 0;
  5817  0BA4  01E8               	clrf	_BothEP0OutUOWNsSet^(0+384)	;volatile
  5818                           
  5819                           ;mcc_generated_files/usb/usb_device.c: 2479:     controlTransferState = 0;
  5820  0BA5  0021               	movlb	1	; select bank1
  5821  0BA6  01C5               	clrf	_controlTransferState^(0+128)	;volatile
  5822  0BA7                     i1l4773:
  5823                           
  5824                           ;mcc_generated_files/usb/usb_device.c: 2488:     pBDTEntryIn[0]->STAT.Val &= ~(0x80);
  5825  0BA7  307F               	movlw	127
  5826  0BA8  0020               	movlb	0	; select bank0
  5827  0BA9  00EF               	movwf	??_USBCtrlTrfSetupHandler
  5828  0BAA  0023               	movlb	3	; select bank3
  5829  0BAB  0837               	movf	_pBDTEntryIn^(0+384),w
  5830  0BAC  0086               	movwf	6
  5831  0BAD  0838               	movf	(_pBDTEntryIn+1)^(0+384),w
  5832  0BAE  0087               	movwf	7
  5833  0BAF  0020               	movlb	0	; select bank0
  5834  0BB0  086F               	movf	??_USBCtrlTrfSetupHandler,w
  5835  0BB1  0581               	andwf	1,f
  5836  0BB2                     i1l4775:
  5837                           
  5838                           ;mcc_generated_files/usb/usb_device.c: 2490:     pBDTEntryIn[0] = (volatile BDT_ENTRY*)(
      +                          ((uint16_t)pBDTEntryIn[0]) ^ 0x0004);
  5839  0BB2  3004               	movlw	4
  5840  0BB3  0023               	movlb	3	; select bank3
  5841  0BB4  0637               	xorwf	_pBDTEntryIn^(0+384),w
  5842  0BB5  00B7               	movwf	_pBDTEntryIn^(0+384)
  5843  0BB6  3000               	movlw	0
  5844  0BB7  0638               	xorwf	(_pBDTEntryIn+1)^(0+384),w
  5845  0BB8  00B8               	movwf	(_pBDTEntryIn+1)^(0+384)
  5846  0BB9                     i1l4777:
  5847                           
  5848                           ;mcc_generated_files/usb/usb_device.c: 2491:     pBDTEntryIn[0]->STAT.Val &= ~(0x80);
  5849  0BB9  307F               	movlw	127
  5850  0BBA  0020               	movlb	0	; select bank0
  5851  0BBB  00EF               	movwf	??_USBCtrlTrfSetupHandler
  5852  0BBC  0023               	movlb	3	; select bank3
  5853  0BBD  0837               	movf	_pBDTEntryIn^(0+384),w
  5854  0BBE  0086               	movwf	6
  5855  0BBF  0838               	movf	(_pBDTEntryIn+1)^(0+384),w
  5856  0BC0  0087               	movwf	7
  5857  0BC1  0020               	movlb	0	; select bank0
  5858  0BC2  086F               	movf	??_USBCtrlTrfSetupHandler,w
  5859  0BC3  0581               	andwf	1,f
  5860  0BC4                     i1l4779:
  5861                           
  5862                           ;mcc_generated_files/usb/usb_device.c: 2492:     pBDTEntryIn[0] = (volatile BDT_ENTRY*)(
      +                          ((uint16_t)pBDTEntryIn[0]) ^ 0x0004);
  5863  0BC4  3004               	movlw	4
  5864  0BC5  0023               	movlb	3	; select bank3
  5865  0BC6  0637               	xorwf	_pBDTEntryIn^(0+384),w
  5866  0BC7  00B7               	movwf	_pBDTEntryIn^(0+384)
  5867  0BC8  3000               	movlw	0
  5868  0BC9  0638               	xorwf	(_pBDTEntryIn+1)^(0+384),w
  5869  0BCA  00B8               	movwf	(_pBDTEntryIn+1)^(0+384)
  5870  0BCB                     i1l4781:
  5871                           
  5872                           ;mcc_generated_files/usb/usb_device.c: 2493:     pBDTEntryEP0OutNext->STAT.Val &= ~(0x80
      +                          );
  5873  0BCB  307F               	movlw	127
  5874  0BCC  0020               	movlb	0	; select bank0
  5875  0BCD  00EF               	movwf	??_USBCtrlTrfSetupHandler
  5876  0BCE  0021               	movlb	1	; select bank1
  5877  0BCF  0843               	movf	_pBDTEntryEP0OutNext^(0+128),w
  5878  0BD0  0086               	movwf	6
  5879  0BD1  0844               	movf	(_pBDTEntryEP0OutNext+1)^(0+128),w
  5880  0BD2  0087               	movwf	7
  5881  0BD3  0020               	movlb	0	; select bank0
  5882  0BD4  086F               	movf	??_USBCtrlTrfSetupHandler,w
  5883  0BD5  0581               	andwf	1,f
  5884  0BD6                     i1l4783:
  5885                           
  5886                           ;mcc_generated_files/usb/usb_device.c: 2495:     inPipes[0].info.Val = 0;
  5887  0BD6  0021               	movlb	1	; select bank1
  5888  0BD7  01C0               	clrf	(_inPipes^(0+128)+2)	;volatile
  5889  0BD8                     i1l4785:
  5890                           
  5891                           ;mcc_generated_files/usb/usb_device.c: 2496:     inPipes[0].wCount.Val = 0;
  5892  0BD8  01C1               	clrf	(_inPipes^(0+128)+3)	;volatile
  5893  0BD9  01C2               	clrf	((_inPipes+1)^(0+128)+3)	;volatile
  5894  0BDA                     i1l4787:
  5895                           
  5896                           ;mcc_generated_files/usb/usb_device.c: 2497:     outPipes[0].info.Val = 0;
  5897  0BDA  0023               	movlb	3	; select bank3
  5898  0BDB  01B2               	clrf	(_outPipes^(0+384)+2)	;volatile
  5899  0BDC                     i1l4789:
  5900                           
  5901                           ;mcc_generated_files/usb/usb_device.c: 2498:     outPipes[0].wCount.Val = 0;
  5902  0BDC  01B3               	clrf	(_outPipes^(0+384)+3)	;volatile
  5903  0BDD  01B4               	clrf	((_outPipes+1)^(0+384)+3)	;volatile
  5904  0BDE                     i1l4791:
  5905                           
  5906                           ;mcc_generated_files/usb/usb_device.c: 2504:     USBCheckStdRequest();
  5907  0BDE  318F  2778  318B   	fcall	_USBCheckStdRequest
  5908  0BE1                     i1l4793:
  5909                           
  5910                           ;mcc_generated_files/usb/usb_device.c: 2505:     USER_USB_CALLBACK_EVENT_HANDLER((USB_EV
      +                          ENT)EVENT_EP0_REQUEST,0,0);
  5911  0BE1  3003               	movlw	3
  5912  0BE2  0020               	movlb	0	; select bank0
  5913  0BE3  00E0               	movwf	USER_USB_CALLBACK_EVENT_HANDLER@event
  5914  0BE4  3000               	movlw	0
  5915  0BE5  00E1               	movwf	USER_USB_CALLBACK_EVENT_HANDLER@event+1
  5916  0BE6  3000               	movlw	0
  5917  0BE7  00E2               	movwf	USER_USB_CALLBACK_EVENT_HANDLER@pdata
  5918  0BE8  3000               	movlw	0
  5919  0BE9  00E3               	movwf	USER_USB_CALLBACK_EVENT_HANDLER@pdata+1
  5920  0BEA  3000               	movlw	0
  5921  0BEB  00E4               	movwf	USER_USB_CALLBACK_EVENT_HANDLER@size
  5922  0BEC  00E5               	movwf	USER_USB_CALLBACK_EVENT_HANDLER@size+1
  5923  0BED  318A  2276  318B   	fcall	_USER_USB_CALLBACK_EVENT_HANDLER
  5924  0BF0                     i1l4795:
  5925                           
  5926                           ;mcc_generated_files/usb/usb_device.c: 2518:     USBCtrlEPServiceComplete();
  5927  0BF0  3185  25B1  318B   	fcall	_USBCtrlEPServiceComplete
  5928  0BF3                     i1l366:
  5929  0BF3  0008               	return
  5930  0BF4                     __end_of_USBCtrlTrfSetupHandler:
  5931                           
  5932                           	psect	text29
  5933  05B1                     __ptext29:	
  5934 ;; *************** function _USBCtrlEPServiceComplete *****************
  5935 ;; Defined at:
  5936 ;;		line 1620 in file "mcc_generated_files/usb/usb_device.c"
  5937 ;; Parameters:    Size  Location     Type
  5938 ;;		None
  5939 ;; Auto vars:     Size  Location     Type
  5940 ;;		None
  5941 ;; Return value:  Size  Location     Type
  5942 ;;                  1    wreg      void 
  5943 ;; Registers used:
  5944 ;;		wreg, fsr0l, fsr0h, fsr1l, fsr1h, status,2, status,0, pclath, cstack
  5945 ;; Tracked objects:
  5946 ;;		On entry : 0/0
  5947 ;;		On exit  : 0/0
  5948 ;;		Unchanged: 0/0
  5949 ;; Data sizes:     COMMON   BANK0   BANK1   BANK2   BANK3   BANK4   BANK5   BANK6   BANK7   BANK8   BANK9  BANK10  BANK1
      +1  BANK12
  5950 ;;      Params:         0       0       0       0       0       0       0       0       0       0       0       0       
      +0       0
  5951 ;;      Locals:         0       0       0       0       0       0       0       0       0       0       0       0       
      +0       0
  5952 ;;      Temps:          2       0       0       0       0       0       0       0       0       0       0       0       
      +0       0
  5953 ;;      Totals:         2       0       0       0       0       0       0       0       0       0       0       0       
      +0       0
  5954 ;;Total ram usage:        2 bytes
  5955 ;; Hardware stack levels used: 1
  5956 ;; Hardware stack levels required when called: 2
  5957 ;; This function calls:
  5958 ;;		_USBCtrlEPAllowDataStage
  5959 ;;		_USBCtrlEPAllowStatusStage
  5960 ;; This function is called by:
  5961 ;;		_USBCtrlTrfSetupHandler
  5962 ;; This function uses a non-reentrant model
  5963 ;;
  5964                           
  5965                           
  5966                           ;psect for function _USBCtrlEPServiceComplete
  5967  05B1                     _USBCtrlEPServiceComplete:
  5968  05B1                     i1l3511:	
  5969                           ;incstack = 0
  5970                           ; Regs used in _USBCtrlEPServiceComplete: [wreg-fsr1h+status,2+status,0+pclath+cstack]
  5971                           
  5972                           
  5973                           ;mcc_generated_files/usb/usb_device.c: 1626:     UCONbits.PKTDIS = 0;
  5974  05B1  003D               	movlb	29	; select bank29
  5975  05B2  120E               	bcf	14,4	;volatile
  5976                           
  5977                           ;mcc_generated_files/usb/usb_device.c: 1632:     if(inPipes[0].info.bits.busy == 0)
  5978  05B3  0021               	movlb	1	; select bank1
  5979  05B4  1BC0               	btfsc	(_inPipes^(0+128)+2),7	;volatile
  5980  05B5  2DB7               	goto	u226_21
  5981  05B6  2DB8               	goto	u226_20
  5982  05B7                     u226_21:
  5983  05B7  2E01               	goto	i1l266
  5984  05B8                     u226_20:
  5985  05B8                     i1l3513:
  5986                           
  5987                           ;mcc_generated_files/usb/usb_device.c: 1633:     {;mcc_generated_files/usb/usb_device.c:
      +                           1634:         if(outPipes[0].info.bits.busy == 1)
  5988  05B8  0023               	movlb	3	; select bank3
  5989  05B9  1FB2               	btfss	(_outPipes^(0+384)+2),7	;volatile
  5990  05BA  2DBC               	goto	u227_21
  5991  05BB  2DBD               	goto	u227_20
  5992  05BC                     u227_21:
  5993  05BC  2DCF               	goto	i1l3525
  5994  05BD                     u227_20:
  5995  05BD                     i1l3515:
  5996                           
  5997                           ;mcc_generated_files/usb/usb_device.c: 1635:         {;mcc_generated_files/usb/usb_devic
      +                          e.c: 1636:             controlTransferState = 2;
  5998  05BD  3002               	movlw	2
  5999  05BE  00F5               	movwf	??_USBCtrlEPServiceComplete
  6000  05BF  0875               	movf	??_USBCtrlEPServiceComplete,w
  6001  05C0  0021               	movlb	1	; select bank1
  6002  05C1  00C5               	movwf	_controlTransferState^(0+128)	;volatile
  6003  05C2                     i1l3517:
  6004                           
  6005                           ;mcc_generated_files/usb/usb_device.c: 1647:             if(USBDeferOUTDataStagePackets 
      +                          == 0)
  6006  05C2  0023               	movlb	3	; select bank3
  6007  05C3  0862               	movf	_USBDeferOUTDataStagePackets^(0+384),w	;volatile
  6008  05C4  1D03               	btfss	3,2
  6009  05C5  2DC7               	goto	u228_21
  6010  05C6  2DC8               	goto	u228_20
  6011  05C7                     u228_21:
  6012  05C7  2DCB               	goto	i1l3521
  6013  05C8                     u228_20:
  6014  05C8                     i1l3519:
  6015                           
  6016                           ;mcc_generated_files/usb/usb_device.c: 1648:             {;mcc_generated_files/usb/usb_d
      +                          evice.c: 1649:                 USBCtrlEPAllowDataStage();
  6017  05C8  318C  244A  3185   	fcall	_USBCtrlEPAllowDataStage
  6018  05CB                     i1l3521:
  6019                           
  6020                           ;mcc_generated_files/usb/usb_device.c: 1654:             USBStatusStageEnabledFlag2 = 0;
  6021  05CB  0023               	movlb	3	; select bank3
  6022  05CC  01E4               	clrf	_USBStatusStageEnabledFlag2^(0+384)	;volatile
  6023  05CD                     i1l3523:
  6024                           
  6025                           ;mcc_generated_files/usb/usb_device.c: 1655:             USBStatusStageEnabledFlag1 = 0;
  6026  05CD  01E5               	clrf	_USBStatusStageEnabledFlag1^(0+384)	;volatile
  6027                           
  6028                           ;mcc_generated_files/usb/usb_device.c: 1656:         }
  6029  05CE  2E52               	goto	i1l276
  6030  05CF                     i1l3525:
  6031                           
  6032                           ;mcc_generated_files/usb/usb_device.c: 1658:         {;mcc_generated_files/usb/usb_devic
      +                          e.c: 1663:             pBDTEntryEP0OutNext->CNT = 8;
  6033  05CF  0021               	movlb	1	; select bank1
  6034  05D0  0843               	movf	_pBDTEntryEP0OutNext^(0+128),w
  6035  05D1  3E01               	addlw	1
  6036  05D2  00F5               	movwf	??_USBCtrlEPServiceComplete
  6037  05D3  3000               	movlw	0
  6038  05D4  3D44               	addwfc	(_pBDTEntryEP0OutNext+1)^(0+128),w
  6039  05D5  00F6               	movwf	??_USBCtrlEPServiceComplete+1
  6040  05D6  0875               	movf	??_USBCtrlEPServiceComplete,w
  6041  05D7  0086               	movwf	6
  6042  05D8  0876               	movf	??_USBCtrlEPServiceComplete+1,w
  6043  05D9  0087               	movwf	7
  6044  05DA  3008               	movlw	8
  6045  05DB  0081               	movwf	1
  6046  05DC                     i1l3527:
  6047                           
  6048                           ;mcc_generated_files/usb/usb_device.c: 1664:             pBDTEntryEP0OutNext->ADR = (((u
      +                          int16_t)(&SetupPkt)) & 0x7FFF);
  6049  05DC  3050               	movlw	80
  6050  05DD  00F5               	movwf	??_USBCtrlEPServiceComplete
  6051  05DE  3000               	movlw	0
  6052  05DF  00F6               	movwf	??_USBCtrlEPServiceComplete+1
  6053  05E0  0843               	movf	_pBDTEntryEP0OutNext^(0+128),w
  6054  05E1  0086               	movwf	6
  6055  05E2  0844               	movf	(_pBDTEntryEP0OutNext+1)^(0+128),w
  6056  05E3  0087               	movwf	7
  6057  05E4  3142               	addfsr 1,2
  6058  05E5  0875               	movf	??_USBCtrlEPServiceComplete,w
  6059  05E6  3FC0               	movwi [0]fsr1
  6060  05E7  0876               	movf	??_USBCtrlEPServiceComplete+1,w
  6061  05E8  3FC1               	movwi [1]fsr1
  6062  05E9                     i1l3529:
  6063                           
  6064                           ;mcc_generated_files/usb/usb_device.c: 1665:             pBDTEntryEP0OutNext->STAT.Val =
      +                           0x00|(0x08 & 0x08)|0x04;
  6065  05E9  0843               	movf	_pBDTEntryEP0OutNext^(0+128),w
  6066  05EA  0086               	movwf	6
  6067  05EB  0844               	movf	(_pBDTEntryEP0OutNext+1)^(0+128),w
  6068  05EC  0087               	movwf	7
  6069  05ED  300C               	movlw	12
  6070  05EE  0081               	movwf	1
  6071  05EF                     i1l3531:
  6072                           
  6073                           ;mcc_generated_files/usb/usb_device.c: 1666:             pBDTEntryEP0OutNext->STAT.Val |
      +                          = 0x80;
  6074  05EF  0843               	movf	_pBDTEntryEP0OutNext^(0+128),w
  6075  05F0  0086               	movwf	6
  6076  05F1  0844               	movf	(_pBDTEntryEP0OutNext+1)^(0+128),w
  6077  05F2  0087               	movwf	7
  6078  05F3  1781               	bsf	1,7
  6079  05F4                     i1l3533:
  6080                           
  6081                           ;mcc_generated_files/usb/usb_device.c: 1667:             pBDTEntryIn[0]->STAT.Val = 0x04
      +                          ;
  6082  05F4  0023               	movlb	3	; select bank3
  6083  05F5  0837               	movf	_pBDTEntryIn^(0+384),w
  6084  05F6  0086               	movwf	6
  6085  05F7  0838               	movf	(_pBDTEntryIn+1)^(0+384),w
  6086  05F8  0087               	movwf	7
  6087  05F9  3004               	movlw	4
  6088  05FA  0081               	movwf	1
  6089  05FB                     i1l3535:
  6090                           
  6091                           ;mcc_generated_files/usb/usb_device.c: 1668:             pBDTEntryIn[0]->STAT.Val |= 0x8
      +                          0;
  6092  05FB  0837               	movf	_pBDTEntryIn^(0+384),w
  6093  05FC  0086               	movwf	6
  6094  05FD  0838               	movf	(_pBDTEntryIn+1)^(0+384),w
  6095  05FE  0087               	movwf	7
  6096  05FF  1781               	bsf	1,7
  6097  0600  2E52               	goto	i1l276
  6098  0601                     i1l266:	
  6099                           ;mcc_generated_files/usb/usb_device.c: 1671:     else
  6100                           
  6101                           
  6102                           ;mcc_generated_files/usb/usb_device.c: 1672:     {;mcc_generated_files/usb/usb_device.c:
      +                           1673:   if(SetupPkt.DataDir == (0x80>>7))
  6103  0601  0020               	movlb	0	; select bank0
  6104  0602  1FD0               	btfss	80,7	;volatile
  6105  0603  2E05               	goto	u229_21
  6106  0604  2E06               	goto	u229_20
  6107  0605                     u229_21:
  6108  0605  2E20               	goto	i1l3551
  6109  0606                     u229_20:
  6110  0606                     i1l3537:
  6111                           
  6112                           ;mcc_generated_files/usb/usb_device.c: 1674:   {;mcc_generated_files/usb/usb_device.c: 1
      +                          675:    controlTransferState = 1;
  6113  0606  3001               	movlw	1
  6114  0607  00F5               	movwf	??_USBCtrlEPServiceComplete
  6115  0608  0875               	movf	??_USBCtrlEPServiceComplete,w
  6116  0609  0021               	movlb	1	; select bank1
  6117  060A  00C5               	movwf	_controlTransferState^(0+128)	;volatile
  6118  060B                     i1l3539:
  6119                           
  6120                           ;mcc_generated_files/usb/usb_device.c: 1689:    if(USBDeferINDataStagePackets == 0)
  6121  060B  0023               	movlb	3	; select bank3
  6122  060C  0863               	movf	_USBDeferINDataStagePackets^(0+384),w	;volatile
  6123  060D  1D03               	btfss	3,2
  6124  060E  2E10               	goto	u230_21
  6125  060F  2E11               	goto	u230_20
  6126  0610                     u230_21:
  6127  0610  2E14               	goto	i1l3543
  6128  0611                     u230_20:
  6129  0611                     i1l3541:
  6130                           
  6131                           ;mcc_generated_files/usb/usb_device.c: 1690:             {;mcc_generated_files/usb/usb_d
      +                          evice.c: 1691:                 USBCtrlEPAllowDataStage();
  6132  0611  318C  244A  3185   	fcall	_USBCtrlEPAllowDataStage
  6133  0614                     i1l3543:
  6134                           
  6135                           ;mcc_generated_files/usb/usb_device.c: 1714:             USBStatusStageEnabledFlag2 = 0;
  6136  0614  0023               	movlb	3	; select bank3
  6137  0615  01E4               	clrf	_USBStatusStageEnabledFlag2^(0+384)	;volatile
  6138  0616                     i1l3545:
  6139                           
  6140                           ;mcc_generated_files/usb/usb_device.c: 1715:             USBStatusStageEnabledFlag1 = 0;
  6141  0616  01E5               	clrf	_USBStatusStageEnabledFlag1^(0+384)	;volatile
  6142  0617                     i1l3547:
  6143                           
  6144                           ;mcc_generated_files/usb/usb_device.c: 1716:             if(USBDeferStatusStagePacket ==
      +                           0)
  6145  0617  0866               	movf	_USBDeferStatusStagePacket^(0+384),w	;volatile
  6146  0618  1D03               	btfss	3,2
  6147  0619  2E1B               	goto	u231_21
  6148  061A  2E1C               	goto	u231_20
  6149  061B                     u231_21:
  6150  061B  2E52               	goto	i1l276
  6151  061C                     u231_20:
  6152  061C                     i1l3549:
  6153                           
  6154                           ;mcc_generated_files/usb/usb_device.c: 1717:             {;mcc_generated_files/usb/usb_d
      +                          evice.c: 1718:                 USBCtrlEPAllowStatusStage();
  6155  061C  318D  2581  3185   	fcall	_USBCtrlEPAllowStatusStage
  6156  061F  2E52               	goto	i1l276
  6157  0620                     i1l3551:
  6158                           
  6159                           ;mcc_generated_files/usb/usb_device.c: 1722:   {;mcc_generated_files/usb/usb_device.c: 1
      +                          733:    controlTransferState = 2;
  6160  0620  3002               	movlw	2
  6161  0621  00F5               	movwf	??_USBCtrlEPServiceComplete
  6162  0622  0875               	movf	??_USBCtrlEPServiceComplete,w
  6163  0623  0021               	movlb	1	; select bank1
  6164  0624  00C5               	movwf	_controlTransferState^(0+128)	;volatile
  6165  0625                     i1l3553:
  6166                           
  6167                           ;mcc_generated_files/usb/usb_device.c: 1736:    pBDTEntryEP0OutNext->CNT = 8;
  6168  0625  0843               	movf	_pBDTEntryEP0OutNext^(0+128),w
  6169  0626  3E01               	addlw	1
  6170  0627  00F5               	movwf	??_USBCtrlEPServiceComplete
  6171  0628  3000               	movlw	0
  6172  0629  3D44               	addwfc	(_pBDTEntryEP0OutNext+1)^(0+128),w
  6173  062A  00F6               	movwf	??_USBCtrlEPServiceComplete+1
  6174  062B  0875               	movf	??_USBCtrlEPServiceComplete,w
  6175  062C  0086               	movwf	6
  6176  062D  0876               	movf	??_USBCtrlEPServiceComplete+1,w
  6177  062E  0087               	movwf	7
  6178  062F  3008               	movlw	8
  6179  0630  0081               	movwf	1
  6180  0631                     i1l3555:
  6181                           
  6182                           ;mcc_generated_files/usb/usb_device.c: 1737:    pBDTEntryEP0OutNext->ADR = (((uint16_t)(
      +                          &SetupPkt)) & 0x7FFF);
  6183  0631  3050               	movlw	80
  6184  0632  00F5               	movwf	??_USBCtrlEPServiceComplete
  6185  0633  3000               	movlw	0
  6186  0634  00F6               	movwf	??_USBCtrlEPServiceComplete+1
  6187  0635  0843               	movf	_pBDTEntryEP0OutNext^(0+128),w
  6188  0636  0086               	movwf	6
  6189  0637  0844               	movf	(_pBDTEntryEP0OutNext+1)^(0+128),w
  6190  0638  0087               	movwf	7
  6191  0639  3142               	addfsr 1,2
  6192  063A  0875               	movf	??_USBCtrlEPServiceComplete,w
  6193  063B  3FC0               	movwi [0]fsr1
  6194  063C  0876               	movf	??_USBCtrlEPServiceComplete+1,w
  6195  063D  3FC1               	movwi [1]fsr1
  6196  063E                     i1l3557:
  6197                           
  6198                           ;mcc_generated_files/usb/usb_device.c: 1738:    pBDTEntryEP0OutNext->STAT.Val = 0x04;
  6199  063E  0843               	movf	_pBDTEntryEP0OutNext^(0+128),w
  6200  063F  0086               	movwf	6
  6201  0640  0844               	movf	(_pBDTEntryEP0OutNext+1)^(0+128),w
  6202  0641  0087               	movwf	7
  6203  0642  3004               	movlw	4
  6204  0643  0081               	movwf	1
  6205  0644                     i1l3559:
  6206                           
  6207                           ;mcc_generated_files/usb/usb_device.c: 1739:             pBDTEntryEP0OutNext->STAT.Val |
      +                          = 0x80;
  6208  0644  0843               	movf	_pBDTEntryEP0OutNext^(0+128),w
  6209  0645  0086               	movwf	6
  6210  0646  0844               	movf	(_pBDTEntryEP0OutNext+1)^(0+128),w
  6211  0647  0087               	movwf	7
  6212  0648  1781               	bsf	1,7
  6213  0649                     i1l3561:
  6214                           
  6215                           ;mcc_generated_files/usb/usb_device.c: 1742:             USBStatusStageEnabledFlag2 = 0;
  6216  0649  0023               	movlb	3	; select bank3
  6217  064A  01E4               	clrf	_USBStatusStageEnabledFlag2^(0+384)	;volatile
  6218  064B                     i1l3563:
  6219                           
  6220                           ;mcc_generated_files/usb/usb_device.c: 1743:             USBStatusStageEnabledFlag1 = 0;
  6221  064B  01E5               	clrf	_USBStatusStageEnabledFlag1^(0+384)	;volatile
  6222                           
  6223                           ;mcc_generated_files/usb/usb_device.c: 1744:    if(USBDeferStatusStagePacket == 0)
  6224  064C  0866               	movf	_USBDeferStatusStagePacket^(0+384),w	;volatile
  6225  064D  1D03               	btfss	3,2
  6226  064E  2E50               	goto	u232_21
  6227  064F  2E51               	goto	u232_20
  6228  0650                     u232_21:
  6229  0650  2E52               	goto	i1l276
  6230  0651                     u232_20:
  6231  0651  2E1C               	goto	i1l3549
  6232  0652                     i1l276:
  6233  0652  0008               	return
  6234  0653                     __end_of_USBCtrlEPServiceComplete:
  6235                           
  6236                           	psect	text30
  6237  0C4A                     __ptext30:	
  6238 ;; *************** function _USBCtrlEPAllowDataStage *****************
  6239 ;; Defined at:
  6240 ;;		line 1492 in file "mcc_generated_files/usb/usb_device.c"
  6241 ;; Parameters:    Size  Location     Type
  6242 ;;		None
  6243 ;; Auto vars:     Size  Location     Type
  6244 ;;		None
  6245 ;; Return value:  Size  Location     Type
  6246 ;;                  1    wreg      void 
  6247 ;; Registers used:
  6248 ;;		wreg, fsr0l, fsr0h, fsr1l, fsr1h, status,2, status,0, pclath, cstack
  6249 ;; Tracked objects:
  6250 ;;		On entry : 0/0
  6251 ;;		On exit  : 0/0
  6252 ;;		Unchanged: 0/0
  6253 ;; Data sizes:     COMMON   BANK0   BANK1   BANK2   BANK3   BANK4   BANK5   BANK6   BANK7   BANK8   BANK9  BANK10  BANK1
      +1  BANK12
  6254 ;;      Params:         0       0       0       0       0       0       0       0       0       0       0       0       
      +0       0
  6255 ;;      Locals:         0       0       0       0       0       0       0       0       0       0       0       0       
      +0       0
  6256 ;;      Temps:          2       0       0       0       0       0       0       0       0       0       0       0       
      +0       0
  6257 ;;      Totals:         2       0       0       0       0       0       0       0       0       0       0       0       
      +0       0
  6258 ;;Total ram usage:        2 bytes
  6259 ;; Hardware stack levels used: 1
  6260 ;; Hardware stack levels required when called: 1
  6261 ;; This function calls:
  6262 ;;		_USBCtrlTrfTxService
  6263 ;; This function is called by:
  6264 ;;		_USBCtrlEPServiceComplete
  6265 ;; This function uses a non-reentrant model
  6266 ;;
  6267                           
  6268                           
  6269                           ;psect for function _USBCtrlEPAllowDataStage
  6270  0C4A                     _USBCtrlEPAllowDataStage:
  6271  0C4A                     i1l3283:	
  6272                           ;incstack = 0
  6273                           ; Regs used in _USBCtrlEPAllowDataStage: [wreg-fsr1h+status,2+status,0+pclath+cstack]
  6274                           
  6275                           
  6276                           ;mcc_generated_files/usb/usb_device.c: 1494:     USBDeferINDataStagePackets = 0;
  6277  0C4A  0023               	movlb	3	; select bank3
  6278  0C4B  01E3               	clrf	_USBDeferINDataStagePackets^(0+384)	;volatile
  6279                           
  6280                           ;mcc_generated_files/usb/usb_device.c: 1495:     USBDeferOUTDataStagePackets = 0;
  6281  0C4C  01E2               	clrf	_USBDeferOUTDataStagePackets^(0+384)	;volatile
  6282  0C4D                     i1l3285:
  6283                           
  6284                           ;mcc_generated_files/usb/usb_device.c: 1497:     if(controlTransferState == 2)
  6285  0C4D  3002               	movlw	2
  6286  0C4E  0021               	movlb	1	; select bank1
  6287  0C4F  0645               	xorwf	_controlTransferState^(0+128),w	;volatile
  6288  0C50  1D03               	btfss	3,2
  6289  0C51  2C53               	goto	u195_21
  6290  0C52  2C54               	goto	u195_20
  6291  0C53                     u195_21:
  6292  0C53  2C79               	goto	i1l3295
  6293  0C54                     u195_20:
  6294  0C54                     i1l3287:
  6295                           
  6296                           ;mcc_generated_files/usb/usb_device.c: 1498:     {;mcc_generated_files/usb/usb_device.c:
      +                           1500:         pBDTEntryEP0OutNext->CNT = 8;
  6297  0C54  0843               	movf	_pBDTEntryEP0OutNext^(0+128),w
  6298  0C55  3E01               	addlw	1
  6299  0C56  00F3               	movwf	??_USBCtrlEPAllowDataStage
  6300  0C57  3000               	movlw	0
  6301  0C58  3D44               	addwfc	(_pBDTEntryEP0OutNext+1)^(0+128),w
  6302  0C59  00F4               	movwf	??_USBCtrlEPAllowDataStage+1
  6303  0C5A  0873               	movf	??_USBCtrlEPAllowDataStage,w
  6304  0C5B  0086               	movwf	6
  6305  0C5C  0874               	movf	??_USBCtrlEPAllowDataStage+1,w
  6306  0C5D  0087               	movwf	7
  6307  0C5E  3008               	movlw	8
  6308  0C5F  0081               	movwf	1
  6309  0C60                     i1l3289:
  6310                           
  6311                           ;mcc_generated_files/usb/usb_device.c: 1501:         pBDTEntryEP0OutNext->ADR = (((uint1
      +                          6_t)(&CtrlTrfData)) & 0x7FFF);
  6312  0C60  3058               	movlw	88
  6313  0C61  00F3               	movwf	??_USBCtrlEPAllowDataStage
  6314  0C62  3000               	movlw	0
  6315  0C63  00F4               	movwf	??_USBCtrlEPAllowDataStage+1
  6316  0C64  0843               	movf	_pBDTEntryEP0OutNext^(0+128),w
  6317  0C65  0086               	movwf	6
  6318  0C66  0844               	movf	(_pBDTEntryEP0OutNext+1)^(0+128),w
  6319  0C67  0087               	movwf	7
  6320  0C68  3142               	addfsr 1,2
  6321  0C69  0873               	movf	??_USBCtrlEPAllowDataStage,w
  6322  0C6A  3FC0               	movwi [0]fsr1
  6323  0C6B  0874               	movf	??_USBCtrlEPAllowDataStage+1,w
  6324  0C6C  3FC1               	movwi [1]fsr1
  6325  0C6D                     i1l3291:
  6326                           
  6327                           ;mcc_generated_files/usb/usb_device.c: 1502:         pBDTEntryEP0OutNext->STAT.Val = 0x4
      +                          0|(0x08 & 0x08);
  6328  0C6D  0843               	movf	_pBDTEntryEP0OutNext^(0+128),w
  6329  0C6E  0086               	movwf	6
  6330  0C6F  0844               	movf	(_pBDTEntryEP0OutNext+1)^(0+128),w
  6331  0C70  0087               	movwf	7
  6332  0C71  3048               	movlw	72
  6333  0C72  0081               	movwf	1
  6334  0C73                     i1l3293:
  6335                           
  6336                           ;mcc_generated_files/usb/usb_device.c: 1503:         pBDTEntryEP0OutNext->STAT.Val |= 0x
      +                          80;
  6337  0C73  0843               	movf	_pBDTEntryEP0OutNext^(0+128),w
  6338  0C74  0086               	movwf	6
  6339  0C75  0844               	movf	(_pBDTEntryEP0OutNext+1)^(0+128),w
  6340  0C76  0087               	movwf	7
  6341  0C77  1781               	bsf	1,7
  6342                           
  6343                           ;mcc_generated_files/usb/usb_device.c: 1504:     }
  6344  0C78  2CA9               	goto	i1l258
  6345  0C79                     i1l3295:
  6346                           
  6347                           ;mcc_generated_files/usb/usb_device.c: 1506:     {;mcc_generated_files/usb/usb_device.c:
      +                           1509:   if(SetupPkt.wLength < inPipes[0].wCount.Val)
  6348  0C79  0842               	movf	((_inPipes+1)^(0+128)+3),w	;volatile
  6349  0C7A  0020               	movlb	0	; select bank0
  6350  0C7B  0257               	subwf	87,w	;volatile
  6351  0C7C  1D03               	skipz
  6352  0C7D  2C82               	goto	u196_25
  6353  0C7E  0021               	movlb	1	; select bank1
  6354  0C7F  0841               	movf	(_inPipes^(0+128)+3),w	;volatile
  6355  0C80  0020               	movlb	0	; select bank0
  6356  0C81  0256               	subwf	86,w	;volatile
  6357  0C82                     u196_25:
  6358  0C82  1803               	skipnc
  6359  0C83  2C85               	goto	u196_21
  6360  0C84  2C86               	goto	u196_20
  6361  0C85                     u196_21:
  6362  0C85  2C8D               	goto	i1l3299
  6363  0C86                     u196_20:
  6364  0C86                     i1l3297:
  6365                           
  6366                           ;mcc_generated_files/usb/usb_device.c: 1510:   {;mcc_generated_files/usb/usb_device.c: 1
      +                          511:    inPipes[0].wCount.Val = SetupPkt.wLength;
  6367  0C86  0857               	movf	87,w	;volatile
  6368  0C87  0021               	movlb	1	; select bank1
  6369  0C88  00C2               	movwf	((_inPipes+1)^(0+128)+3)	;volatile
  6370  0C89  0020               	movlb	0	; select bank0
  6371  0C8A  0856               	movf	86,w	;volatile
  6372  0C8B  0021               	movlb	1	; select bank1
  6373  0C8C  00C1               	movwf	(_inPipes^(0+128)+3)	;volatile
  6374  0C8D                     i1l3299:
  6375                           
  6376                           ;mcc_generated_files/usb/usb_device.c: 1513:   USBCtrlTrfTxService();
  6377  0C8D  318E  26F5  318C   	fcall	_USBCtrlTrfTxService
  6378  0C90                     i1l3301:
  6379                           
  6380                           ;mcc_generated_files/usb/usb_device.c: 1518:   pBDTEntryIn[0]->ADR = (((uint16_t)(&CtrlT
      +                          rfData)) & 0x7FFF);
  6381  0C90  3058               	movlw	88
  6382  0C91  00F3               	movwf	??_USBCtrlEPAllowDataStage
  6383  0C92  3000               	movlw	0
  6384  0C93  00F4               	movwf	??_USBCtrlEPAllowDataStage+1
  6385  0C94  0023               	movlb	3	; select bank3
  6386  0C95  0837               	movf	_pBDTEntryIn^(0+384),w
  6387  0C96  0086               	movwf	6
  6388  0C97  0838               	movf	(_pBDTEntryIn+1)^(0+384),w
  6389  0C98  0087               	movwf	7
  6390  0C99  3142               	addfsr 1,2
  6391  0C9A  0873               	movf	??_USBCtrlEPAllowDataStage,w
  6392  0C9B  3FC0               	movwi [0]fsr1
  6393  0C9C  0874               	movf	??_USBCtrlEPAllowDataStage+1,w
  6394  0C9D  3FC1               	movwi [1]fsr1
  6395  0C9E                     i1l3303:
  6396                           
  6397                           ;mcc_generated_files/usb/usb_device.c: 1519:   pBDTEntryIn[0]->STAT.Val = 0x40|(0x08 & 0
      +                          x08);
  6398  0C9E  0837               	movf	_pBDTEntryIn^(0+384),w
  6399  0C9F  0086               	movwf	6
  6400  0CA0  0838               	movf	(_pBDTEntryIn+1)^(0+384),w
  6401  0CA1  0087               	movwf	7
  6402  0CA2  3048               	movlw	72
  6403  0CA3  0081               	movwf	1
  6404  0CA4                     i1l3305:
  6405                           
  6406                           ;mcc_generated_files/usb/usb_device.c: 1520:         pBDTEntryIn[0]->STAT.Val |= 0x80;
  6407  0CA4  0837               	movf	_pBDTEntryIn^(0+384),w
  6408  0CA5  0086               	movwf	6
  6409  0CA6  0838               	movf	(_pBDTEntryIn+1)^(0+384),w
  6410  0CA7  0087               	movwf	7
  6411  0CA8  1781               	bsf	1,7
  6412  0CA9                     i1l258:
  6413  0CA9  0008               	return
  6414  0CAA                     __end_of_USBCtrlEPAllowDataStage:
  6415                           
  6416                           	psect	text31
  6417  0F78                     __ptext31:	
  6418 ;; *************** function _USBCheckStdRequest *****************
  6419 ;; Defined at:
  6420 ;;		line 2690 in file "mcc_generated_files/usb/usb_device.c"
  6421 ;; Parameters:    Size  Location     Type
  6422 ;;		None
  6423 ;; Auto vars:     Size  Location     Type
  6424 ;;		None
  6425 ;; Return value:  Size  Location     Type
  6426 ;;                  1    wreg      void 
  6427 ;; Registers used:
  6428 ;;		wreg, fsr0l, fsr0h, fsr1l, fsr1h, status,2, status,0, pclath, cstack
  6429 ;; Tracked objects:
  6430 ;;		On entry : 0/0
  6431 ;;		On exit  : 0/0
  6432 ;;		Unchanged: 0/0
  6433 ;; Data sizes:     COMMON   BANK0   BANK1   BANK2   BANK3   BANK4   BANK5   BANK6   BANK7   BANK8   BANK9  BANK10  BANK1
      +1  BANK12
  6434 ;;      Params:         0       0       0       0       0       0       0       0       0       0       0       0       
      +0       0
  6435 ;;      Locals:         0       0       0       0       0       0       0       0       0       0       0       0       
      +0       0
  6436 ;;      Temps:          0       2       0       0       0       0       0       0       0       0       0       0       
      +0       0
  6437 ;;      Totals:         0       2       0       0       0       0       0       0       0       0       0       0       
      +0       0
  6438 ;;Total ram usage:        2 bytes
  6439 ;; Hardware stack levels used: 1
  6440 ;; Hardware stack levels required when called: 5
  6441 ;; This function calls:
  6442 ;;		_USBStdFeatureReqHandler
  6443 ;;		_USBStdGetDscHandler
  6444 ;;		_USBStdGetStatusHandler
  6445 ;;		_USBStdSetCfgHandler
  6446 ;;		_USER_USB_CALLBACK_EVENT_HANDLER
  6447 ;; This function is called by:
  6448 ;;		_USBCtrlTrfSetupHandler
  6449 ;; This function uses a non-reentrant model
  6450 ;;
  6451                           
  6452                           
  6453                           ;psect for function _USBCheckStdRequest
  6454  0F78                     _USBCheckStdRequest:
  6455  0F78                     i1l4715:	
  6456                           ;incstack = 0
  6457                           ; Regs used in _USBCheckStdRequest: [wreg-fsr1h+status,2+status,0+pclath+cstack]
  6458                           
  6459                           
  6460                           ;mcc_generated_files/usb/usb_device.c: 2692:     if(SetupPkt.RequestType != (0x00>>5)) r
      +                          eturn;
  6461  0F78  0020               	movlb	0	; select bank0
  6462  0F79  0E50               	swapf	80,w	;volatile
  6463  0F7A  0C89               	rrf	9,f
  6464  0F7B  3903               	andlw	3
  6465  0F7C  3A00               	xorlw	0
  6466  0F7D  1903               	skipnz
  6467  0F7E  2F80               	goto	u355_21
  6468  0F7F  2F81               	goto	u355_20
  6469  0F80                     u355_21:
  6470  0F80  2FD4               	goto	i1l4751
  6471  0F81                     u355_20:
  6472  0F81  2FFF               	goto	i1l391
  6473  0F82                     i1l393:	
  6474                           ;mcc_generated_files/usb/usb_device.c: 2695:     {;mcc_generated_files/usb/usb_device.c:
      +                           2696:         case 5:
  6475                           
  6476                           
  6477                           ;mcc_generated_files/usb/usb_device.c: 2697:             inPipes[0].info.bits.busy = 1;
  6478  0F82  0021               	movlb	1	; select bank1
  6479  0F83  17C0               	bsf	(_inPipes^(0+128)+2),7	;volatile
  6480  0F84                     i1l4719:
  6481                           
  6482                           ;mcc_generated_files/usb/usb_device.c: 2698:             USBDeviceState = ADR_PENDING_ST
      +                          ATE;
  6483  0F84  3008               	movlw	8
  6484  0F85  0020               	movlb	0	; select bank0
  6485  0F86  00ED               	movwf	??_USBCheckStdRequest
  6486  0F87  086D               	movf	??_USBCheckStdRequest,w
  6487  0F88  0021               	movlb	1	; select bank1
  6488  0F89  00C8               	movwf	_USBDeviceState^(0+128)	;volatile
  6489                           
  6490                           ;mcc_generated_files/usb/usb_device.c: 2700:             break;
  6491  0F8A  2FFF               	goto	i1l391
  6492  0F8B                     i1l4721:
  6493                           
  6494                           ;mcc_generated_files/usb/usb_device.c: 2702:             USBStdGetDscHandler();
  6495  0F8B  3186  26E0  318F   	fcall	_USBStdGetDscHandler
  6496                           
  6497                           ;mcc_generated_files/usb/usb_device.c: 2703:             break;
  6498  0F8E  2FFF               	goto	i1l391
  6499  0F8F                     i1l4723:
  6500                           
  6501                           ;mcc_generated_files/usb/usb_device.c: 2705:             USBStdSetCfgHandler();
  6502  0F8F  3186  2653  318F   	fcall	_USBStdSetCfgHandler
  6503                           
  6504                           ;mcc_generated_files/usb/usb_device.c: 2706:             break;
  6505  0F92  2FFF               	goto	i1l391
  6506  0F93                     i1l4725:
  6507                           
  6508                           ;mcc_generated_files/usb/usb_device.c: 2708:             inPipes[0].pSrc.bRam = (uint8_t
      +                          *)&USBActiveConfiguration;
  6509  0F93  30CA               	movlw	low _USBActiveConfiguration
  6510  0F94  0021               	movlb	1	; select bank1
  6511  0F95  00BE               	movwf	_inPipes^(0+128)	;volatile
  6512  0F96  3000               	movlw	high _USBActiveConfiguration
  6513  0F97  00BF               	movwf	(_inPipes+1)^(0+128)	;volatile
  6514  0F98                     i1l4727:
  6515                           
  6516                           ;mcc_generated_files/usb/usb_device.c: 2709:             inPipes[0].info.bits.ctrl_trf_m
      +                          em = 0x01;
  6517  0F98  1440               	bsf	(_inPipes^(0+128)+2),0	;volatile
  6518  0F99                     i1l4729:
  6519                           
  6520                           ;mcc_generated_files/usb/usb_device.c: 2710:             inPipes[0].wCount.v[0] = 1;
  6521  0F99  3001               	movlw	1
  6522  0F9A  0020               	movlb	0	; select bank0
  6523  0F9B  00ED               	movwf	??_USBCheckStdRequest
  6524  0F9C  086D               	movf	??_USBCheckStdRequest,w
  6525  0F9D  0021               	movlb	1	; select bank1
  6526  0F9E  00C1               	movwf	(_inPipes^(0+128)+3)	;volatile
  6527  0F9F                     i1l4731:
  6528                           
  6529                           ;mcc_generated_files/usb/usb_device.c: 2711:             inPipes[0].info.bits.busy = 1;
  6530  0F9F  17C0               	bsf	(_inPipes^(0+128)+2),7	;volatile
  6531                           
  6532                           ;mcc_generated_files/usb/usb_device.c: 2712:             break;
  6533  0FA0  2FFF               	goto	i1l391
  6534  0FA1                     i1l4733:
  6535                           
  6536                           ;mcc_generated_files/usb/usb_device.c: 2714:             USBStdGetStatusHandler();
  6537  0FA1  318C  24AA  318F   	fcall	_USBStdGetStatusHandler
  6538                           
  6539                           ;mcc_generated_files/usb/usb_device.c: 2715:             break;
  6540  0FA4  2FFF               	goto	i1l391
  6541  0FA5                     i1l4735:
  6542                           
  6543                           ;mcc_generated_files/usb/usb_device.c: 2718:             USBStdFeatureReqHandler();
  6544  0FA5  3180  2061  318F   	fcall	_USBStdFeatureReqHandler
  6545                           
  6546                           ;mcc_generated_files/usb/usb_device.c: 2719:             break;
  6547  0FA8  2FFF               	goto	i1l391
  6548  0FA9                     i1l4737:
  6549                           
  6550                           ;mcc_generated_files/usb/usb_device.c: 2721:             inPipes[0].pSrc.bRam = (uint8_t
      +                          *)&USBAlternateInterface[SetupPkt.bIntfID];
  6551  0FA9  0854               	movf	84,w	;volatile
  6552  0FAA  3EEE               	addlw	(low (_USBAlternateInterface| (0+256)))& (0+255)
  6553  0FAB  0021               	movlb	1	; select bank1
  6554  0FAC  00BE               	movwf	_inPipes^(0+128)	;volatile
  6555  0FAD  3001               	movlw	1
  6556  0FAE  00BF               	movwf	(_inPipes+1)^(0+128)	;volatile
  6557  0FAF                     i1l4739:
  6558                           
  6559                           ;mcc_generated_files/usb/usb_device.c: 2722:             inPipes[0].info.bits.ctrl_trf_m
      +                          em = 0x01;
  6560  0FAF  1440               	bsf	(_inPipes^(0+128)+2),0	;volatile
  6561  0FB0                     i1l4741:
  6562                           
  6563                           ;mcc_generated_files/usb/usb_device.c: 2723:             inPipes[0].wCount.v[0] = 1;
  6564  0FB0  3001               	movlw	1
  6565  0FB1  0020               	movlb	0	; select bank0
  6566  0FB2  00ED               	movwf	??_USBCheckStdRequest
  6567  0FB3  086D               	movf	??_USBCheckStdRequest,w
  6568  0FB4  0021               	movlb	1	; select bank1
  6569  0FB5  00C1               	movwf	(_inPipes^(0+128)+3)	;volatile
  6570  0FB6                     i1l4743:
  6571                           
  6572                           ;mcc_generated_files/usb/usb_device.c: 2724:             inPipes[0].info.bits.busy = 1;
  6573  0FB6  17C0               	bsf	(_inPipes^(0+128)+2),7	;volatile
  6574                           
  6575                           ;mcc_generated_files/usb/usb_device.c: 2725:             break;
  6576  0FB7  2FFF               	goto	i1l391
  6577  0FB8                     i1l402:	
  6578                           ;mcc_generated_files/usb/usb_device.c: 2726:         case 11:
  6579                           
  6580                           
  6581                           ;mcc_generated_files/usb/usb_device.c: 2727:             inPipes[0].info.bits.busy = 1;
  6582  0FB8  0021               	movlb	1	; select bank1
  6583  0FB9  17C0               	bsf	(_inPipes^(0+128)+2),7	;volatile
  6584  0FBA                     i1l4745:
  6585                           
  6586                           ;mcc_generated_files/usb/usb_device.c: 2728:             USBAlternateInterface[SetupPkt.
      +                          bIntfID] = SetupPkt.bAltID;
  6587  0FBA  0020               	movlb	0	; select bank0
  6588  0FBB  0852               	movf	82,w	;volatile
  6589  0FBC  00ED               	movwf	??_USBCheckStdRequest
  6590  0FBD  0854               	movf	84,w	;volatile
  6591  0FBE  3EEE               	addlw	(low (_USBAlternateInterface| (0+256)))& (0+255)
  6592  0FBF  0086               	movwf	6
  6593  0FC0  3001               	movlw	1	; select bank3/4
  6594  0FC1  0087               	movwf	7
  6595  0FC2  086D               	movf	??_USBCheckStdRequest,w
  6596  0FC3  0081               	movwf	1
  6597                           
  6598                           ;mcc_generated_files/usb/usb_device.c: 2729:             break;
  6599  0FC4  2FFF               	goto	i1l391
  6600  0FC5                     i1l4747:
  6601                           
  6602                           ;mcc_generated_files/usb/usb_device.c: 2731:             USER_USB_CALLBACK_EVENT_HANDLER
      +                          ((USB_EVENT)EVENT_SET_DESCRIPTOR,0,0);
  6603  0FC5  3002               	movlw	2
  6604  0FC6  00E0               	movwf	USER_USB_CALLBACK_EVENT_HANDLER@event
  6605  0FC7  3000               	movlw	0
  6606  0FC8  00E1               	movwf	USER_USB_CALLBACK_EVENT_HANDLER@event+1
  6607  0FC9  3000               	movlw	0
  6608  0FCA  00E2               	movwf	USER_USB_CALLBACK_EVENT_HANDLER@pdata
  6609  0FCB  3000               	movlw	0
  6610  0FCC  00E3               	movwf	USER_USB_CALLBACK_EVENT_HANDLER@pdata+1
  6611  0FCD  3000               	movlw	0
  6612  0FCE  00E4               	movwf	USER_USB_CALLBACK_EVENT_HANDLER@size
  6613  0FCF  00E5               	movwf	USER_USB_CALLBACK_EVENT_HANDLER@size+1
  6614  0FD0  318A  2276  318F   	fcall	_USER_USB_CALLBACK_EVENT_HANDLER
  6615                           
  6616                           ;mcc_generated_files/usb/usb_device.c: 2732:             break;
  6617  0FD3  2FFF               	goto	i1l391
  6618  0FD4                     i1l4751:
  6619  0FD4  0851               	movf	81,w	;volatile
  6620  0FD5  00ED               	movwf	??_USBCheckStdRequest
  6621  0FD6  01EE               	clrf	??_USBCheckStdRequest+1
  6622                           
  6623                           ; Switch on 2 bytes has been partitioned into a top level switch of size 1, and 1 sub-sw
      +                          itches
  6624                           ; Switch size 1, requested type "simple"
  6625                           ; Number of cases is 1, Range of values is 0 to 0
  6626                           ; switch strategies available:
  6627                           ; Name         Instructions Cycles
  6628                           ; simple_byte            4     3 (average)
  6629                           ; direct_byte            8     6 (fixed)
  6630                           ; jumptable            260     6 (fixed)
  6631                           ;	Chosen strategy is simple_byte
  6632  0FD7  086E               	movf	??_USBCheckStdRequest+1,w
  6633  0FD8  3A00               	xorlw	0	; case 0
  6634  0FD9  1903               	skipnz
  6635  0FDA  2FDC               	goto	i1l5283
  6636  0FDB  2FFF               	goto	i1l391
  6637  0FDC                     i1l5283:
  6638                           
  6639                           ; Switch size 1, requested type "simple"
  6640                           ; Number of cases is 11, Range of values is 0 to 12
  6641                           ; switch strategies available:
  6642                           ; Name         Instructions Cycles
  6643                           ; direct_byte           32     6 (fixed)
  6644                           ; simple_byte           34    18 (average)
  6645                           ; jumptable            260     6 (fixed)
  6646                           ;	Chosen strategy is simple_byte
  6647  0FDC  086D               	movf	??_USBCheckStdRequest,w
  6648  0FDD  3A00               	xorlw	0	; case 0
  6649  0FDE  1903               	skipnz
  6650  0FDF  2FA1               	goto	i1l4733
  6651  0FE0  3A01               	xorlw	1	; case 1
  6652  0FE1  1903               	skipnz
  6653  0FE2  2FA5               	goto	i1l4735
  6654  0FE3  3A02               	xorlw	2	; case 3
  6655  0FE4  1903               	skipnz
  6656  0FE5  2FA5               	goto	i1l4735
  6657  0FE6  3A06               	xorlw	6	; case 5
  6658  0FE7  1903               	skipnz
  6659  0FE8  2F82               	goto	i1l393
  6660  0FE9  3A03               	xorlw	3	; case 6
  6661  0FEA  1903               	skipnz
  6662  0FEB  2F8B               	goto	i1l4721
  6663  0FEC  3A01               	xorlw	1	; case 7
  6664  0FED  1903               	skipnz
  6665  0FEE  2FC5               	goto	i1l4747
  6666  0FEF  3A0F               	xorlw	15	; case 8
  6667  0FF0  1903               	skipnz
  6668  0FF1  2F93               	goto	i1l4725
  6669  0FF2  3A01               	xorlw	1	; case 9
  6670  0FF3  1903               	skipnz
  6671  0FF4  2F8F               	goto	i1l4723
  6672  0FF5  3A03               	xorlw	3	; case 10
  6673  0FF6  1903               	skipnz
  6674  0FF7  2FA9               	goto	i1l4737
  6675  0FF8  3A01               	xorlw	1	; case 11
  6676  0FF9  1903               	skipnz
  6677  0FFA  2FB8               	goto	i1l402
  6678  0FFB  3A07               	xorlw	7	; case 12
  6679  0FFC  1903               	skipnz
  6680  0FFD  2FFF               	goto	i1l391
  6681  0FFE  2FFF               	goto	i1l391
  6682  0FFF                     i1l391:
  6683  0FFF  0008               	return
  6684  1000                     __end_of_USBCheckStdRequest:
  6685                           
  6686                           	psect	text32
  6687  0653                     __ptext32:	
  6688 ;; *************** function _USBStdSetCfgHandler *****************
  6689 ;; Defined at:
  6690 ;;		line 1972 in file "mcc_generated_files/usb/usb_device.c"
  6691 ;; Parameters:    Size  Location     Type
  6692 ;;		None
  6693 ;; Auto vars:     Size  Location     Type
  6694 ;;  p               2    7[BANK0 ] PTR unsigned char 
  6695 ;;		 -> UEP1(1), 
  6696 ;;  i               1    9[BANK0 ] unsigned char 
  6697 ;;  i               1   10[BANK0 ] unsigned char 
  6698 ;; Return value:  Size  Location     Type
  6699 ;;                  1    wreg      void 
  6700 ;; Registers used:
  6701 ;;		wreg, fsr0l, fsr0h, fsr1l, fsr1h, status,2, status,0, pclath, cstack
  6702 ;; Tracked objects:
  6703 ;;		On entry : 0/0
  6704 ;;		On exit  : 0/0
  6705 ;;		Unchanged: 0/0
  6706 ;; Data sizes:     COMMON   BANK0   BANK1   BANK2   BANK3   BANK4   BANK5   BANK6   BANK7   BANK8   BANK9  BANK10  BANK1
      +1  BANK12
  6707 ;;      Params:         0       0       0       0       0       0       0       0       0       0       0       0       
      +0       0
  6708 ;;      Locals:         0       4       0       0       0       0       0       0       0       0       0       0       
      +0       0
  6709 ;;      Temps:          0       1       0       0       0       0       0       0       0       0       0       0       
      +0       0
  6710 ;;      Totals:         0       5       0       0       0       0       0       0       0       0       0       0       
      +0       0
  6711 ;;Total ram usage:        5 bytes
  6712 ;; Hardware stack levels used: 1
  6713 ;; Hardware stack levels required when called: 4
  6714 ;; This function calls:
  6715 ;;		_USER_USB_CALLBACK_EVENT_HANDLER
  6716 ;;		_memset
  6717 ;; This function is called by:
  6718 ;;		_USBCheckStdRequest
  6719 ;; This function uses a non-reentrant model
  6720 ;;
  6721                           
  6722                           
  6723                           ;psect for function _USBStdSetCfgHandler
  6724  0653                     _USBStdSetCfgHandler:
  6725  0653                     i1l4663:	
  6726                           ;incstack = 0
  6727                           ; Regs used in _USBStdSetCfgHandler: [wreg-fsr1h+status,2+status,0+pclath+cstack]
  6728                           
  6729                           
  6730                           ;mcc_generated_files/usb/usb_device.c: 1974:     uint8_t i;;mcc_generated_files/usb/usb_
      +                          device.c: 1977:     inPipes[0].info.bits.busy = 1;
  6731  0653  0021               	movlb	1	; select bank1
  6732  0654  17C0               	bsf	(_inPipes^(0+128)+2),7	;volatile
  6733                           
  6734                           ;mcc_generated_files/usb/usb_device.c: 1980:     { uint8_t i; uint8_t* p = (uint8_t*)&UE
      +                          P1; for(i=0;i<2;i++) *p++ = 0; };
  6735  0655  300E               	movlw	14
  6736  0656  0020               	movlb	0	; select bank0
  6737  0657  00E8               	movwf	USBStdSetCfgHandler@p+1
  6738  0658  3099               	movlw	153
  6739  0659  00E7               	movwf	USBStdSetCfgHandler@p
  6740  065A                     i1l4665:
  6741  065A  01E9               	clrf	USBStdSetCfgHandler@i_1499
  6742  065B                     i1l4671:
  6743  065B  0867               	movf	USBStdSetCfgHandler@p,w
  6744  065C  0086               	movwf	6
  6745  065D  0868               	movf	USBStdSetCfgHandler@p+1,w
  6746  065E  0087               	movwf	7
  6747  065F  0181               	clrf	1
  6748  0660                     i1l4673:
  6749  0660  3001               	movlw	1
  6750  0661  07E7               	addwf	USBStdSetCfgHandler@p,f
  6751  0662  3000               	movlw	0
  6752  0663  3DE8               	addwfc	USBStdSetCfgHandler@p+1,f
  6753  0664                     i1l4675:
  6754  0664  3001               	movlw	1
  6755  0665  00E6               	movwf	??_USBStdSetCfgHandler
  6756  0666  0866               	movf	??_USBStdSetCfgHandler,w
  6757  0667  07E9               	addwf	USBStdSetCfgHandler@i_1499,f
  6758  0668                     i1l4677:
  6759  0668  3002               	movlw	2
  6760  0669  0269               	subwf	USBStdSetCfgHandler@i_1499,w
  6761  066A  1C03               	skipc
  6762  066B  2E6D               	goto	u352_21
  6763  066C  2E6E               	goto	u352_20
  6764  066D                     u352_21:
  6765  066D  2E5B               	goto	i1l4671
  6766  066E                     u352_20:
  6767  066E                     i1l4679:
  6768                           
  6769                           ;mcc_generated_files/usb/usb_device.c: 1983:     memset((void*)&BDT[0], 0x00, sizeof(BDT
      +                          ));
  6770  066E  3020               	movlw	32
  6771  066F  00F0               	movwf	memset@dest
  6772  0670  3000               	movlw	0
  6773  0671  00F1               	movwf	memset@dest+1
  6774  0672  3000               	movlw	0
  6775  0673  00F2               	movwf	memset@c
  6776  0674  00F3               	movwf	memset@c+1
  6777  0675  3030               	movlw	48
  6778  0676  00F4               	movwf	memset@n
  6779  0677  3000               	movlw	0
  6780  0678  00F5               	movwf	memset@n+1
  6781  0679  3182  22DB  3186   	fcall	_memset
  6782  067C                     i1l4681:
  6783                           
  6784                           ;mcc_generated_files/usb/usb_device.c: 1986:     UCONbits.PPBRST = 1;
  6785  067C  003D               	movlb	29	; select bank29
  6786  067D  170E               	bsf	14,6	;volatile
  6787  067E                     i1l4683:
  6788                           
  6789                           ;mcc_generated_files/usb/usb_device.c: 1991:  for(i = 0; i < (uint8_t)(2 +1u); i++)
  6790  067E  0020               	movlb	0	; select bank0
  6791  067F  01EA               	clrf	USBStdSetCfgHandler@i
  6792  0680                     i1l4689:
  6793                           
  6794                           ;mcc_generated_files/usb/usb_device.c: 1992:  {;mcc_generated_files/usb/usb_device.c: 19
      +                          93:   ep_data_in[i].Val = 0u;
  6795  0680  086A               	movf	USBStdSetCfgHandler@i,w
  6796  0681  3ECA               	addlw	(low (_ep_data_in| (0+256)))& (0+255)
  6797  0682  0086               	movwf	6
  6798  0683  3001               	movlw	1	; select bank3/4
  6799  0684  0087               	movwf	7
  6800  0685  0181               	clrf	1
  6801                           
  6802                           ;mcc_generated_files/usb/usb_device.c: 1994:         ep_data_out[i].Val = 0u;
  6803  0686  086A               	movf	USBStdSetCfgHandler@i,w
  6804  0687  3EC7               	addlw	(low (_ep_data_out| (0+256)))& (0+255)
  6805  0688  0086               	movwf	6
  6806  0689  3001               	movlw	1	; select bank3/4
  6807  068A  0087               	movwf	7
  6808  068B  0181               	clrf	1
  6809  068C                     i1l4691:
  6810                           
  6811                           ;mcc_generated_files/usb/usb_device.c: 1995:  }
  6812  068C  3001               	movlw	1
  6813  068D  00E6               	movwf	??_USBStdSetCfgHandler
  6814  068E  0866               	movf	??_USBStdSetCfgHandler,w
  6815  068F  07EA               	addwf	USBStdSetCfgHandler@i,f
  6816  0690                     i1l4693:
  6817  0690  3003               	movlw	3
  6818  0691  026A               	subwf	USBStdSetCfgHandler@i,w
  6819  0692  1C03               	skipc
  6820  0693  2E95               	goto	u353_21
  6821  0694  2E96               	goto	u353_20
  6822  0695                     u353_21:
  6823  0695  2E80               	goto	i1l4689
  6824  0696                     u353_20:
  6825  0696                     i1l4695:
  6826                           
  6827                           ;mcc_generated_files/usb/usb_device.c: 1998:     memset((void*)&USBAlternateInterface,0x
      +                          00,2);
  6828  0696  30EE               	movlw	low _USBAlternateInterface
  6829  0697  00F0               	movwf	memset@dest
  6830  0698  3001               	movlw	high _USBAlternateInterface
  6831  0699  00F1               	movwf	memset@dest+1
  6832  069A  3000               	movlw	0
  6833  069B  00F2               	movwf	memset@c
  6834  069C  00F3               	movwf	memset@c+1
  6835  069D  3002               	movlw	2
  6836  069E  00F4               	movwf	memset@n
  6837  069F  3000               	movlw	0
  6838  06A0  00F5               	movwf	memset@n+1
  6839  06A1  3182  22DB  3186   	fcall	_memset
  6840  06A4                     i1l4697:
  6841                           
  6842                           ;mcc_generated_files/usb/usb_device.c: 2001:     UCONbits.PPBRST = 0;
  6843  06A4  003D               	movlb	29	; select bank29
  6844  06A5  130E               	bcf	14,6	;volatile
  6845  06A6                     i1l4699:
  6846                           
  6847                           ;mcc_generated_files/usb/usb_device.c: 2003:     pBDTEntryIn[0] = (volatile BDT_ENTRY*)&
      +                          BDT[2];
  6848  06A6  3028               	movlw	40
  6849  06A7  0023               	movlb	3	; select bank3
  6850  06A8  00B7               	movwf	_pBDTEntryIn^(0+384)
  6851  06A9  3000               	movlw	0
  6852  06AA  00B8               	movwf	(_pBDTEntryIn+1)^(0+384)
  6853  06AB                     i1l4701:
  6854                           
  6855                           ;mcc_generated_files/usb/usb_device.c: 2006:     pBDTEntryEP0OutCurrent = (volatile BDT_
      +                          ENTRY*)&BDT[0];
  6856  06AB  3020               	movlw	32
  6857  06AC  0020               	movlb	0	; select bank0
  6858  06AD  00E6               	movwf	??_USBStdSetCfgHandler
  6859  06AE  0866               	movf	??_USBStdSetCfgHandler,w
  6860  06AF  0021               	movlb	1	; select bank1
  6861  06B0  00C6               	movwf	_pBDTEntryEP0OutCurrent^(0+128)
  6862  06B1                     i1l4703:
  6863                           
  6864                           ;mcc_generated_files/usb/usb_device.c: 2007:     pBDTEntryEP0OutNext = pBDTEntryEP0OutCu
      +                          rrent;
  6865  06B1  0846               	movf	_pBDTEntryEP0OutCurrent^(0+128),w
  6866  06B2  00C3               	movwf	_pBDTEntryEP0OutNext^(0+128)
  6867  06B3  39FF               	andlw	255
  6868  06B4  1D03               	skipz
  6869  06B5  3000               	movlw	0
  6870  06B6  00C4               	movwf	(_pBDTEntryEP0OutNext+1)^(0+128)
  6871  06B7                     i1l4705:
  6872                           
  6873                           ;mcc_generated_files/usb/usb_device.c: 2010:     USBActiveConfiguration = SetupPkt.bConf
      +                          igurationValue;
  6874  06B7  0020               	movlb	0	; select bank0
  6875  06B8  0852               	movf	82,w	;volatile
  6876  06B9  00E6               	movwf	??_USBStdSetCfgHandler
  6877  06BA  0866               	movf	??_USBStdSetCfgHandler,w
  6878  06BB  0021               	movlb	1	; select bank1
  6879  06BC  00CA               	movwf	_USBActiveConfiguration^(0+128)	;volatile
  6880  06BD                     i1l4707:
  6881                           
  6882                           ;mcc_generated_files/usb/usb_device.c: 2013:     if(USBActiveConfiguration == 0)
  6883  06BD  084A               	movf	_USBActiveConfiguration^(0+128),w	;volatile
  6884  06BE  1D03               	btfss	3,2
  6885  06BF  2EC1               	goto	u354_21
  6886  06C0  2EC2               	goto	u354_20
  6887  06C1                     u354_21:
  6888  06C1  2EC9               	goto	i1l4711
  6889  06C2                     u354_20:
  6890  06C2                     i1l4709:
  6891                           
  6892                           ;mcc_generated_files/usb/usb_device.c: 2014:     {;mcc_generated_files/usb/usb_device.c:
      +                           2016:         USBDeviceState = ADDRESS_STATE;
  6893  06C2  3010               	movlw	16
  6894  06C3  0020               	movlb	0	; select bank0
  6895  06C4  00E6               	movwf	??_USBStdSetCfgHandler
  6896  06C5  0866               	movf	??_USBStdSetCfgHandler,w
  6897  06C6  0021               	movlb	1	; select bank1
  6898  06C7  00C8               	movwf	_USBDeviceState^(0+128)	;volatile
  6899                           
  6900                           ;mcc_generated_files/usb/usb_device.c: 2017:     }
  6901  06C8  2EDF               	goto	i1l313
  6902  06C9                     i1l4711:
  6903                           
  6904                           ;mcc_generated_files/usb/usb_device.c: 2019:     {;mcc_generated_files/usb/usb_device.c:
      +                           2021:         USER_USB_CALLBACK_EVENT_HANDLER((USB_EVENT)EVENT_CONFIGURED,(void*)&USBAc
      +                          tiveConfiguration,1);
  6905  06C9  3001               	movlw	1
  6906  06CA  0020               	movlb	0	; select bank0
  6907  06CB  00E0               	movwf	USER_USB_CALLBACK_EVENT_HANDLER@event
  6908  06CC  3000               	movlw	0
  6909  06CD  00E1               	movwf	USER_USB_CALLBACK_EVENT_HANDLER@event+1
  6910  06CE  30CA               	movlw	low _USBActiveConfiguration
  6911  06CF  00E2               	movwf	USER_USB_CALLBACK_EVENT_HANDLER@pdata
  6912  06D0  3000               	movlw	high _USBActiveConfiguration
  6913  06D1  00E3               	movwf	USER_USB_CALLBACK_EVENT_HANDLER@pdata+1
  6914  06D2  3001               	movlw	1
  6915  06D3  00E4               	movwf	USER_USB_CALLBACK_EVENT_HANDLER@size
  6916  06D4  3000               	movlw	0
  6917  06D5  00E5               	movwf	USER_USB_CALLBACK_EVENT_HANDLER@size+1
  6918  06D6  318A  2276  3186   	fcall	_USER_USB_CALLBACK_EVENT_HANDLER
  6919  06D9                     i1l4713:
  6920                           
  6921                           ;mcc_generated_files/usb/usb_device.c: 2026:         USBDeviceState = CONFIGURED_STATE;
  6922  06D9  3020               	movlw	32
  6923  06DA  0020               	movlb	0	; select bank0
  6924  06DB  00E6               	movwf	??_USBStdSetCfgHandler
  6925  06DC  0866               	movf	??_USBStdSetCfgHandler,w
  6926  06DD  0021               	movlb	1	; select bank1
  6927  06DE  00C8               	movwf	_USBDeviceState^(0+128)	;volatile
  6928  06DF                     i1l313:
  6929  06DF  0008               	return
  6930  06E0                     __end_of_USBStdSetCfgHandler:
  6931                           
  6932                           	psect	text33
  6933  02DB                     __ptext33:	
  6934 ;; *************** function _memset *****************
  6935 ;; Defined at:
  6936 ;;		line 4 in file "C:\Program Files\Microchip\xc8\v2.32\pic\sources\c99\common\memset.c"
  6937 ;; Parameters:    Size  Location     Type
  6938 ;;  dest            2    0[COMMON] PTR void 
  6939 ;;		 -> USBAlternateInterface(2), BDT(48), 
  6940 ;;  c               2    2[COMMON] int 
  6941 ;;  n               2    4[COMMON] unsigned int 
  6942 ;; Auto vars:     Size  Location     Type
  6943 ;;  s               2   12[COMMON] PTR unsigned char 
  6944 ;;		 -> USBAlternateInterface(2), BDT(48), 
  6945 ;;  k               2   10[COMMON] unsigned int 
  6946 ;; Return value:  Size  Location     Type
  6947 ;;                  2    0[COMMON] PTR void 
  6948 ;; Registers used:
  6949 ;;		wreg, fsr1l, fsr1h, status,2, status,0
  6950 ;; Tracked objects:
  6951 ;;		On entry : 0/0
  6952 ;;		On exit  : 0/0
  6953 ;;		Unchanged: 0/0
  6954 ;; Data sizes:     COMMON   BANK0   BANK1   BANK2   BANK3   BANK4   BANK5   BANK6   BANK7   BANK8   BANK9  BANK10  BANK1
      +1  BANK12
  6955 ;;      Params:         6       0       0       0       0       0       0       0       0       0       0       0       
      +0       0
  6956 ;;      Locals:         4       0       0       0       0       0       0       0       0       0       0       0       
      +0       0
  6957 ;;      Temps:          4       0       0       0       0       0       0       0       0       0       0       0       
      +0       0
  6958 ;;      Totals:        14       0       0       0       0       0       0       0       0       0       0       0       
      +0       0
  6959 ;;Total ram usage:       14 bytes
  6960 ;; Hardware stack levels used: 1
  6961 ;; This function calls:
  6962 ;;		Nothing
  6963 ;; This function is called by:
  6964 ;;		_USBStdSetCfgHandler
  6965 ;; This function uses a non-reentrant model
  6966 ;;
  6967                           
  6968                           
  6969                           ;psect for function _memset
  6970  02DB                     _memset:
  6971  02DB                     i1l4621:	
  6972                           ;incstack = 0
  6973                           ; Regs used in _memset: [wreg+fsr1l+fsr1h+status,2+status,0]
  6974                           
  6975  02DB  0871               	movf	memset@dest+1,w
  6976  02DC  00FD               	movwf	memset@s+1
  6977  02DD  0870               	movf	memset@dest,w
  6978  02DE  00FC               	movwf	memset@s
  6979  02DF                     i1l4623:
  6980  02DF  0874               	movf	memset@n,w
  6981  02E0  0475               	iorwf	memset@n+1,w
  6982  02E1  1D03               	btfss	3,2
  6983  02E2  2AE4               	goto	u347_21
  6984  02E3  2AE5               	goto	u347_20
  6985  02E4                     u347_21:
  6986  02E4  2AE6               	goto	i1l4627
  6987  02E5                     u347_20:
  6988  02E5  2BA4               	goto	i1l1300
  6989  02E6                     i1l4627:
  6990  02E6  087C               	movf	memset@s,w
  6991  02E7  0086               	movwf	6
  6992  02E8  087D               	movf	memset@s+1,w
  6993  02E9  0087               	movwf	7
  6994  02EA  0872               	movf	memset@c,w
  6995  02EB  0081               	movwf	1
  6996  02EC                     i1l4629:
  6997  02EC  0874               	movf	memset@n,w
  6998  02ED  077C               	addwf	memset@s,w
  6999  02EE  00F6               	movwf	??_memset
  7000  02EF  0875               	movf	memset@n+1,w
  7001  02F0  3D7D               	addwfc	memset@s+1,w
  7002  02F1  00F7               	movwf	??_memset+1
  7003  02F2  0876               	movf	??_memset,w
  7004  02F3  3EFF               	addlw	255
  7005  02F4  00F8               	movwf	??_memset+2
  7006  02F5  30FF               	movlw	255
  7007  02F6  3D77               	addwfc	??_memset+1,w
  7008  02F7  00F9               	movwf	??_memset+3
  7009  02F8  0878               	movf	??_memset+2,w
  7010  02F9  0086               	movwf	6
  7011  02FA  0879               	movf	??_memset+3,w
  7012  02FB  0087               	movwf	7
  7013  02FC  0872               	movf	memset@c,w
  7014  02FD  0081               	movwf	1
  7015  02FE                     i1l4631:
  7016  02FE  3000               	movlw	0
  7017  02FF  0275               	subwf	memset@n+1,w
  7018  0300  3003               	movlw	3
  7019  0301  1903               	skipnz
  7020  0302  0274               	subwf	memset@n,w
  7021  0303  1803               	skipnc
  7022  0304  2B06               	goto	u348_21
  7023  0305  2B07               	goto	u348_20
  7024  0306                     u348_21:
  7025  0306  2B08               	goto	i1l4635
  7026  0307                     u348_20:
  7027  0307  2BA4               	goto	i1l1300
  7028  0308                     i1l4635:
  7029  0308  087C               	movf	memset@s,w
  7030  0309  3E01               	addlw	1
  7031  030A  00F6               	movwf	??_memset
  7032  030B  3000               	movlw	0
  7033  030C  3D7D               	addwfc	memset@s+1,w
  7034  030D  00F7               	movwf	??_memset+1
  7035  030E  0876               	movf	??_memset,w
  7036  030F  0086               	movwf	6
  7037  0310  0877               	movf	??_memset+1,w
  7038  0311  0087               	movwf	7
  7039  0312  0872               	movf	memset@c,w
  7040  0313  0081               	movwf	1
  7041  0314  087C               	movf	memset@s,w
  7042  0315  3E02               	addlw	2
  7043  0316  00F6               	movwf	??_memset
  7044  0317  3000               	movlw	0
  7045  0318  3D7D               	addwfc	memset@s+1,w
  7046  0319  00F7               	movwf	??_memset+1
  7047  031A  0876               	movf	??_memset,w
  7048  031B  0086               	movwf	6
  7049  031C  0877               	movf	??_memset+1,w
  7050  031D  0087               	movwf	7
  7051  031E  0872               	movf	memset@c,w
  7052  031F  0081               	movwf	1
  7053  0320  0874               	movf	memset@n,w
  7054  0321  077C               	addwf	memset@s,w
  7055  0322  00F6               	movwf	??_memset
  7056  0323  0875               	movf	memset@n+1,w
  7057  0324  3D7D               	addwfc	memset@s+1,w
  7058  0325  00F7               	movwf	??_memset+1
  7059  0326  0876               	movf	??_memset,w
  7060  0327  3EFE               	addlw	254
  7061  0328  00F8               	movwf	??_memset+2
  7062  0329  30FF               	movlw	255
  7063  032A  3D77               	addwfc	??_memset+1,w
  7064  032B  00F9               	movwf	??_memset+3
  7065  032C  0878               	movf	??_memset+2,w
  7066  032D  0086               	movwf	6
  7067  032E  0879               	movf	??_memset+3,w
  7068  032F  0087               	movwf	7
  7069  0330  0872               	movf	memset@c,w
  7070  0331  0081               	movwf	1
  7071  0332  0874               	movf	memset@n,w
  7072  0333  077C               	addwf	memset@s,w
  7073  0334  00F6               	movwf	??_memset
  7074  0335  0875               	movf	memset@n+1,w
  7075  0336  3D7D               	addwfc	memset@s+1,w
  7076  0337  00F7               	movwf	??_memset+1
  7077  0338  0876               	movf	??_memset,w
  7078  0339  3EFD               	addlw	253
  7079  033A  00F8               	movwf	??_memset+2
  7080  033B  30FF               	movlw	255
  7081  033C  3D77               	addwfc	??_memset+1,w
  7082  033D  00F9               	movwf	??_memset+3
  7083  033E  0878               	movf	??_memset+2,w
  7084  033F  0086               	movwf	6
  7085  0340  0879               	movf	??_memset+3,w
  7086  0341  0087               	movwf	7
  7087  0342  0872               	movf	memset@c,w
  7088  0343  0081               	movwf	1
  7089  0344                     i1l4637:
  7090  0344  3000               	movlw	0
  7091  0345  0275               	subwf	memset@n+1,w
  7092  0346  3007               	movlw	7
  7093  0347  1903               	skipnz
  7094  0348  0274               	subwf	memset@n,w
  7095  0349  1803               	skipnc
  7096  034A  2B4C               	goto	u349_21
  7097  034B  2B4D               	goto	u349_20
  7098  034C                     u349_21:
  7099  034C  2B4E               	goto	i1l4641
  7100  034D                     u349_20:
  7101  034D  2BA4               	goto	i1l1300
  7102  034E                     i1l4641:
  7103  034E  087C               	movf	memset@s,w
  7104  034F  3E03               	addlw	3
  7105  0350  00F6               	movwf	??_memset
  7106  0351  3000               	movlw	0
  7107  0352  3D7D               	addwfc	memset@s+1,w
  7108  0353  00F7               	movwf	??_memset+1
  7109  0354  0876               	movf	??_memset,w
  7110  0355  0086               	movwf	6
  7111  0356  0877               	movf	??_memset+1,w
  7112  0357  0087               	movwf	7
  7113  0358  0872               	movf	memset@c,w
  7114  0359  0081               	movwf	1
  7115  035A  0874               	movf	memset@n,w
  7116  035B  077C               	addwf	memset@s,w
  7117  035C  00F6               	movwf	??_memset
  7118  035D  0875               	movf	memset@n+1,w
  7119  035E  3D7D               	addwfc	memset@s+1,w
  7120  035F  00F7               	movwf	??_memset+1
  7121  0360  0876               	movf	??_memset,w
  7122  0361  3EFC               	addlw	252
  7123  0362  00F8               	movwf	??_memset+2
  7124  0363  30FF               	movlw	255
  7125  0364  3D77               	addwfc	??_memset+1,w
  7126  0365  00F9               	movwf	??_memset+3
  7127  0366  0878               	movf	??_memset+2,w
  7128  0367  0086               	movwf	6
  7129  0368  0879               	movf	??_memset+3,w
  7130  0369  0087               	movwf	7
  7131  036A  0872               	movf	memset@c,w
  7132  036B  0081               	movwf	1
  7133  036C                     i1l4643:
  7134  036C  3000               	movlw	0
  7135  036D  0275               	subwf	memset@n+1,w
  7136  036E  3009               	movlw	9
  7137  036F  1903               	skipnz
  7138  0370  0274               	subwf	memset@n,w
  7139  0371  1803               	skipnc
  7140  0372  2B74               	goto	u350_21
  7141  0373  2B75               	goto	u350_20
  7142  0374                     u350_21:
  7143  0374  2B76               	goto	i1l4647
  7144  0375                     u350_20:
  7145  0375  2BA4               	goto	i1l1300
  7146  0376                     i1l4647:
  7147  0376  097C               	comf	memset@s,w
  7148  0377  00F6               	movwf	??_memset
  7149  0378  097D               	comf	memset@s+1,w
  7150  0379  00F7               	movwf	??_memset+1
  7151  037A  0AF6               	incf	??_memset,f
  7152  037B  1903               	skipnz
  7153  037C  0AF7               	incf	??_memset+1,f
  7154  037D  3003               	movlw	3
  7155  037E  0576               	andwf	??_memset,w
  7156  037F  00FA               	movwf	memset@k
  7157  0380  3000               	movlw	0
  7158  0381  0577               	andwf	??_memset+1,w
  7159  0382  00FB               	movwf	memset@k+1
  7160  0383                     i1l4649:
  7161  0383  087A               	movf	memset@k,w
  7162  0384  07FC               	addwf	memset@s,f
  7163  0385  087B               	movf	memset@k+1,w
  7164  0386  3DFD               	addwfc	memset@s+1,f
  7165  0387                     i1l4651:
  7166  0387  087A               	movf	memset@k,w
  7167  0388  02F4               	subwf	memset@n,f
  7168  0389  087B               	movf	memset@k+1,w
  7169  038A  3BF5               	subwfb	memset@n+1,f
  7170  038B                     i1l4653:
  7171  038B  30FC               	movlw	252
  7172  038C  05F4               	andwf	memset@n,f
  7173  038D  30FF               	movlw	255
  7174  038E  05F5               	andwf	memset@n+1,f
  7175  038F  2B9E               	goto	i1l4661
  7176  0390                     i1l4655:
  7177  0390  087C               	movf	memset@s,w
  7178  0391  0086               	movwf	6
  7179  0392  087D               	movf	memset@s+1,w
  7180  0393  0087               	movwf	7
  7181  0394  0872               	movf	memset@c,w
  7182  0395  0081               	movwf	1
  7183  0396                     i1l4657:
  7184  0396  3001               	movlw	1
  7185  0397  02F4               	subwf	memset@n,f
  7186  0398  3000               	movlw	0
  7187  0399  3BF5               	subwfb	memset@n+1,f
  7188  039A                     i1l4659:
  7189  039A  3001               	movlw	1
  7190  039B  07FC               	addwf	memset@s,f
  7191  039C  3000               	movlw	0
  7192  039D  3DFD               	addwfc	memset@s+1,f
  7193  039E                     i1l4661:
  7194  039E  0874               	movf	memset@n,w
  7195  039F  0475               	iorwf	memset@n+1,w
  7196  03A0  1D03               	btfss	3,2
  7197  03A1  2BA3               	goto	u351_21
  7198  03A2  2BA4               	goto	u351_20
  7199  03A3                     u351_21:
  7200  03A3  2B90               	goto	i1l4655
  7201  03A4                     u351_20:
  7202  03A4                     i1l1300:
  7203  03A4  0008               	return
  7204  03A5                     __end_of_memset:
  7205                           
  7206                           	psect	text34
  7207  0CAA                     __ptext34:	
  7208 ;; *************** function _USBStdGetStatusHandler *****************
  7209 ;; Defined at:
  7210 ;;		line 2133 in file "mcc_generated_files/usb/usb_device.c"
  7211 ;; Parameters:    Size  Location     Type
  7212 ;;		None
  7213 ;; Auto vars:     Size  Location     Type
  7214 ;;  p               2    2[COMMON] PTR struct __BDT
  7215 ;;		 -> RAM(4096), NULL(0), BDT(48), 
  7216 ;; Return value:  Size  Location     Type
  7217 ;;                  1    wreg      void 
  7218 ;; Registers used:
  7219 ;;		wreg, fsr0l, fsr0h, fsr1l, fsr1h, status,2, status,0
  7220 ;; Tracked objects:
  7221 ;;		On entry : 0/0
  7222 ;;		On exit  : 0/0
  7223 ;;		Unchanged: 0/0
  7224 ;; Data sizes:     COMMON   BANK0   BANK1   BANK2   BANK3   BANK4   BANK5   BANK6   BANK7   BANK8   BANK9  BANK10  BANK1
      +1  BANK12
  7225 ;;      Params:         0       0       0       0       0       0       0       0       0       0       0       0       
      +0       0
  7226 ;;      Locals:         2       0       0       0       0       0       0       0       0       0       0       0       
      +0       0
  7227 ;;      Temps:          2       0       0       0       0       0       0       0       0       0       0       0       
      +0       0
  7228 ;;      Totals:         4       0       0       0       0       0       0       0       0       0       0       0       
      +0       0
  7229 ;;Total ram usage:        4 bytes
  7230 ;; Hardware stack levels used: 1
  7231 ;; This function calls:
  7232 ;;		Nothing
  7233 ;; This function is called by:
  7234 ;;		_USBCheckStdRequest
  7235 ;; This function uses a non-reentrant model
  7236 ;;
  7237                           
  7238                           
  7239                           ;psect for function _USBStdGetStatusHandler
  7240  0CAA                     _USBStdGetStatusHandler:
  7241  0CAA                     i1l3395:	
  7242                           ;incstack = 0
  7243                           ; Regs used in _USBStdGetStatusHandler: [wreg-fsr1h+status,2+status,0]
  7244                           
  7245                           
  7246                           ;mcc_generated_files/usb/usb_device.c: 2135:     CtrlTrfData[0] = 0;
  7247  0CAA  0020               	movlb	0	; select bank0
  7248  0CAB  01D8               	clrf	88	;volatile
  7249                           
  7250                           ;mcc_generated_files/usb/usb_device.c: 2136:     CtrlTrfData[1] = 0;
  7251  0CAC  01D9               	clrf	89	;volatile
  7252                           
  7253                           ;mcc_generated_files/usb/usb_device.c: 2138:     switch(SetupPkt.Recipient)
  7254  0CAD  2CEF               	goto	i1l3415
  7255  0CAE                     i1l331:	
  7256                           ;mcc_generated_files/usb/usb_device.c: 2139:     {;mcc_generated_files/usb/usb_device.c:
      +                           2140:         case (0x00):
  7257                           
  7258                           
  7259                           ;mcc_generated_files/usb/usb_device.c: 2141:             inPipes[0].info.bits.busy = 1;
  7260  0CAE  0021               	movlb	1	; select bank1
  7261  0CAF  17C0               	bsf	(_inPipes^(0+128)+2),7	;volatile
  7262  0CB0                     i1l3399:	
  7263                           ;mcc_generated_files/usb/usb_device.c: 2146:             if(0 == 1)
  7264                           
  7265                           
  7266                           ;mcc_generated_files/usb/usb_device.c: 2151:             if(RemoteWakeup == 1)
  7267  0CB0  0023               	movlb	3	; select bank3
  7268  0CB1  036B               	decf	_RemoteWakeup^(0+384),w	;volatile
  7269  0CB2  1D03               	btfss	3,2
  7270  0CB3  2CB5               	goto	u203_21
  7271  0CB4  2CB6               	goto	u203_20
  7272  0CB5                     u203_21:
  7273  0CB5  2D03               	goto	i1l334
  7274  0CB6                     u203_20:
  7275  0CB6                     i1l3401:
  7276                           
  7277                           ;mcc_generated_files/usb/usb_device.c: 2152:             {;mcc_generated_files/usb/usb_d
      +                          evice.c: 2153:                 CtrlTrfData[0]|=0x02;
  7278  0CB6  0020               	movlb	0	; select bank0
  7279  0CB7  14D8               	bsf	88,1	;volatile
  7280  0CB8  2D03               	goto	i1l334
  7281  0CB9                     i1l335:	
  7282                           ;mcc_generated_files/usb/usb_device.c: 2156:         case (0x01):
  7283                           
  7284                           
  7285                           ;mcc_generated_files/usb/usb_device.c: 2157:             inPipes[0].info.bits.busy = 1;
  7286  0CB9  0021               	movlb	1	; select bank1
  7287  0CBA  17C0               	bsf	(_inPipes^(0+128)+2),7	;volatile
  7288                           
  7289                           ;mcc_generated_files/usb/usb_device.c: 2158:             break;
  7290  0CBB  2D03               	goto	i1l334
  7291  0CBC                     i1l336:	
  7292                           ;mcc_generated_files/usb/usb_device.c: 2159:         case (0x02):
  7293                           
  7294                           
  7295                           ;mcc_generated_files/usb/usb_device.c: 2160:             inPipes[0].info.bits.busy = 1;
  7296  0CBC  0021               	movlb	1	; select bank1
  7297  0CBD  17C0               	bsf	(_inPipes^(0+128)+2),7	;volatile
  7298                           
  7299                           ;mcc_generated_files/usb/usb_device.c: 2164:             {;mcc_generated_files/usb/usb_d
      +                          evice.c: 2165:                 BDT_ENTRY *p;;mcc_generated_files/usb/usb_device.c: 2167:
      +                                           if(SetupPkt.EPDir == 0)
  7300  0CBE  0020               	movlb	0	; select bank0
  7301  0CBF  1BD4               	btfsc	84,7	;volatile
  7302  0CC0  2CC2               	goto	u204_21
  7303  0CC1  2CC3               	goto	u204_20
  7304  0CC2                     u204_21:
  7305  0CC2  2CCF               	goto	i1l3405
  7306  0CC3                     u204_20:
  7307  0CC3                     i1l3403:
  7308                           
  7309                           ;mcc_generated_files/usb/usb_device.c: 2168:                 {;mcc_generated_files/usb/u
      +                          sb_device.c: 2169:                     p = (BDT_ENTRY*)pBDTEntryOut[SetupPkt.EPNum];
  7310  0CC3  0854               	movf	84,w	;volatile
  7311  0CC4  390F               	andlw	15
  7312  0CC5  0709               	addwf	9,w
  7313  0CC6  3EBD               	addlw	(low (_pBDTEntryOut| (0+256)))& (0+255)
  7314  0CC7  0086               	movwf	6
  7315  0CC8  3001               	movlw	1	; select bank3/4
  7316  0CC9  0087               	movwf	7
  7317  0CCA  3F40               	moviw [0]fsr1
  7318  0CCB  00F2               	movwf	USBStdGetStatusHandler@p
  7319  0CCC  3F41               	moviw [1]fsr1
  7320  0CCD  00F3               	movwf	USBStdGetStatusHandler@p+1
  7321                           
  7322                           ;mcc_generated_files/usb/usb_device.c: 2170:                 }
  7323  0CCE  2CDA               	goto	i1l3407
  7324  0CCF                     i1l3405:
  7325                           
  7326                           ;mcc_generated_files/usb/usb_device.c: 2172:                 {;mcc_generated_files/usb/u
      +                          sb_device.c: 2173:                     p = (BDT_ENTRY*)pBDTEntryIn[SetupPkt.EPNum];
  7327  0CCF  0854               	movf	84,w	;volatile
  7328  0CD0  390F               	andlw	15
  7329  0CD1  0709               	addwf	9,w
  7330  0CD2  3EB7               	addlw	(low (_pBDTEntryIn| (0+256)))& (0+255)
  7331  0CD3  0086               	movwf	6
  7332  0CD4  3001               	movlw	1	; select bank3/4
  7333  0CD5  0087               	movwf	7
  7334  0CD6  3F40               	moviw [0]fsr1
  7335  0CD7  00F2               	movwf	USBStdGetStatusHandler@p
  7336  0CD8  3F41               	moviw [1]fsr1
  7337  0CD9  00F3               	movwf	USBStdGetStatusHandler@p+1
  7338  0CDA                     i1l3407:
  7339                           
  7340                           ;mcc_generated_files/usb/usb_device.c: 2176:                 if((p->STAT.UOWN == 1) && (
      +                          p->STAT.BSTALL == 1))
  7341  0CDA  0872               	movf	USBStdGetStatusHandler@p,w
  7342  0CDB  0086               	movwf	6
  7343  0CDC  0873               	movf	USBStdGetStatusHandler@p+1,w
  7344  0CDD  0087               	movwf	7
  7345  0CDE  1F81               	btfss	1,7
  7346  0CDF  2CE1               	goto	u205_21
  7347  0CE0  2CE2               	goto	u205_20
  7348  0CE1                     u205_21:
  7349  0CE1  2D03               	goto	i1l334
  7350  0CE2                     u205_20:
  7351  0CE2                     i1l3409:
  7352  0CE2  0872               	movf	USBStdGetStatusHandler@p,w
  7353  0CE3  0086               	movwf	6
  7354  0CE4  0873               	movf	USBStdGetStatusHandler@p+1,w
  7355  0CE5  0087               	movwf	7
  7356  0CE6  1D01               	btfss	1,2
  7357  0CE7  2CE9               	goto	u206_21
  7358  0CE8  2CEA               	goto	u206_20
  7359  0CE9                     u206_21:
  7360  0CE9  2D03               	goto	i1l334
  7361  0CEA                     u206_20:
  7362  0CEA                     i1l3411:
  7363                           
  7364                           ;mcc_generated_files/usb/usb_device.c: 2177:                     CtrlTrfData[0]=0x01;
  7365  0CEA  3001               	movlw	1
  7366  0CEB  00F0               	movwf	??_USBStdGetStatusHandler
  7367  0CEC  0870               	movf	??_USBStdGetStatusHandler,w
  7368  0CED  00D8               	movwf	88	;volatile
  7369  0CEE  2D03               	goto	i1l334
  7370  0CEF                     i1l3415:
  7371  0CEF  0850               	movf	80,w	;volatile
  7372  0CF0  391F               	andlw	31
  7373  0CF1  00F0               	movwf	??_USBStdGetStatusHandler
  7374  0CF2  01F1               	clrf	??_USBStdGetStatusHandler+1
  7375                           
  7376                           ; Switch on 2 bytes has been partitioned into a top level switch of size 1, and 1 sub-sw
      +                          itches
  7377                           ; Switch size 1, requested type "simple"
  7378                           ; Number of cases is 1, Range of values is 0 to 0
  7379                           ; switch strategies available:
  7380                           ; Name         Instructions Cycles
  7381                           ; simple_byte            4     3 (average)
  7382                           ; direct_byte            8     6 (fixed)
  7383                           ; jumptable            260     6 (fixed)
  7384                           ;	Chosen strategy is simple_byte
  7385  0CF3  0871               	movf	??_USBStdGetStatusHandler+1,w
  7386  0CF4  3A00               	xorlw	0	; case 0
  7387  0CF5  1903               	skipnz
  7388  0CF6  2CF8               	goto	i1l5285
  7389  0CF7  2D03               	goto	i1l334
  7390  0CF8                     i1l5285:
  7391                           
  7392                           ; Switch size 1, requested type "simple"
  7393                           ; Number of cases is 3, Range of values is 0 to 2
  7394                           ; switch strategies available:
  7395                           ; Name         Instructions Cycles
  7396                           ; simple_byte           10     6 (average)
  7397                           ; direct_byte           12     6 (fixed)
  7398                           ; jumptable            260     6 (fixed)
  7399                           ;	Chosen strategy is simple_byte
  7400  0CF8  0870               	movf	??_USBStdGetStatusHandler,w
  7401  0CF9  3A00               	xorlw	0	; case 0
  7402  0CFA  1903               	skipnz
  7403  0CFB  2CAE               	goto	i1l331
  7404  0CFC  3A01               	xorlw	1	; case 1
  7405  0CFD  1903               	skipnz
  7406  0CFE  2CB9               	goto	i1l335
  7407  0CFF  3A03               	xorlw	3	; case 2
  7408  0D00  1903               	skipnz
  7409  0D01  2CBC               	goto	i1l336
  7410  0D02  2D03               	goto	i1l334
  7411  0D03                     i1l334:
  7412                           
  7413                           ;mcc_generated_files/usb/usb_device.c: 2182:     if(inPipes[0].info.bits.busy == 1)
  7414  0D03  0021               	movlb	1	; select bank1
  7415  0D04  1FC0               	btfss	(_inPipes^(0+128)+2),7	;volatile
  7416  0D05  2D07               	goto	u207_21
  7417  0D06  2D08               	goto	u207_20
  7418  0D07                     u207_21:
  7419  0D07  2D11               	goto	i1l341
  7420  0D08                     u207_20:
  7421  0D08                     i1l3417:
  7422                           
  7423                           ;mcc_generated_files/usb/usb_device.c: 2183:     {;mcc_generated_files/usb/usb_device.c:
      +                           2184:         inPipes[0].pSrc.bRam = (uint8_t*)&CtrlTrfData;
  7424  0D08  3058               	movlw	88
  7425  0D09  00BE               	movwf	_inPipes^(0+128)	;volatile
  7426  0D0A  3000               	movlw	0
  7427  0D0B  00BF               	movwf	(_inPipes+1)^(0+128)	;volatile
  7428  0D0C                     i1l3419:
  7429                           
  7430                           ;mcc_generated_files/usb/usb_device.c: 2185:         inPipes[0].info.bits.ctrl_trf_mem =
      +                           0x01;
  7431  0D0C  1440               	bsf	(_inPipes^(0+128)+2),0	;volatile
  7432  0D0D                     i1l3421:
  7433                           
  7434                           ;mcc_generated_files/usb/usb_device.c: 2186:         inPipes[0].wCount.v[0] = 2;
  7435  0D0D  3002               	movlw	2
  7436  0D0E  00F0               	movwf	??_USBStdGetStatusHandler
  7437  0D0F  0870               	movf	??_USBStdGetStatusHandler,w
  7438  0D10  00C1               	movwf	(_inPipes^(0+128)+3)	;volatile
  7439  0D11                     i1l341:
  7440  0D11  0008               	return
  7441  0D12                     __end_of_USBStdGetStatusHandler:
  7442                           
  7443                           	psect	text35
  7444  06E0                     __ptext35:	
  7445 ;; *************** function _USBStdGetDscHandler *****************
  7446 ;; Defined at:
  7447 ;;		line 2047 in file "mcc_generated_files/usb/usb_device.c"
  7448 ;; Parameters:    Size  Location     Type
  7449 ;;		None
  7450 ;; Auto vars:     Size  Location     Type
  7451 ;;		None
  7452 ;; Return value:  Size  Location     Type
  7453 ;;                  1    wreg      void 
  7454 ;; Registers used:
  7455 ;;		wreg, fsr0l, fsr0h, status,2, status,0, pclath
  7456 ;; Tracked objects:
  7457 ;;		On entry : 0/0
  7458 ;;		On exit  : 0/0
  7459 ;;		Unchanged: 0/0
  7460 ;; Data sizes:     COMMON   BANK0   BANK1   BANK2   BANK3   BANK4   BANK5   BANK6   BANK7   BANK8   BANK9  BANK10  BANK1
      +1  BANK12
  7461 ;;      Params:         0       0       0       0       0       0       0       0       0       0       0       0       
      +0       0
  7462 ;;      Locals:         0       0       0       0       0       0       0       0       0       0       0       0       
      +0       0
  7463 ;;      Temps:          3       0       0       0       0       0       0       0       0       0       0       0       
      +0       0
  7464 ;;      Totals:         3       0       0       0       0       0       0       0       0       0       0       0       
      +0       0
  7465 ;;Total ram usage:        3 bytes
  7466 ;; Hardware stack levels used: 1
  7467 ;; This function calls:
  7468 ;;		Nothing
  7469 ;; This function is called by:
  7470 ;;		_USBCheckStdRequest
  7471 ;; This function uses a non-reentrant model
  7472 ;;
  7473                           
  7474                           
  7475                           ;psect for function _USBStdGetDscHandler
  7476  06E0                     _USBStdGetDscHandler:
  7477  06E0                     i1l3359:	
  7478                           ;incstack = 0
  7479                           ; Regs used in _USBStdGetDscHandler: [wreg-fsr0h+status,2+status,0+pclath]
  7480                           
  7481                           
  7482                           ;mcc_generated_files/usb/usb_device.c: 2049:     if(SetupPkt.bmRequestType == 0x80)
  7483  06E0  3080               	movlw	128
  7484  06E1  0020               	movlb	0	; select bank0
  7485  06E2  0650               	xorwf	80,w	;volatile
  7486  06E3  1D03               	btfss	3,2
  7487  06E4  2EE6               	goto	u200_21
  7488  06E5  2EE7               	goto	u200_20
  7489  06E6                     u200_21:
  7490  06E6  2F6A               	goto	i1l327
  7491  06E7                     u200_20:
  7492  06E7                     i1l3361:
  7493                           
  7494                           ;mcc_generated_files/usb/usb_device.c: 2050:     {;mcc_generated_files/usb/usb_device.c:
      +                           2051:         inPipes[0].info.Val = 0x00 | 0x80 | 0x40;
  7495  06E7  30C0               	movlw	192
  7496  06E8  00F0               	movwf	??_USBStdGetDscHandler
  7497  06E9  0870               	movf	??_USBStdGetDscHandler,w
  7498  06EA  0021               	movlb	1	; select bank1
  7499  06EB  00C0               	movwf	(_inPipes^(0+128)+2)	;volatile
  7500                           
  7501                           ;mcc_generated_files/usb/usb_device.c: 2053:         switch(SetupPkt.bDescriptorType)
  7502  06EC  2F56               	goto	i1l3389
  7503  06ED                     i1l3363:
  7504                           
  7505                           ;mcc_generated_files/usb/usb_device.c: 2059:                     inPipes[0].pSrc.bRom = 
      +                          (const uint8_t*)&device_dsc;
  7506  06ED  3091               	movlw	low (_device_dsc| (0+32768))
  7507  06EE  0021               	movlb	1	; select bank1
  7508  06EF  00BE               	movwf	_inPipes^(0+128)	;volatile
  7509  06F0  3090               	movlw	high (_device_dsc| (0+32768))
  7510  06F1  00BF               	movwf	(_inPipes^(0+128)+1)	;volatile
  7511  06F2                     i1l3365:
  7512                           
  7513                           ;mcc_generated_files/usb/usb_device.c: 2061:                 inPipes[0].wCount.Val = siz
      +                          eof(device_dsc);
  7514  06F2  3000               	movlw	0
  7515  06F3  00C2               	movwf	((_inPipes+1)^(0+128)+3)	;volatile
  7516  06F4  3012               	movlw	18
  7517  06F5  00C1               	movwf	(_inPipes^(0+128)+3)	;volatile
  7518                           
  7519                           ;mcc_generated_files/usb/usb_device.c: 2062:                 break;
  7520  06F6  2F6A               	goto	i1l327
  7521  06F7                     i1l3367:
  7522                           
  7523                           ;mcc_generated_files/usb/usb_device.c: 2067:                 if(SetupPkt.bDscIndex < 1)
  7524  06F7  0852               	movf	82,w	;volatile
  7525  06F8  1D03               	btfss	3,2
  7526  06F9  2EFB               	goto	u201_21
  7527  06FA  2EFC               	goto	u201_20
  7528  06FB                     u201_21:
  7529  06FB  2F2B               	goto	i1l3375
  7530  06FC                     u201_20:
  7531  06FC                     i1l3369:
  7532                           
  7533                           ;mcc_generated_files/usb/usb_device.c: 2068:                 {;mcc_generated_files/usb/u
      +                          sb_device.c: 2072:                         inPipes[0].pSrc.bRom = *(USB_CD_Ptr+SetupPkt.
      +                          bDscIndex);
  7534  06FC  0852               	movf	82,w	;volatile
  7535  06FD  00F0               	movwf	??_USBStdGetDscHandler
  7536  06FE  01F1               	clrf	??_USBStdGetDscHandler+1
  7537  06FF  35F0               	lslf	??_USBStdGetDscHandler,f
  7538  0700  0DF1               	rlf	??_USBStdGetDscHandler+1,f
  7539  0701  30B1               	movlw	low (_USB_CD_Ptr| (0+32768))
  7540  0702  0770               	addwf	??_USBStdGetDscHandler,w
  7541  0703  0084               	movwf	4
  7542  0704  3090               	movlw	high (_USB_CD_Ptr| (0+32768))
  7543  0705  3D71               	addwfc	??_USBStdGetDscHandler+1,w
  7544  0706  0085               	movwf	5
  7545  0707  3F00               	moviw [0]fsr0
  7546  0708  0021               	movlb	1	; select bank1
  7547  0709  00BE               	movwf	_inPipes^(0+128)	;volatile
  7548  070A  3F01               	moviw [1]fsr0
  7549  070B  00BF               	movwf	(_inPipes+1)^(0+128)	;volatile
  7550  070C                     i1l3371:
  7551                           
  7552                           ;mcc_generated_files/usb/usb_device.c: 2078:                     inPipes[0].wCount.byte.
      +                          LB = *(inPipes[0].pSrc.bRom+2);
  7553  070C  083F               	movf	(_inPipes+1)^(0+128),w	;volatile
  7554  070D  00F1               	movwf	??_USBStdGetDscHandler+1
  7555  070E  083E               	movf	_inPipes^(0+128),w	;volatile
  7556  070F  00F0               	movwf	??_USBStdGetDscHandler
  7557  0710  3002               	movlw	2
  7558  0711  0770               	addwf	??_USBStdGetDscHandler,w
  7559  0712  0084               	movwf	4
  7560  0713  0871               	movf	??_USBStdGetDscHandler+1,w
  7561  0714  1803               	skipnc
  7562  0715  0A71               	incf	??_USBStdGetDscHandler+1,w
  7563  0716  0085               	movwf	5
  7564  0717  0800               	movf	0,w	;code access
  7565  0718  00F2               	movwf	??_USBStdGetDscHandler+2
  7566  0719  0872               	movf	??_USBStdGetDscHandler+2,w
  7567  071A  00C1               	movwf	(_inPipes^(0+128)+3)	;volatile
  7568  071B                     i1l3373:
  7569                           
  7570                           ;mcc_generated_files/usb/usb_device.c: 2079:                     inPipes[0].wCount.byte.
      +                          HB = *(inPipes[0].pSrc.bRom+3);
  7571  071B  083F               	movf	(_inPipes+1)^(0+128),w	;volatile
  7572  071C  00F1               	movwf	??_USBStdGetDscHandler+1
  7573  071D  083E               	movf	_inPipes^(0+128),w	;volatile
  7574  071E  00F0               	movwf	??_USBStdGetDscHandler
  7575  071F  3003               	movlw	3
  7576  0720  0770               	addwf	??_USBStdGetDscHandler,w
  7577  0721  0084               	movwf	4
  7578  0722  0871               	movf	??_USBStdGetDscHandler+1,w
  7579  0723  1803               	skipnc
  7580  0724  0A71               	incf	??_USBStdGetDscHandler+1,w
  7581  0725  0085               	movwf	5
  7582  0726  0800               	movf	0,w	;code access
  7583  0727  00F2               	movwf	??_USBStdGetDscHandler+2
  7584  0728  0872               	movf	??_USBStdGetDscHandler+2,w
  7585  0729  00C2               	movwf	(_inPipes^(0+128)+4)	;volatile
  7586                           
  7587                           ;mcc_generated_files/usb/usb_device.c: 2080:                 }
  7588  072A  2F6A               	goto	i1l327
  7589  072B                     i1l3375:
  7590                           
  7591                           ;mcc_generated_files/usb/usb_device.c: 2082:     {;mcc_generated_files/usb/usb_device.c:
      +                           2083:      inPipes[0].info.Val = 0;
  7592  072B  0021               	movlb	1	; select bank1
  7593  072C  01C0               	clrf	(_inPipes^(0+128)+2)	;volatile
  7594  072D  2F6A               	goto	i1l327
  7595  072E                     i1l3377:
  7596                           
  7597                           ;mcc_generated_files/usb/usb_device.c: 2090:                 if(SetupPkt.bDscIndex<3)
  7598  072E  3003               	movlw	3
  7599  072F  0252               	subwf	82,w	;volatile
  7600  0730  1803               	skipnc
  7601  0731  2F33               	goto	u202_21
  7602  0732  2F34               	goto	u202_20
  7603  0733                     u202_21:
  7604  0733  2F50               	goto	i1l3383
  7605  0734                     u202_20:
  7606  0734                     i1l3379:
  7607                           
  7608                           ;mcc_generated_files/usb/usb_device.c: 2091:                 {;mcc_generated_files/usb/u
      +                          sb_device.c: 2093:                     inPipes[0].pSrc.bRom = *(USB_SD_Ptr+SetupPkt.bDsc
      +                          Index);
  7609  0734  0852               	movf	82,w	;volatile
  7610  0735  00F0               	movwf	??_USBStdGetDscHandler
  7611  0736  01F1               	clrf	??_USBStdGetDscHandler+1
  7612  0737  35F0               	lslf	??_USBStdGetDscHandler,f
  7613  0738  0DF1               	rlf	??_USBStdGetDscHandler+1,f
  7614  0739  30AB               	movlw	low (_USB_SD_Ptr| (0+32768))
  7615  073A  0770               	addwf	??_USBStdGetDscHandler,w
  7616  073B  0084               	movwf	4
  7617  073C  3090               	movlw	high (_USB_SD_Ptr| (0+32768))
  7618  073D  3D71               	addwfc	??_USBStdGetDscHandler+1,w
  7619  073E  0085               	movwf	5
  7620  073F  3F00               	moviw [0]fsr0
  7621  0740  0021               	movlb	1	; select bank1
  7622  0741  00BE               	movwf	_inPipes^(0+128)	;volatile
  7623  0742  3F01               	moviw [1]fsr0
  7624  0743  00BF               	movwf	(_inPipes+1)^(0+128)	;volatile
  7625  0744                     i1l3381:
  7626                           
  7627                           ;mcc_generated_files/usb/usb_device.c: 2095:                     inPipes[0].wCount.Val =
      +                           *inPipes[0].pSrc.bRom;
  7628  0744  083E               	movf	_inPipes^(0+128),w	;volatile
  7629  0745  0084               	movwf	4
  7630  0746  083F               	movf	(_inPipes+1)^(0+128),w	;volatile
  7631  0747  0085               	movwf	5
  7632  0748  0800               	movf	0,w	;code access
  7633  0749  00F0               	movwf	??_USBStdGetDscHandler
  7634  074A  01F1               	clrf	??_USBStdGetDscHandler+1
  7635  074B  0870               	movf	??_USBStdGetDscHandler,w
  7636  074C  00C1               	movwf	(_inPipes^(0+128)+3)	;volatile
  7637  074D  0871               	movf	??_USBStdGetDscHandler+1,w
  7638  074E  00C2               	movwf	((_inPipes+1)^(0+128)+3)	;volatile
  7639                           
  7640                           ;mcc_generated_files/usb/usb_device.c: 2096:                 }
  7641  074F  2F6A               	goto	i1l327
  7642  0750                     i1l3383:
  7643                           
  7644                           ;mcc_generated_files/usb/usb_device.c: 2107:                 {;mcc_generated_files/usb/u
      +                          sb_device.c: 2108:                     inPipes[0].info.Val = 0;
  7645  0750  0021               	movlb	1	; select bank1
  7646  0751  01C0               	clrf	(_inPipes^(0+128)+2)	;volatile
  7647  0752  2F6A               	goto	i1l327
  7648  0753                     i1l3385:
  7649                           
  7650                           ;mcc_generated_files/usb/usb_device.c: 2112:                 inPipes[0].info.Val = 0;
  7651  0753  0021               	movlb	1	; select bank1
  7652  0754  01C0               	clrf	(_inPipes^(0+128)+2)	;volatile
  7653                           
  7654                           ;mcc_generated_files/usb/usb_device.c: 2113:                 break;
  7655  0755  2F6A               	goto	i1l327
  7656  0756                     i1l3389:
  7657  0756  0020               	movlb	0	; select bank0
  7658  0757  0853               	movf	83,w	;volatile
  7659  0758  00F0               	movwf	??_USBStdGetDscHandler
  7660  0759  01F1               	clrf	??_USBStdGetDscHandler+1
  7661                           
  7662                           ; Switch on 2 bytes has been partitioned into a top level switch of size 1, and 1 sub-sw
      +                          itches
  7663                           ; Switch size 1, requested type "simple"
  7664                           ; Number of cases is 1, Range of values is 0 to 0
  7665                           ; switch strategies available:
  7666                           ; Name         Instructions Cycles
  7667                           ; simple_byte            4     3 (average)
  7668                           ; direct_byte            8     6 (fixed)
  7669                           ; jumptable            260     6 (fixed)
  7670                           ;	Chosen strategy is simple_byte
  7671  075A  0871               	movf	??_USBStdGetDscHandler+1,w
  7672  075B  3A00               	xorlw	0	; case 0
  7673  075C  1903               	skipnz
  7674  075D  2F5F               	goto	i1l5287
  7675  075E  2F53               	goto	i1l3385
  7676  075F                     i1l5287:
  7677                           
  7678                           ; Switch size 1, requested type "simple"
  7679                           ; Number of cases is 3, Range of values is 1 to 3
  7680                           ; switch strategies available:
  7681                           ; Name         Instructions Cycles
  7682                           ; simple_byte           10     6 (average)
  7683                           ; direct_byte           15     9 (fixed)
  7684                           ; jumptable            263     9 (fixed)
  7685                           ;	Chosen strategy is simple_byte
  7686  075F  0870               	movf	??_USBStdGetDscHandler,w
  7687  0760  3A01               	xorlw	1	; case 1
  7688  0761  1903               	skipnz
  7689  0762  2EED               	goto	i1l3363
  7690  0763  3A03               	xorlw	3	; case 2
  7691  0764  1903               	skipnz
  7692  0765  2EF7               	goto	i1l3367
  7693  0766  3A01               	xorlw	1	; case 3
  7694  0767  1903               	skipnz
  7695  0768  2F2E               	goto	i1l3377
  7696  0769  2F53               	goto	i1l3385
  7697  076A                     i1l327:
  7698  076A  0008               	return
  7699  076B                     __end_of_USBStdGetDscHandler:
  7700                           
  7701                           	psect	text36
  7702  0061                     __ptext36:	
  7703 ;; *************** function _USBStdFeatureReqHandler *****************
  7704 ;; Defined at:
  7705 ;;		line 2758 in file "mcc_generated_files/usb/usb_device.c"
  7706 ;; Parameters:    Size  Location     Type
  7707 ;;		None
  7708 ;; Auto vars:     Size  Location     Type
  7709 ;;  p               2   11[BANK0 ] PTR struct __BDT
  7710 ;;		 -> RAM(4096), NULL(0), BDT(48), 
  7711 ;;  pUEP            2    8[BANK0 ] PTR unsigned char 
  7712 ;;		 -> UEP0(1), 
  7713 ;;  current_ep_d    1   10[BANK0 ] struct .
  7714 ;; Return value:  Size  Location     Type
  7715 ;;                  1    wreg      void 
  7716 ;; Registers used:
  7717 ;;		wreg, fsr0l, fsr0h, fsr1l, fsr1h, status,2, status,0, pclath, cstack
  7718 ;; Tracked objects:
  7719 ;;		On entry : 0/0
  7720 ;;		On exit  : 0/0
  7721 ;;		Unchanged: 0/0
  7722 ;; Data sizes:     COMMON   BANK0   BANK1   BANK2   BANK3   BANK4   BANK5   BANK6   BANK7   BANK8   BANK9  BANK10  BANK1
      +1  BANK12
  7723 ;;      Params:         0       0       0       0       0       0       0       0       0       0       0       0       
      +0       0
  7724 ;;      Locals:         0       5       0       0       0       0       0       0       0       0       0       0       
      +0       0
  7725 ;;      Temps:          0       2       0       0       0       0       0       0       0       0       0       0       
      +0       0
  7726 ;;      Totals:         0       7       0       0       0       0       0       0       0       0       0       0       
      +0       0
  7727 ;;Total ram usage:        7 bytes
  7728 ;; Hardware stack levels used: 1
  7729 ;; Hardware stack levels required when called: 4
  7730 ;; This function calls:
  7731 ;;		_USER_USB_CALLBACK_EVENT_HANDLER
  7732 ;; This function is called by:
  7733 ;;		_USBCheckStdRequest
  7734 ;; This function uses a non-reentrant model
  7735 ;;
  7736                           
  7737                           
  7738                           ;psect for function _USBStdFeatureReqHandler
  7739  0061                     _USBStdFeatureReqHandler:
  7740  0061                     i1l3427:	
  7741                           ;incstack = 0
  7742                           ; Regs used in _USBStdFeatureReqHandler: [wreg-fsr1h+status,2+status,0+pclath+cstack]
  7743                           
  7744                           
  7745                           ;mcc_generated_files/usb/usb_device.c: 2760:     BDT_ENTRY *p;;mcc_generated_files/usb/u
      +                          sb_device.c: 2761:     EP_STATUS current_ep_data;;mcc_generated_files/usb/usb_device.c: 
      +                          2765:         unsigned char* pUEP;;mcc_generated_files/usb/usb_device.c: 2803:     if((S
      +                          etupPkt.bFeature == 1)&&
  7746  0061  0020               	movlb	0	; select bank0
  7747  0062  0352               	decf	82,w	;volatile
  7748  0063  1D03               	btfss	3,2
  7749  0064  2866               	goto	u208_21
  7750  0065  2867               	goto	u208_20
  7751  0066                     u208_21:
  7752  0066  287F               	goto	i1l3439
  7753  0067                     u208_20:
  7754  0067                     i1l3429:
  7755  0067  0850               	movf	80,w	;volatile
  7756  0068  391F               	andlw	31
  7757  0069  3A00               	xorlw	0
  7758  006A  1D03               	skipz
  7759  006B  286D               	goto	u209_21
  7760  006C  286E               	goto	u209_20
  7761  006D                     u209_21:
  7762  006D  287F               	goto	i1l3439
  7763  006E                     u209_20:
  7764  006E                     i1l3431:
  7765                           
  7766                           ;mcc_generated_files/usb/usb_device.c: 2805:     {;mcc_generated_files/usb/usb_device.c:
      +                           2806:         inPipes[0].info.bits.busy = 1;
  7767  006E  0021               	movlb	1	; select bank1
  7768  006F  17C0               	bsf	(_inPipes^(0+128)+2),7	;volatile
  7769  0070                     i1l3433:
  7770                           
  7771                           ;mcc_generated_files/usb/usb_device.c: 2807:         if(SetupPkt.bRequest == 3)
  7772  0070  3003               	movlw	3
  7773  0071  0020               	movlb	0	; select bank0
  7774  0072  0651               	xorwf	81,w	;volatile
  7775  0073  1D03               	btfss	3,2
  7776  0074  2876               	goto	u210_21
  7777  0075  2877               	goto	u210_20
  7778  0076                     u210_21:
  7779  0076  287D               	goto	i1l3437
  7780  0077                     u210_20:
  7781  0077                     i1l3435:
  7782                           
  7783                           ;mcc_generated_files/usb/usb_device.c: 2808:             RemoteWakeup = 1;
  7784  0077  3001               	movlw	1
  7785  0078  00E6               	movwf	??_USBStdFeatureReqHandler
  7786  0079  0866               	movf	??_USBStdFeatureReqHandler,w
  7787  007A  0023               	movlb	3	; select bank3
  7788  007B  00EB               	movwf	_RemoteWakeup^(0+384)	;volatile
  7789  007C  287F               	goto	i1l3439
  7790  007D                     i1l3437:
  7791                           
  7792                           ;mcc_generated_files/usb/usb_device.c: 2810:             RemoteWakeup = 0;
  7793  007D  0023               	movlb	3	; select bank3
  7794  007E  01EB               	clrf	_RemoteWakeup^(0+384)	;volatile
  7795  007F                     i1l3439:
  7796                           
  7797                           ;mcc_generated_files/usb/usb_device.c: 2814:     if((SetupPkt.bFeature == 0)&&
  7798  007F  0020               	movlb	0	; select bank0
  7799  0080  0852               	movf	82,w	;volatile
  7800  0081  1D03               	btfss	3,2
  7801  0082  2884               	goto	u211_21
  7802  0083  2885               	goto	u211_20
  7803  0084                     u211_21:
  7804  0084  29BA               	goto	i1l431
  7805  0085                     u211_20:
  7806  0085                     i1l3441:
  7807  0085  0850               	movf	80,w	;volatile
  7808  0086  391F               	andlw	31
  7809  0087  3A02               	xorlw	2
  7810  0088  1D03               	skipz
  7811  0089  288B               	goto	u212_21
  7812  008A  288C               	goto	u212_20
  7813  008B                     u212_21:
  7814  008B  29BA               	goto	i1l431
  7815  008C                     u212_20:
  7816  008C                     i1l3443:
  7817  008C  0854               	movf	84,w	;volatile
  7818  008D  390F               	andlw	15
  7819  008E  3A00               	xorlw	0
  7820  008F  1903               	skipnz
  7821  0090  2892               	goto	u213_21
  7822  0091  2893               	goto	u213_20
  7823  0092                     u213_21:
  7824  0092  29BA               	goto	i1l431
  7825  0093                     u213_20:
  7826  0093                     i1l3445:
  7827  0093  0854               	movf	84,w	;volatile
  7828  0094  390F               	andlw	15
  7829  0095  00E6               	movwf	??_USBStdFeatureReqHandler
  7830  0096  3003               	movlw	3
  7831  0097  0266               	subwf	??_USBStdFeatureReqHandler,w
  7832  0098  1803               	skipnc
  7833  0099  289B               	goto	u214_21
  7834  009A  289C               	goto	u214_20
  7835  009B                     u214_21:
  7836  009B  29BA               	goto	i1l431
  7837  009C                     u214_20:
  7838  009C                     i1l3447:
  7839  009C  3020               	movlw	32
  7840  009D  0021               	movlb	1	; select bank1
  7841  009E  0648               	xorwf	_USBDeviceState^(0+128),w	;volatile
  7842  009F  1D03               	btfss	3,2
  7843  00A0  28A2               	goto	u215_21
  7844  00A1  28A3               	goto	u215_20
  7845  00A2                     u215_21:
  7846  00A2  29BA               	goto	i1l431
  7847  00A3                     u215_20:
  7848  00A3                     i1l3449:
  7849                           
  7850                           ;mcc_generated_files/usb/usb_device.c: 2818:     {;mcc_generated_files/usb/usb_device.c:
      +                           2821:   inPipes[0].info.bits.busy = 1;
  7851  00A3  17C0               	bsf	(_inPipes^(0+128)+2),7	;volatile
  7852                           
  7853                           ;mcc_generated_files/usb/usb_device.c: 2824:         if(SetupPkt.EPDir == 0)
  7854  00A4  0020               	movlb	0	; select bank0
  7855  00A5  1BD4               	btfsc	84,7	;volatile
  7856  00A6  28A8               	goto	u216_21
  7857  00A7  28A9               	goto	u216_20
  7858  00A8                     u216_21:
  7859  00A8  28BF               	goto	i1l3453
  7860  00A9                     u216_20:
  7861  00A9                     i1l3451:
  7862                           
  7863                           ;mcc_generated_files/usb/usb_device.c: 2825:         {;mcc_generated_files/usb/usb_devic
      +                          e.c: 2826:             p = (BDT_ENTRY*)pBDTEntryOut[SetupPkt.EPNum];
  7864  00A9  0854               	movf	84,w	;volatile
  7865  00AA  390F               	andlw	15
  7866  00AB  0709               	addwf	9,w
  7867  00AC  3EBD               	addlw	(low (_pBDTEntryOut| (0+256)))& (0+255)
  7868  00AD  0086               	movwf	6
  7869  00AE  3001               	movlw	1	; select bank3/4
  7870  00AF  0087               	movwf	7
  7871  00B0  3F40               	moviw [0]fsr1
  7872  00B1  00EB               	movwf	USBStdFeatureReqHandler@p
  7873  00B2  3F41               	moviw [1]fsr1
  7874  00B3  00EC               	movwf	USBStdFeatureReqHandler@p+1
  7875                           
  7876                           ;mcc_generated_files/usb/usb_device.c: 2827:             current_ep_data.Val = ep_data_o
      +                          ut[SetupPkt.EPNum].Val;
  7877  00B4  0854               	movf	84,w	;volatile
  7878  00B5  390F               	andlw	15
  7879  00B6  3EC7               	addlw	(low (_ep_data_out| (0+256)))& (0+255)
  7880  00B7  0086               	movwf	6
  7881  00B8  3001               	movlw	1	; select bank3/4
  7882  00B9  0087               	movwf	7
  7883  00BA  0801               	movf	1,w
  7884  00BB  00E6               	movwf	??_USBStdFeatureReqHandler
  7885  00BC  0866               	movf	??_USBStdFeatureReqHandler,w
  7886  00BD  00EA               	movwf	USBStdFeatureReqHandler@current_ep_data
  7887                           
  7888                           ;mcc_generated_files/usb/usb_device.c: 2828:         }
  7889  00BE  28D4               	goto	i1l3455
  7890  00BF                     i1l3453:
  7891                           
  7892                           ;mcc_generated_files/usb/usb_device.c: 2830:         {;mcc_generated_files/usb/usb_devic
      +                          e.c: 2831:             p = (BDT_ENTRY*)pBDTEntryIn[SetupPkt.EPNum];
  7893  00BF  0854               	movf	84,w	;volatile
  7894  00C0  390F               	andlw	15
  7895  00C1  0709               	addwf	9,w
  7896  00C2  3EB7               	addlw	(low (_pBDTEntryIn| (0+256)))& (0+255)
  7897  00C3  0086               	movwf	6
  7898  00C4  3001               	movlw	1	; select bank3/4
  7899  00C5  0087               	movwf	7
  7900  00C6  3F40               	moviw [0]fsr1
  7901  00C7  00EB               	movwf	USBStdFeatureReqHandler@p
  7902  00C8  3F41               	moviw [1]fsr1
  7903  00C9  00EC               	movwf	USBStdFeatureReqHandler@p+1
  7904                           
  7905                           ;mcc_generated_files/usb/usb_device.c: 2832:             current_ep_data.Val = ep_data_i
      +                          n[SetupPkt.EPNum].Val;
  7906  00CA  0854               	movf	84,w	;volatile
  7907  00CB  390F               	andlw	15
  7908  00CC  3ECA               	addlw	(low (_ep_data_in| (0+256)))& (0+255)
  7909  00CD  0086               	movwf	6
  7910  00CE  3001               	movlw	1	; select bank3/4
  7911  00CF  0087               	movwf	7
  7912  00D0  0801               	movf	1,w
  7913  00D1  00E6               	movwf	??_USBStdFeatureReqHandler
  7914  00D2  0866               	movf	??_USBStdFeatureReqHandler,w
  7915  00D3  00EA               	movwf	USBStdFeatureReqHandler@current_ep_data
  7916  00D4                     i1l3455:
  7917                           
  7918                           ;mcc_generated_files/usb/usb_device.c: 2839:             if(current_ep_data.bits.ping_po
      +                          ng_state == 0)
  7919  00D4  186A               	btfsc	USBStdFeatureReqHandler@current_ep_data,0
  7920  00D5  28D7               	goto	u217_21
  7921  00D6  28D8               	goto	u217_20
  7922  00D7                     u217_21:
  7923  00D7  28E3               	goto	i1l3459
  7924  00D8                     u217_20:
  7925  00D8                     i1l3457:
  7926                           
  7927                           ;mcc_generated_files/usb/usb_device.c: 2840:             {;mcc_generated_files/usb/usb_d
      +                          evice.c: 2841:                 p = (BDT_ENTRY*)(((uint16_t)p) & (~0x0004));
  7928  00D8  30FB               	movlw	251
  7929  00D9  00E6               	movwf	??_USBStdFeatureReqHandler
  7930  00DA  30FF               	movlw	255
  7931  00DB  00E7               	movwf	??_USBStdFeatureReqHandler+1
  7932  00DC  086B               	movf	USBStdFeatureReqHandler@p,w
  7933  00DD  0566               	andwf	??_USBStdFeatureReqHandler,w
  7934  00DE  00EB               	movwf	USBStdFeatureReqHandler@p
  7935  00DF  086C               	movf	USBStdFeatureReqHandler@p+1,w
  7936  00E0  0567               	andwf	??_USBStdFeatureReqHandler+1,w
  7937  00E1  00EC               	movwf	USBStdFeatureReqHandler@p+1
  7938                           
  7939                           ;mcc_generated_files/usb/usb_device.c: 2842:             }
  7940  00E2  28E9               	goto	i1l3461
  7941  00E3                     i1l3459:
  7942                           
  7943                           ;mcc_generated_files/usb/usb_device.c: 2844:             {;mcc_generated_files/usb/usb_d
      +                          evice.c: 2845:                 p = (BDT_ENTRY*)(((uint16_t)p) | 0x0004);
  7944  00E3  3004               	movlw	4
  7945  00E4  046B               	iorwf	USBStdFeatureReqHandler@p,w
  7946  00E5  00EB               	movwf	USBStdFeatureReqHandler@p
  7947  00E6  3000               	movlw	0
  7948  00E7  046C               	iorwf	USBStdFeatureReqHandler@p+1,w
  7949  00E8  00EC               	movwf	USBStdFeatureReqHandler@p+1
  7950  00E9                     i1l3461:
  7951                           
  7952                           ;mcc_generated_files/usb/usb_device.c: 2851:         if(SetupPkt.EPDir == 0)
  7953  00E9  1BD4               	btfsc	84,7	;volatile
  7954  00EA  28EC               	goto	u218_21
  7955  00EB  28ED               	goto	u218_20
  7956  00EC                     u218_21:
  7957  00EC  28F9               	goto	i1l3465
  7958  00ED                     u218_20:
  7959  00ED                     i1l3463:
  7960                           
  7961                           ;mcc_generated_files/usb/usb_device.c: 2852:         {;mcc_generated_files/usb/usb_devic
      +                          e.c: 2853:             pBDTEntryOut[SetupPkt.EPNum] = (volatile BDT_ENTRY *)p;
  7962  00ED  0854               	movf	84,w	;volatile
  7963  00EE  390F               	andlw	15
  7964  00EF  0709               	addwf	9,w
  7965  00F0  3EBD               	addlw	(low (_pBDTEntryOut| (0+256)))& (0+255)
  7966  00F1  0086               	movwf	6
  7967  00F2  3001               	movlw	1	; select bank3/4
  7968  00F3  0087               	movwf	7
  7969  00F4  086B               	movf	USBStdFeatureReqHandler@p,w
  7970  00F5  3FC0               	movwi [0]fsr1
  7971  00F6  086C               	movf	USBStdFeatureReqHandler@p+1,w
  7972  00F7  3FC1               	movwi [1]fsr1
  7973                           
  7974                           ;mcc_generated_files/usb/usb_device.c: 2854:         }
  7975  00F8  2904               	goto	i1l3467
  7976  00F9                     i1l3465:
  7977                           
  7978                           ;mcc_generated_files/usb/usb_device.c: 2856:         {;mcc_generated_files/usb/usb_devic
      +                          e.c: 2857:             pBDTEntryIn[SetupPkt.EPNum] = (volatile BDT_ENTRY *)p;
  7979  00F9  0854               	movf	84,w	;volatile
  7980  00FA  390F               	andlw	15
  7981  00FB  0709               	addwf	9,w
  7982  00FC  3EB7               	addlw	(low (_pBDTEntryIn| (0+256)))& (0+255)
  7983  00FD  0086               	movwf	6
  7984  00FE  3001               	movlw	1	; select bank3/4
  7985  00FF  0087               	movwf	7
  7986  0100  086B               	movf	USBStdFeatureReqHandler@p,w
  7987  0101  3FC0               	movwi [0]fsr1
  7988  0102  086C               	movf	USBStdFeatureReqHandler@p+1,w
  7989  0103  3FC1               	movwi [1]fsr1
  7990  0104                     i1l3467:
  7991                           
  7992                           ;mcc_generated_files/usb/usb_device.c: 2861:         if(SetupPkt.bRequest == 3)
  7993  0104  3003               	movlw	3
  7994  0105  0651               	xorwf	81,w	;volatile
  7995  0106  1D03               	btfss	3,2
  7996  0107  2909               	goto	u219_21
  7997  0108  290A               	goto	u219_20
  7998  0109                     u219_21:
  7999  0109  2930               	goto	i1l3481
  8000  010A                     u219_20:
  8001  010A                     i1l3469:
  8002                           
  8003                           ;mcc_generated_files/usb/usb_device.c: 2862:         {;mcc_generated_files/usb/usb_devic
      +                          e.c: 2863:             if(p->STAT.UOWN == 1)
  8004  010A  086B               	movf	USBStdFeatureReqHandler@p,w
  8005  010B  0086               	movwf	6
  8006  010C  086C               	movf	USBStdFeatureReqHandler@p+1,w
  8007  010D  0087               	movwf	7
  8008  010E  1F81               	btfss	1,7
  8009  010F  2911               	goto	u220_21
  8010  0110  2912               	goto	u220_20
  8011  0111                     u220_21:
  8012  0111  2925               	goto	i1l3477
  8013  0112                     u220_20:
  8014  0112                     i1l3471:
  8015                           
  8016                           ;mcc_generated_files/usb/usb_device.c: 2864:             {;mcc_generated_files/usb/usb_d
      +                          evice.c: 2867:                 if(SetupPkt.EPDir == 0)
  8017  0112  1BD4               	btfsc	84,7	;volatile
  8018  0113  2915               	goto	u221_21
  8019  0114  2916               	goto	u221_20
  8020  0115                     u221_21:
  8021  0115  291E               	goto	i1l3475
  8022  0116                     u221_20:
  8023  0116                     i1l3473:
  8024                           
  8025                           ;mcc_generated_files/usb/usb_device.c: 2868:                 {;mcc_generated_files/usb/u
      +                          sb_device.c: 2869:                     ep_data_out[SetupPkt.EPNum].bits.transfer_termina
      +                          ted = 1;
  8026  0116  0854               	movf	84,w	;volatile
  8027  0117  390F               	andlw	15
  8028  0118  3EC7               	addlw	(low (_ep_data_out| (0+256)))& (0+255)
  8029  0119  0086               	movwf	6
  8030  011A  3001               	movlw	1	; select bank3/4
  8031  011B  0087               	movwf	7
  8032  011C  1481               	bsf	1,1
  8033                           
  8034                           ;mcc_generated_files/usb/usb_device.c: 2870:                 }
  8035  011D  2925               	goto	i1l3477
  8036  011E                     i1l3475:
  8037                           
  8038                           ;mcc_generated_files/usb/usb_device.c: 2872:                 {;mcc_generated_files/usb/u
      +                          sb_device.c: 2873:                     ep_data_in[SetupPkt.EPNum].bits.transfer_terminat
      +                          ed = 1;
  8039  011E  0854               	movf	84,w	;volatile
  8040  011F  390F               	andlw	15
  8041  0120  3ECA               	addlw	(low (_ep_data_in| (0+256)))& (0+255)
  8042  0121  0086               	movwf	6
  8043  0122  3001               	movlw	1	; select bank3/4
  8044  0123  0087               	movwf	7
  8045  0124  1481               	bsf	1,1
  8046  0125                     i1l3477:
  8047                           
  8048                           ;mcc_generated_files/usb/usb_device.c: 2878:             p->STAT.Val |= 0x04;
  8049  0125  086B               	movf	USBStdFeatureReqHandler@p,w
  8050  0126  0086               	movwf	6
  8051  0127  086C               	movf	USBStdFeatureReqHandler@p+1,w
  8052  0128  0087               	movwf	7
  8053  0129  1501               	bsf	1,2
  8054  012A                     i1l3479:
  8055                           
  8056                           ;mcc_generated_files/usb/usb_device.c: 2879:             p->STAT.Val |= 0x80;
  8057  012A  086B               	movf	USBStdFeatureReqHandler@p,w
  8058  012B  0086               	movwf	6
  8059  012C  086C               	movf	USBStdFeatureReqHandler@p+1,w
  8060  012D  0087               	movwf	7
  8061  012E  1781               	bsf	1,7
  8062                           
  8063                           ;mcc_generated_files/usb/usb_device.c: 2880:         }
  8064  012F  29BA               	goto	i1l431
  8065  0130                     i1l3481:
  8066                           
  8067                           ;mcc_generated_files/usb/usb_device.c: 2882:         {;mcc_generated_files/usb/usb_devic
      +                          e.c: 2886:                 p = (BDT_ENTRY*)(((uint16_t)p) ^ 0x0004);
  8068  0130  3004               	movlw	4
  8069  0131  066B               	xorwf	USBStdFeatureReqHandler@p,w
  8070  0132  00EB               	movwf	USBStdFeatureReqHandler@p
  8071  0133  3000               	movlw	0
  8072  0134  066C               	xorwf	USBStdFeatureReqHandler@p+1,w
  8073  0135  00EC               	movwf	USBStdFeatureReqHandler@p+1
  8074  0136                     i1l3483:
  8075                           
  8076                           ;mcc_generated_files/usb/usb_device.c: 2888:                 if(p->STAT.UOWN == 1)
  8077  0136  086B               	movf	USBStdFeatureReqHandler@p,w
  8078  0137  0086               	movwf	6
  8079  0138  086C               	movf	USBStdFeatureReqHandler@p+1,w
  8080  0139  0087               	movwf	7
  8081  013A  1F81               	btfss	1,7
  8082  013B  293D               	goto	u222_21
  8083  013C  293E               	goto	u222_20
  8084  013D                     u222_21:
  8085  013D  295B               	goto	i1l3491
  8086  013E                     u222_20:
  8087  013E                     i1l3485:
  8088                           
  8089                           ;mcc_generated_files/usb/usb_device.c: 2889:                 {;mcc_generated_files/usb/u
      +                          sb_device.c: 2892:                     p->STAT.Val &= (~0x80);
  8090  013E  307F               	movlw	127
  8091  013F  00E6               	movwf	??_USBStdFeatureReqHandler
  8092  0140  086B               	movf	USBStdFeatureReqHandler@p,w
  8093  0141  0086               	movwf	6
  8094  0142  086C               	movf	USBStdFeatureReqHandler@p+1,w
  8095  0143  0087               	movwf	7
  8096  0144  0866               	movf	??_USBStdFeatureReqHandler,w
  8097  0145  0581               	andwf	1,f
  8098  0146                     i1l3487:
  8099                           
  8100                           ;mcc_generated_files/usb/usb_device.c: 2893:                     p->STAT.Val |= 0x40;
  8101  0146  086B               	movf	USBStdFeatureReqHandler@p,w
  8102  0147  0086               	movwf	6
  8103  0148  086C               	movf	USBStdFeatureReqHandler@p+1,w
  8104  0149  0087               	movwf	7
  8105  014A  1701               	bsf	1,6
  8106  014B                     i1l3489:
  8107                           
  8108                           ;mcc_generated_files/usb/usb_device.c: 2894:                     USER_USB_CALLBACK_EVENT
      +                          _HANDLER((USB_EVENT)EVENT_TRANSFER_TERMINATED,p,sizeof(p));
  8109  014B  3005               	movlw	5
  8110  014C  00E0               	movwf	USER_USB_CALLBACK_EVENT_HANDLER@event
  8111  014D  3000               	movlw	0
  8112  014E  00E1               	movwf	USER_USB_CALLBACK_EVENT_HANDLER@event+1
  8113  014F  086C               	movf	USBStdFeatureReqHandler@p+1,w
  8114  0150  00E3               	movwf	USER_USB_CALLBACK_EVENT_HANDLER@pdata+1
  8115  0151  086B               	movf	USBStdFeatureReqHandler@p,w
  8116  0152  00E2               	movwf	USER_USB_CALLBACK_EVENT_HANDLER@pdata
  8117  0153  3002               	movlw	2
  8118  0154  00E4               	movwf	USER_USB_CALLBACK_EVENT_HANDLER@size
  8119  0155  3000               	movlw	0
  8120  0156  00E5               	movwf	USER_USB_CALLBACK_EVENT_HANDLER@size+1
  8121  0157  318A  2276  3180   	fcall	_USER_USB_CALLBACK_EVENT_HANDLER
  8122                           
  8123                           ;mcc_generated_files/usb/usb_device.c: 2895:                 }
  8124  015A  2960               	goto	i1l3493
  8125  015B                     i1l3491:
  8126                           
  8127                           ;mcc_generated_files/usb/usb_device.c: 2897:                 {;mcc_generated_files/usb/u
      +                          sb_device.c: 2899:      p->STAT.Val |= 0x40;
  8128  015B  086B               	movf	USBStdFeatureReqHandler@p,w
  8129  015C  0086               	movwf	6
  8130  015D  086C               	movf	USBStdFeatureReqHandler@p+1,w
  8131  015E  0087               	movwf	7
  8132  015F  1701               	bsf	1,6
  8133  0160                     i1l3493:
  8134                           
  8135                           ;mcc_generated_files/usb/usb_device.c: 2904:                 p = (BDT_ENTRY*)(((uint16_t
      +                          )p) ^ 0x0004);
  8136  0160  3004               	movlw	4
  8137  0161  0020               	movlb	0	; select bank0
  8138  0162  066B               	xorwf	USBStdFeatureReqHandler@p,w
  8139  0163  00EB               	movwf	USBStdFeatureReqHandler@p
  8140  0164  3000               	movlw	0
  8141  0165  066C               	xorwf	USBStdFeatureReqHandler@p+1,w
  8142  0166  00EC               	movwf	USBStdFeatureReqHandler@p+1
  8143  0167                     i1l3495:
  8144                           
  8145                           ;mcc_generated_files/usb/usb_device.c: 2910:                 if((current_ep_data.bits.tr
      +                          ansfer_terminated != 0) || (p->STAT.UOWN == 1))
  8146  0167  18EA               	btfsc	USBStdFeatureReqHandler@current_ep_data,1
  8147  0168  296A               	goto	u223_21
  8148  0169  296B               	goto	u223_20
  8149  016A                     u223_21:
  8150  016A  2973               	goto	i1l427
  8151  016B                     u223_20:
  8152  016B                     i1l3497:
  8153  016B  086B               	movf	USBStdFeatureReqHandler@p,w
  8154  016C  0086               	movwf	6
  8155  016D  086C               	movf	USBStdFeatureReqHandler@p+1,w
  8156  016E  0087               	movwf	7
  8157  016F  1F81               	btfss	1,7
  8158  0170  2972               	goto	u224_21
  8159  0171  2973               	goto	u224_20
  8160  0172                     u224_21:
  8161  0172  299E               	goto	i1l3505
  8162  0173                     u224_20:
  8163  0173                     i1l427:
  8164                           
  8165                           ;mcc_generated_files/usb/usb_device.c: 2911:                 {;mcc_generated_files/usb/u
      +                          sb_device.c: 2912:                     if(SetupPkt.EPDir == 0)
  8166  0173  1BD4               	btfsc	84,7	;volatile
  8167  0174  2976               	goto	u225_21
  8168  0175  2977               	goto	u225_20
  8169  0176                     u225_21:
  8170  0176  297F               	goto	i1l3501
  8171  0177                     u225_20:
  8172  0177                     i1l3499:
  8173                           
  8174                           ;mcc_generated_files/usb/usb_device.c: 2913:                     {;mcc_generated_files/u
      +                          sb/usb_device.c: 2914:                         ep_data_out[SetupPkt.EPNum].bits.transfer
      +                          _terminated = 0;
  8175  0177  0854               	movf	84,w	;volatile
  8176  0178  390F               	andlw	15
  8177  0179  3EC7               	addlw	(low (_ep_data_out| (0+256)))& (0+255)
  8178  017A  0086               	movwf	6
  8179  017B  3001               	movlw	1	; select bank3/4
  8180  017C  0087               	movwf	7
  8181  017D  1081               	bcf	1,1
  8182                           
  8183                           ;mcc_generated_files/usb/usb_device.c: 2915:                     }
  8184  017E  2986               	goto	i1l429
  8185  017F                     i1l3501:
  8186                           
  8187                           ;mcc_generated_files/usb/usb_device.c: 2917:                     {;mcc_generated_files/u
      +                          sb/usb_device.c: 2918:                         ep_data_in[SetupPkt.EPNum].bits.transfer_
      +                          terminated = 0;
  8188  017F  0854               	movf	84,w	;volatile
  8189  0180  390F               	andlw	15
  8190  0181  3ECA               	addlw	(low (_ep_data_in| (0+256)))& (0+255)
  8191  0182  0086               	movwf	6
  8192  0183  3001               	movlw	1	; select bank3/4
  8193  0184  0087               	movwf	7
  8194  0185  1081               	bcf	1,1
  8195  0186                     i1l429:	
  8196                           ;mcc_generated_files/usb/usb_device.c: 2919:                     }
  8197                           
  8198                           
  8199                           ;mcc_generated_files/usb/usb_device.c: 2921:                     p->STAT.Val &= ~(0x80 |
      +                           0x40 | 0x04);
  8200  0186  303B               	movlw	59
  8201  0187  00E6               	movwf	??_USBStdFeatureReqHandler
  8202  0188  086B               	movf	USBStdFeatureReqHandler@p,w
  8203  0189  0086               	movwf	6
  8204  018A  086C               	movf	USBStdFeatureReqHandler@p+1,w
  8205  018B  0087               	movwf	7
  8206  018C  0866               	movf	??_USBStdFeatureReqHandler,w
  8207  018D  0581               	andwf	1,f
  8208  018E                     i1l3503:
  8209                           
  8210                           ;mcc_generated_files/usb/usb_device.c: 2924:                     USER_USB_CALLBACK_EVENT
      +                          _HANDLER((USB_EVENT)EVENT_TRANSFER_TERMINATED,p,sizeof(p));
  8211  018E  3005               	movlw	5
  8212  018F  00E0               	movwf	USER_USB_CALLBACK_EVENT_HANDLER@event
  8213  0190  3000               	movlw	0
  8214  0191  00E1               	movwf	USER_USB_CALLBACK_EVENT_HANDLER@event+1
  8215  0192  086C               	movf	USBStdFeatureReqHandler@p+1,w
  8216  0193  00E3               	movwf	USER_USB_CALLBACK_EVENT_HANDLER@pdata+1
  8217  0194  086B               	movf	USBStdFeatureReqHandler@p,w
  8218  0195  00E2               	movwf	USER_USB_CALLBACK_EVENT_HANDLER@pdata
  8219  0196  3002               	movlw	2
  8220  0197  00E4               	movwf	USER_USB_CALLBACK_EVENT_HANDLER@size
  8221  0198  3000               	movlw	0
  8222  0199  00E5               	movwf	USER_USB_CALLBACK_EVENT_HANDLER@size+1
  8223  019A  318A  2276  3180   	fcall	_USER_USB_CALLBACK_EVENT_HANDLER
  8224                           
  8225                           ;mcc_generated_files/usb/usb_device.c: 2925:                 }
  8226  019D  29A6               	goto	i1l3507
  8227  019E                     i1l3505:
  8228                           
  8229                           ;mcc_generated_files/usb/usb_device.c: 2927:                 {;mcc_generated_files/usb/u
      +                          sb_device.c: 2929:                     p->STAT.Val &= ~(0x80 | 0x40 | 0x04);
  8230  019E  303B               	movlw	59
  8231  019F  00E6               	movwf	??_USBStdFeatureReqHandler
  8232  01A0  086B               	movf	USBStdFeatureReqHandler@p,w
  8233  01A1  0086               	movwf	6
  8234  01A2  086C               	movf	USBStdFeatureReqHandler@p+1,w
  8235  01A3  0087               	movwf	7
  8236  01A4  0866               	movf	??_USBStdFeatureReqHandler,w
  8237  01A5  0581               	andwf	1,f
  8238  01A6                     i1l3507:
  8239                           
  8240                           ;mcc_generated_files/usb/usb_device.c: 2977:                 pUEP = (unsigned char*)(&UE
      +                          P0+SetupPkt.EPNum);
  8241  01A6  0020               	movlb	0	; select bank0
  8242  01A7  0854               	movf	84,w	;volatile
  8243  01A8  390F               	andlw	15
  8244  01A9  3E98               	addlw	152
  8245  01AA  00E6               	movwf	??_USBStdFeatureReqHandler
  8246  01AB  01E7               	clrf	??_USBStdFeatureReqHandler+1
  8247  01AC  300E               	movlw	14
  8248  01AD  3DE7               	addwfc	??_USBStdFeatureReqHandler+1,f
  8249  01AE  0866               	movf	??_USBStdFeatureReqHandler,w
  8250  01AF  00E8               	movwf	USBStdFeatureReqHandler@pUEP
  8251  01B0  0867               	movf	??_USBStdFeatureReqHandler+1,w
  8252  01B1  00E9               	movwf	USBStdFeatureReqHandler@pUEP+1
  8253  01B2                     i1l3509:
  8254                           
  8255                           ;mcc_generated_files/usb/usb_device.c: 2981:             *pUEP &= ~0x0001;
  8256  01B2  30FE               	movlw	254
  8257  01B3  00E6               	movwf	??_USBStdFeatureReqHandler
  8258  01B4  0868               	movf	USBStdFeatureReqHandler@pUEP,w
  8259  01B5  0086               	movwf	6
  8260  01B6  0869               	movf	USBStdFeatureReqHandler@pUEP+1,w
  8261  01B7  0087               	movwf	7
  8262  01B8  0866               	movf	??_USBStdFeatureReqHandler,w
  8263  01B9  0581               	andwf	1,f
  8264  01BA                     i1l431:
  8265  01BA  0008               	return
  8266  01BB                     __end_of_USBStdFeatureReqHandler:
  8267                           
  8268                           	psect	text37
  8269  0A76                     __ptext37:	
  8270 ;; *************** function _USER_USB_CALLBACK_EVENT_HANDLER *****************
  8271 ;; Defined at:
  8272 ;;		line 49 in file "mcc_generated_files/usb/usb_device_events.c"
  8273 ;; Parameters:    Size  Location     Type
  8274 ;;  event           2    0[BANK0 ] enum E46
  8275 ;;  pdata           2    2[BANK0 ] PTR void 
  8276 ;;		 -> RAM(4096), USTATcopy(1), USBActiveConfiguration(1), NULL(0), 
  8277 ;;		 -> BDT(48), 
  8278 ;;  size            2    4[BANK0 ] unsigned short 
  8279 ;; Auto vars:     Size  Location     Type
  8280 ;;		None
  8281 ;; Return value:  Size  Location     Type
  8282 ;;                  1    wreg      _Bool 
  8283 ;; Registers used:
  8284 ;;		wreg, fsr0l, fsr0h, fsr1l, fsr1h, status,2, status,0, pclath, cstack
  8285 ;; Tracked objects:
  8286 ;;		On entry : 0/0
  8287 ;;		On exit  : 0/0
  8288 ;;		Unchanged: 0/0
  8289 ;; Data sizes:     COMMON   BANK0   BANK1   BANK2   BANK3   BANK4   BANK5   BANK6   BANK7   BANK8   BANK9  BANK10  BANK1
      +1  BANK12
  8290 ;;      Params:         0       6       0       0       0       0       0       0       0       0       0       0       
      +0       0
  8291 ;;      Locals:         0       0       0       0       0       0       0       0       0       0       0       0       
      +0       0
  8292 ;;      Temps:          0       0       0       0       0       0       0       0       0       0       0       0       
      +0       0
  8293 ;;      Totals:         0       6       0       0       0       0       0       0       0       0       0       0       
      +0       0
  8294 ;;Total ram usage:        6 bytes
  8295 ;; Hardware stack levels used: 1
  8296 ;; Hardware stack levels required when called: 3
  8297 ;; This function calls:
  8298 ;;		_CDCInitEP
  8299 ;;		_USBCheckCDCRequest
  8300 ;; This function is called by:
  8301 ;;		_USBDeviceTasks
  8302 ;;		_USBStdSetCfgHandler
  8303 ;;		_USBSuspend
  8304 ;;		_USBWakeFromSuspend
  8305 ;;		_USBCtrlTrfSetupHandler
  8306 ;;		_USBCheckStdRequest
  8307 ;;		_USBStdFeatureReqHandler
  8308 ;; This function uses a non-reentrant model
  8309 ;;
  8310                           
  8311                           
  8312                           ;psect for function _USER_USB_CALLBACK_EVENT_HANDLER
  8313  0A76                     _USER_USB_CALLBACK_EVENT_HANDLER:
  8314  0A76                     i1l3147:	
  8315                           ;incstack = 0
  8316                           ; Regs used in _USER_USB_CALLBACK_EVENT_HANDLER: [wreg-fsr1h+status,2+status,0+pclath+cs
      +                          tack]
  8317                           
  8318                           
  8319                           ;mcc_generated_files/usb/usb_device_events.c: 49: _Bool USER_USB_CALLBACK_EVENT_HANDLER(
      +                          USB_EVENT event, void *pdata, uint16_t size);mcc_generated_files/usb/usb_device_events.c
      +                          : 50: {;mcc_generated_files/usb/usb_device_events.c: 51:     switch( (int) event )
  8320  0A76  2A7F               	goto	i1l3155
  8321  0A77                     i1l3149:
  8322                           
  8323                           ;mcc_generated_files/usb/usb_device_events.c: 76:             CDCInitEP();
  8324  0A77  318A  22A8  318A   	fcall	_CDCInitEP
  8325                           
  8326                           ;mcc_generated_files/usb/usb_device_events.c: 77:             break;
  8327  0A7A  2AA7               	goto	i1l460
  8328  0A7B                     i1l3151:
  8329                           
  8330                           ;mcc_generated_files/usb/usb_device_events.c: 85:             USBCheckCDCRequest();
  8331  0A7B  318D  2512  318A   	fcall	_USBCheckCDCRequest
  8332                           
  8333                           ;mcc_generated_files/usb/usb_device_events.c: 86:             break;
  8334  0A7E  2AA7               	goto	i1l460
  8335  0A7F                     i1l3155:
  8336                           
  8337                           ; Switch on 2 bytes has been partitioned into a top level switch of size 1, and 2 sub-sw
      +                          itches
  8338                           ; Switch size 1, requested type "simple"
  8339                           ; Number of cases is 2, Range of values is 0 to 127
  8340                           ; switch strategies available:
  8341                           ; Name         Instructions Cycles
  8342                           ; simple_byte            7     4 (average)
  8343                           ; direct_byte          262     6 (fixed)
  8344                           ; jumptable            260     6 (fixed)
  8345                           ;	Chosen strategy is simple_byte
  8346  0A7F  0020               	movlb	0	; select bank0
  8347  0A80  0861               	movf	USER_USB_CALLBACK_EVENT_HANDLER@event+1,w
  8348  0A81  3A00               	xorlw	0	; case 0
  8349  0A82  1903               	skipnz
  8350  0A83  2A88               	goto	i1l5289
  8351  0A84  3A7F               	xorlw	127	; case 127
  8352  0A85  1903               	skipnz
  8353  0A86  2AA2               	goto	i1l5291
  8354  0A87  2AA7               	goto	i1l460
  8355  0A88                     i1l5289:
  8356                           
  8357                           ; Switch size 1, requested type "simple"
  8358                           ; Number of cases is 8, Range of values is 1 to 117
  8359                           ; switch strategies available:
  8360                           ; Name         Instructions Cycles
  8361                           ; simple_byte           25    13 (average)
  8362                           ; direct_byte          243     9 (fixed)
  8363                           ; jumptable            263     9 (fixed)
  8364                           ;	Chosen strategy is simple_byte
  8365  0A88  0860               	movf	USER_USB_CALLBACK_EVENT_HANDLER@event,w
  8366  0A89  3A01               	xorlw	1	; case 1
  8367  0A8A  1903               	skipnz
  8368  0A8B  2A77               	goto	i1l3149
  8369  0A8C  3A03               	xorlw	3	; case 2
  8370  0A8D  1903               	skipnz
  8371  0A8E  2AA7               	goto	i1l460
  8372  0A8F  3A01               	xorlw	1	; case 3
  8373  0A90  1903               	skipnz
  8374  0A91  2A7B               	goto	i1l3151
  8375  0A92  3A06               	xorlw	6	; case 5
  8376  0A93  1903               	skipnz
  8377  0A94  2AA7               	goto	i1l460
  8378  0A95  3A77               	xorlw	119	; case 114
  8379  0A96  1903               	skipnz
  8380  0A97  2AA7               	goto	i1l460
  8381  0A98  3A01               	xorlw	1	; case 115
  8382  0A99  1903               	skipnz
  8383  0A9A  2AA7               	goto	i1l460
  8384  0A9B  3A07               	xorlw	7	; case 116
  8385  0A9C  1903               	skipnz
  8386  0A9D  2AA7               	goto	i1l460
  8387  0A9E  3A01               	xorlw	1	; case 117
  8388  0A9F  1903               	skipnz
  8389  0AA0  2AA7               	goto	i1l460
  8390  0AA1  2AA7               	goto	i1l460
  8391  0AA2                     i1l5291:
  8392                           
  8393                           ; Switch size 1, requested type "simple"
  8394                           ; Number of cases is 1, Range of values is 255 to 255
  8395                           ; switch strategies available:
  8396                           ; Name         Instructions Cycles
  8397                           ; simple_byte            4     3 (average)
  8398                           ; direct_byte            7     5 (fixed)
  8399                           ; jumptable            263     9 (fixed)
  8400                           ;	Chosen strategy is simple_byte
  8401  0AA2  0860               	movf	USER_USB_CALLBACK_EVENT_HANDLER@event,w
  8402  0AA3  3AFF               	xorlw	255	; case 255
  8403  0AA4  1903               	skipnz
  8404  0AA5  2AA7               	goto	i1l460
  8405  0AA6  2AA7               	goto	i1l460
  8406  0AA7                     i1l460:
  8407  0AA7  0008               	return
  8408  0AA8                     __end_of_USER_USB_CALLBACK_EVENT_HANDLER:
  8409                           
  8410                           	psect	text38
  8411  0D12                     __ptext38:	
  8412 ;; *************** function _USBCheckCDCRequest *****************
  8413 ;; Defined at:
  8414 ;;		line 147 in file "mcc_generated_files/usb/usb_device_cdc.c"
  8415 ;; Parameters:    Size  Location     Type
  8416 ;;		None
  8417 ;; Auto vars:     Size  Location     Type
  8418 ;;		None
  8419 ;; Return value:  Size  Location     Type
  8420 ;;                  1    wreg      void 
  8421 ;; Registers used:
  8422 ;;		wreg, fsr0l, fsr0h, status,2, status,0
  8423 ;; Tracked objects:
  8424 ;;		On entry : 0/0
  8425 ;;		On exit  : 0/0
  8426 ;;		Unchanged: 0/0
  8427 ;; Data sizes:     COMMON   BANK0   BANK1   BANK2   BANK3   BANK4   BANK5   BANK6   BANK7   BANK8   BANK9  BANK10  BANK1
      +1  BANK12
  8428 ;;      Params:         0       0       0       0       0       0       0       0       0       0       0       0       
      +0       0
  8429 ;;      Locals:         0       0       0       0       0       0       0       0       0       0       0       0       
      +0       0
  8430 ;;      Temps:          2       0       0       0       0       0       0       0       0       0       0       0       
      +0       0
  8431 ;;      Totals:         2       0       0       0       0       0       0       0       0       0       0       0       
      +0       0
  8432 ;;Total ram usage:        2 bytes
  8433 ;; Hardware stack levels used: 1
  8434 ;; This function calls:
  8435 ;;		Nothing
  8436 ;; This function is called by:
  8437 ;;		_USER_USB_CALLBACK_EVENT_HANDLER
  8438 ;; This function uses a non-reentrant model
  8439 ;;
  8440                           
  8441                           
  8442                           ;psect for function _USBCheckCDCRequest
  8443  0D12                     _USBCheckCDCRequest:
  8444  0D12                     i1l3097:	
  8445                           ;incstack = 0
  8446                           ; Regs used in _USBCheckCDCRequest: [wreg-fsr0h+status,2+status,0]
  8447                           
  8448                           
  8449                           ;mcc_generated_files/usb/usb_device_cdc.c: 152:     if(SetupPkt.Recipient != (0x01)) ret
      +                          urn;
  8450  0D12  0020               	movlb	0	; select bank0
  8451  0D13  0850               	movf	80,w	;volatile
  8452  0D14  391F               	andlw	31
  8453  0D15  3A01               	xorlw	1
  8454  0D16  1903               	skipnz
  8455  0D17  2D19               	goto	u176_21
  8456  0D18  2D1A               	goto	u176_20
  8457  0D19                     u176_21:
  8458  0D19  2D1B               	goto	i1l3101
  8459  0D1A                     u176_20:
  8460  0D1A  2D80               	goto	i1l506
  8461  0D1B                     i1l3101:
  8462                           
  8463                           ;mcc_generated_files/usb/usb_device_cdc.c: 157:     if(SetupPkt.RequestType != (0x20>>5)
      +                          ) return;
  8464  0D1B  0E50               	swapf	80,w	;volatile
  8465  0D1C  0C89               	rrf	9,f
  8466  0D1D  3903               	andlw	3
  8467  0D1E  3A01               	xorlw	1
  8468  0D1F  1903               	skipnz
  8469  0D20  2D22               	goto	u177_21
  8470  0D21  2D23               	goto	u177_20
  8471  0D22                     u177_21:
  8472  0D22  2D24               	goto	i1l3105
  8473  0D23                     u177_20:
  8474  0D23  2D80               	goto	i1l506
  8475  0D24                     i1l3105:
  8476                           
  8477                           ;mcc_generated_files/usb/usb_device_cdc.c: 163:     if((SetupPkt.bIntfID != 0x0)&&
  8478  0D24  0854               	movf	84,w	;volatile
  8479  0D25  1903               	btfsc	3,2
  8480  0D26  2D28               	goto	u178_21
  8481  0D27  2D29               	goto	u178_20
  8482  0D28                     u178_21:
  8483  0D28  2D67               	goto	i1l3141
  8484  0D29                     u178_20:
  8485  0D29                     i1l3107:
  8486  0D29  0354               	decf	84,w	;volatile
  8487  0D2A  1903               	btfsc	3,2
  8488  0D2B  2D2D               	goto	u179_21
  8489  0D2C  2D2E               	goto	u179_20
  8490  0D2D                     u179_21:
  8491  0D2D  2D67               	goto	i1l3141
  8492  0D2E                     u179_20:
  8493  0D2E  2D80               	goto	i1l506
  8494  0D2F                     i1l3111:
  8495                           
  8496                           ;mcc_generated_files/usb/usb_device_cdc.c: 171:             inPipes[0].pSrc.bRam = (uint
      +                          8_t*)&dummy_encapsulated_cmd_response;
  8497  0D2F  3056               	movlw	low _dummy_encapsulated_cmd_response
  8498  0D30  0021               	movlb	1	; select bank1
  8499  0D31  00BE               	movwf	_inPipes^(0+128)	;volatile
  8500  0D32  3002               	movlw	high _dummy_encapsulated_cmd_response
  8501  0D33  00BF               	movwf	(_inPipes+1)^(0+128)	;volatile
  8502  0D34                     i1l3113:
  8503                           
  8504                           ;mcc_generated_files/usb/usb_device_cdc.c: 172:             inPipes[0].wCount.Val = 0x08
      +                          ;
  8505  0D34  3000               	movlw	0
  8506  0D35  00C2               	movwf	((_inPipes+1)^(0+128)+3)	;volatile
  8507  0D36  3008               	movlw	8
  8508  0D37  00C1               	movwf	(_inPipes^(0+128)+3)	;volatile
  8509  0D38                     i1l3115:
  8510                           
  8511                           ;mcc_generated_files/usb/usb_device_cdc.c: 173:             inPipes[0].info.bits.ctrl_tr
      +                          f_mem = 0x01;
  8512  0D38  1440               	bsf	(_inPipes^(0+128)+2),0	;volatile
  8513  0D39                     i1l3117:
  8514                           
  8515                           ;mcc_generated_files/usb/usb_device_cdc.c: 174:             inPipes[0].info.bits.busy = 
      +                          1;
  8516  0D39  17C0               	bsf	(_inPipes^(0+128)+2),7	;volatile
  8517                           
  8518                           ;mcc_generated_files/usb/usb_device_cdc.c: 175:             break;
  8519  0D3A  2D80               	goto	i1l506
  8520  0D3B                     i1l3119:
  8521                           
  8522                           ;mcc_generated_files/usb/usb_device_cdc.c: 178:             inPipes[0].pSrc.bRam = (uint
      +                          8_t*)&dummy_encapsulated_cmd_response;
  8523  0D3B  3056               	movlw	low _dummy_encapsulated_cmd_response
  8524  0D3C  0021               	movlb	1	; select bank1
  8525  0D3D  00BE               	movwf	_inPipes^(0+128)	;volatile
  8526  0D3E  3002               	movlw	high _dummy_encapsulated_cmd_response
  8527  0D3F  00BF               	movwf	(_inPipes+1)^(0+128)	;volatile
  8528  0D40                     i1l3121:
  8529                           
  8530                           ;mcc_generated_files/usb/usb_device_cdc.c: 179:             inPipes[0].info.bits.busy = 
      +                          1;
  8531  0D40  17C0               	bsf	(_inPipes^(0+128)+2),7	;volatile
  8532                           
  8533                           ;mcc_generated_files/usb/usb_device_cdc.c: 180:             break;
  8534  0D41  2D80               	goto	i1l506
  8535  0D42                     i1l3123:
  8536                           
  8537                           ;mcc_generated_files/usb/usb_device_cdc.c: 185:             outPipes[0].wCount.Val = Set
      +                          upPkt.wLength;
  8538  0D42  0857               	movf	87,w	;volatile
  8539  0D43  0023               	movlb	3	; select bank3
  8540  0D44  00B4               	movwf	((_outPipes+1)^(0+384)+3)	;volatile
  8541  0D45  0020               	movlb	0	; select bank0
  8542  0D46  0856               	movf	86,w	;volatile
  8543  0D47  0023               	movlb	3	; select bank3
  8544  0D48  00B3               	movwf	(_outPipes^(0+384)+3)	;volatile
  8545                           
  8546                           ;mcc_generated_files/usb/usb_device_cdc.c: 186:             outPipes[0].pDst.bRam = (uin
      +                          t8_t*)&line_coding._byte[0];
  8547  0D49  305E               	movlw	(low (_line_coding| (0+512)))& (0+255)
  8548  0D4A  00F0               	movwf	??_USBCheckCDCRequest
  8549  0D4B  0870               	movf	??_USBCheckCDCRequest,w
  8550  0D4C  00B0               	movwf	_outPipes^(0+384)	;volatile
  8551  0D4D                     i1l3125:
  8552                           
  8553                           ;mcc_generated_files/usb/usb_device_cdc.c: 187:             outPipes[0].pFunc = ((void*)
      +                          0);
  8554  0D4D  01B5               	clrf	(low ((_outPipes| (0+256)+5)))^(0+128)	;volatile
  8555  0D4E  01B6               	clrf	((low ((_outPipes| (0+256)+5))+1))^(0+128)	;volatile
  8556  0D4F                     i1l3127:
  8557                           
  8558                           ;mcc_generated_files/usb/usb_device_cdc.c: 188:             outPipes[0].info.bits.busy =
      +                           1;
  8559  0D4F  17B2               	bsf	(_outPipes^(0+384)+2),7	;volatile
  8560                           
  8561                           ;mcc_generated_files/usb/usb_device_cdc.c: 189:             break;
  8562  0D50  2D80               	goto	i1l506
  8563  0D51                     i1l3129:
  8564                           
  8565                           ;mcc_generated_files/usb/usb_device_cdc.c: 192:             { inPipes[0].pSrc.bRam = (ui
      +                          nt8_t*)&line_coding; inPipes[0].wCount.Val = 0x07; inPipes[0].info.Val = 0x40 | 0x80 | 0
      +                          x01; };
  8566  0D51  305E               	movlw	low _line_coding
  8567  0D52  0021               	movlb	1	; select bank1
  8568  0D53  00BE               	movwf	_inPipes^(0+128)	;volatile
  8569  0D54  3002               	movlw	high _line_coding
  8570  0D55  00BF               	movwf	(_inPipes+1)^(0+128)	;volatile
  8571  0D56                     i1l3131:
  8572  0D56  3000               	movlw	0
  8573  0D57  00C2               	movwf	((_inPipes+1)^(0+128)+3)	;volatile
  8574  0D58  3007               	movlw	7
  8575  0D59  00C1               	movwf	(_inPipes^(0+128)+3)	;volatile
  8576  0D5A                     i1l3133:
  8577  0D5A  30C1               	movlw	193
  8578  0D5B  00F0               	movwf	??_USBCheckCDCRequest
  8579  0D5C  0870               	movf	??_USBCheckCDCRequest,w
  8580  0D5D  00C0               	movwf	(_inPipes^(0+128)+2)	;volatile
  8581                           
  8582                           ;mcc_generated_files/usb/usb_device_cdc.c: 196:             break;
  8583  0D5E  2D80               	goto	i1l506
  8584  0D5F                     i1l3135:
  8585                           
  8586                           ;mcc_generated_files/usb/usb_device_cdc.c: 199:             control_signal_bitmap._byte 
      +                          = (uint8_t)SetupPkt.wValue;
  8587  0D5F  0852               	movf	82,w	;volatile
  8588  0D60  00F0               	movwf	??_USBCheckCDCRequest
  8589  0D61  0870               	movf	??_USBCheckCDCRequest,w
  8590  0D62  0023               	movlb	3	; select bank3
  8591  0D63  00DD               	movwf	_control_signal_bitmap^(0+384)
  8592  0D64                     i1l3137:
  8593                           
  8594                           ;mcc_generated_files/usb/usb_device_cdc.c: 231:             inPipes[0].info.bits.busy = 
      +                          1;
  8595  0D64  0021               	movlb	1	; select bank1
  8596  0D65  17C0               	bsf	(_inPipes^(0+128)+2),7	;volatile
  8597                           
  8598                           ;mcc_generated_files/usb/usb_device_cdc.c: 232:             break;
  8599  0D66  2D80               	goto	i1l506
  8600  0D67                     i1l3141:
  8601  0D67  0851               	movf	81,w	;volatile
  8602  0D68  00F0               	movwf	??_USBCheckCDCRequest
  8603  0D69  01F1               	clrf	??_USBCheckCDCRequest+1
  8604                           
  8605                           ; Switch on 2 bytes has been partitioned into a top level switch of size 1, and 1 sub-sw
      +                          itches
  8606                           ; Switch size 1, requested type "simple"
  8607                           ; Number of cases is 1, Range of values is 0 to 0
  8608                           ; switch strategies available:
  8609                           ; Name         Instructions Cycles
  8610                           ; simple_byte            4     3 (average)
  8611                           ; direct_byte            8     6 (fixed)
  8612                           ; jumptable            260     6 (fixed)
  8613                           ;	Chosen strategy is simple_byte
  8614  0D6A  0871               	movf	??_USBCheckCDCRequest+1,w
  8615  0D6B  3A00               	xorlw	0	; case 0
  8616  0D6C  1903               	skipnz
  8617  0D6D  2D6F               	goto	i1l5293
  8618  0D6E  2D80               	goto	i1l506
  8619  0D6F                     i1l5293:
  8620                           
  8621                           ; Switch size 1, requested type "simple"
  8622                           ; Number of cases is 5, Range of values is 0 to 34
  8623                           ; switch strategies available:
  8624                           ; Name         Instructions Cycles
  8625                           ; simple_byte           16     9 (average)
  8626                           ; direct_byte           76     6 (fixed)
  8627                           ; jumptable            260     6 (fixed)
  8628                           ;	Chosen strategy is simple_byte
  8629  0D6F  0870               	movf	??_USBCheckCDCRequest,w
  8630  0D70  3A00               	xorlw	0	; case 0
  8631  0D71  1903               	skipnz
  8632  0D72  2D2F               	goto	i1l3111
  8633  0D73  3A01               	xorlw	1	; case 1
  8634  0D74  1903               	skipnz
  8635  0D75  2D3B               	goto	i1l3119
  8636  0D76  3A21               	xorlw	33	; case 32
  8637  0D77  1903               	skipnz
  8638  0D78  2D42               	goto	i1l3123
  8639  0D79  3A01               	xorlw	1	; case 33
  8640  0D7A  1903               	skipnz
  8641  0D7B  2D51               	goto	i1l3129
  8642  0D7C  3A03               	xorlw	3	; case 34
  8643  0D7D  1903               	skipnz
  8644  0D7E  2D5F               	goto	i1l3135
  8645  0D7F  2D80               	goto	i1l506
  8646  0D80                     i1l506:
  8647  0D80  0008               	return
  8648  0D81                     __end_of_USBCheckCDCRequest:
  8649                           
  8650                           	psect	text39
  8651  0AA8                     __ptext39:	
  8652 ;; *************** function _CDCInitEP *****************
  8653 ;; Defined at:
  8654 ;;		line 294 in file "mcc_generated_files/usb/usb_device_cdc.c"
  8655 ;; Parameters:    Size  Location     Type
  8656 ;;		None
  8657 ;; Auto vars:     Size  Location     Type
  8658 ;;		None
  8659 ;; Return value:  Size  Location     Type
  8660 ;;                  1    wreg      void 
  8661 ;; Registers used:
  8662 ;;		wreg, fsr1l, fsr1h, status,2, status,0, pclath, cstack
  8663 ;; Tracked objects:
  8664 ;;		On entry : 0/0
  8665 ;;		On exit  : 0/0
  8666 ;;		Unchanged: 0/0
  8667 ;; Data sizes:     COMMON   BANK0   BANK1   BANK2   BANK3   BANK4   BANK5   BANK6   BANK7   BANK8   BANK9  BANK10  BANK1
      +1  BANK12
  8668 ;;      Params:         0       0       0       0       0       0       0       0       0       0       0       0       
      +0       0
  8669 ;;      Locals:         0       0       0       0       0       0       0       0       0       0       0       0       
      +0       0
  8670 ;;      Temps:          1       0       0       0       0       0       0       0       0       0       0       0       
      +0       0
  8671 ;;      Totals:         1       0       0       0       0       0       0       0       0       0       0       0       
      +0       0
  8672 ;;Total ram usage:        1 bytes
  8673 ;; Hardware stack levels used: 1
  8674 ;; Hardware stack levels required when called: 2
  8675 ;; This function calls:
  8676 ;;		_USBEnableEndpoint
  8677 ;;		_USBTransferOnePacket
  8678 ;; This function is called by:
  8679 ;;		_USER_USB_CALLBACK_EVENT_HANDLER
  8680 ;; This function uses a non-reentrant model
  8681 ;;
  8682                           
  8683                           
  8684                           ;psect for function _CDCInitEP
  8685  0AA8                     _CDCInitEP:
  8686  0AA8                     i1l3079:	
  8687                           ;incstack = 0
  8688                           ; Regs used in _CDCInitEP: [wreg+fsr1l+fsr1h+status,2+status,0+pclath+cstack]
  8689                           
  8690                           
  8691                           ;mcc_generated_files/usb/usb_device_cdc.c: 297:     line_coding.dwDTERate = 19200;
  8692  0AA8  3000               	movlw	0
  8693  0AA9  0024               	movlb	4	; select bank4
  8694  0AAA  00E1               	movwf	(_line_coding+3)^(0+512)
  8695  0AAB  3000               	movlw	0
  8696  0AAC  00E0               	movwf	(_line_coding+2)^(0+512)
  8697  0AAD  304B               	movlw	75
  8698  0AAE  00DF               	movwf	(_line_coding+1)^(0+512)
  8699  0AAF  3000               	movlw	0
  8700  0AB0  00DE               	movwf	_line_coding^(0+512)
  8701  0AB1                     i1l3081:
  8702                           
  8703                           ;mcc_generated_files/usb/usb_device_cdc.c: 298:     line_coding.bCharFormat = 0x00;
  8704  0AB1  01E2               	clrf	(_line_coding^(0+512)+4)
  8705  0AB2                     i1l3083:
  8706                           
  8707                           ;mcc_generated_files/usb/usb_device_cdc.c: 299:     line_coding.bParityType = 0x00;
  8708  0AB2  01E3               	clrf	(_line_coding^(0+512)+5)
  8709                           
  8710                           ;mcc_generated_files/usb/usb_device_cdc.c: 300:     line_coding.bDataBits = 0x08;
  8711  0AB3  3008               	movlw	8
  8712  0AB4  00FD               	movwf	??_CDCInitEP
  8713  0AB5  087D               	movf	??_CDCInitEP,w
  8714  0AB6  00E4               	movwf	(_line_coding^(0+512)+6)
  8715  0AB7                     i1l3085:
  8716                           
  8717                           ;mcc_generated_files/usb/usb_device_cdc.c: 302:     cdc_rx_len = 0;
  8718  0AB7  0023               	movlb	3	; select bank3
  8719  0AB8  01E0               	clrf	_cdc_rx_len^(0+384)
  8720  0AB9                     i1l3087:
  8721                           
  8722                           ;mcc_generated_files/usb/usb_device_cdc.c: 315:     USBEnableEndpoint(1,0x02|0x10|0x08);
  8723  0AB9  301A               	movlw	26
  8724  0ABA  00FD               	movwf	??_CDCInitEP
  8725  0ABB  087D               	movf	??_CDCInitEP,w
  8726  0ABC  00F7               	movwf	USBEnableEndpoint@options
  8727  0ABD  3001               	movlw	1
  8728  0ABE  3189  219F  318A   	fcall	_USBEnableEndpoint
  8729  0AC1                     i1l3089:
  8730                           
  8731                           ;mcc_generated_files/usb/usb_device_cdc.c: 316:     USBEnableEndpoint(2,0x02|0x04|0x10|0
      +                          x08);
  8732  0AC1  301E               	movlw	30
  8733  0AC2  00FD               	movwf	??_CDCInitEP
  8734  0AC3  087D               	movf	??_CDCInitEP,w
  8735  0AC4  00F7               	movwf	USBEnableEndpoint@options
  8736  0AC5  3002               	movlw	2
  8737  0AC6  3189  219F  318A   	fcall	_USBEnableEndpoint
  8738  0AC9                     i1l3091:
  8739                           
  8740                           ;mcc_generated_files/usb/usb_device_cdc.c: 318:     CDCDataOutHandle = USBTransferOnePac
      +                          ket(2,0,(uint8_t*)&cdc_data_rx,sizeof(cdc_data_rx));
  8741  0AC9  01F0               	clrf	USBTransferOnePacket@dir
  8742  0ACA  30C0               	movlw	192
  8743  0ACB  00F1               	movwf	USBTransferOnePacket@data
  8744  0ACC  3020               	movlw	32
  8745  0ACD  00F2               	movwf	USBTransferOnePacket@data+1
  8746  0ACE  3040               	movlw	64
  8747  0ACF  00FD               	movwf	??_CDCInitEP
  8748  0AD0  087D               	movf	??_CDCInitEP,w
  8749  0AD1  00F3               	movwf	USBTransferOnePacket@len
  8750  0AD2  3002               	movlw	2
  8751  0AD3  3187  276B  318A   	fcall	_USBTransferOnePacket
  8752  0AD6  0871               	movf	?_USBTransferOnePacket+1,w
  8753  0AD7  0023               	movlb	3	; select bank3
  8754  0AD8  00D6               	movwf	(_CDCDataOutHandle+1)^(0+384)
  8755  0AD9  0870               	movf	?_USBTransferOnePacket,w
  8756  0ADA  00D5               	movwf	_CDCDataOutHandle^(0+384)
  8757  0ADB                     i1l3093:
  8758                           
  8759                           ;mcc_generated_files/usb/usb_device_cdc.c: 319:     CDCDataInHandle = ((void*)0);
  8760  0ADB  01D3               	clrf	_CDCDataInHandle^(0+384)
  8761  0ADC  01D4               	clrf	(_CDCDataInHandle+1)^(0+384)
  8762  0ADD                     i1l3095:
  8763                           
  8764                           ;mcc_generated_files/usb/usb_device_cdc.c: 346:     cdc_trf_state = 0;
  8765  0ADD  0021               	movlb	1	; select bank1
  8766  0ADE  01C7               	clrf	_cdc_trf_state^(0+128)
  8767  0ADF                     i1l519:
  8768  0ADF  0008               	return
  8769  0AE0                     __end_of_CDCInitEP:
  8770                           
  8771                           	psect	text40
  8772  076B                     __ptext40:	
  8773 ;; *************** function _USBTransferOnePacket *****************
  8774 ;; Defined at:
  8775 ;;		line 999 in file "mcc_generated_files/usb/usb_device.c"
  8776 ;; Parameters:    Size  Location     Type
  8777 ;;  ep              1    wreg     unsigned char 
  8778 ;;  dir             1    0[COMMON] unsigned char 
  8779 ;;  data            2    1[COMMON] PTR unsigned char 
  8780 ;;		 -> cdc_data_tx(64), cdc_data_rx(64), NULL(0), 
  8781 ;;  len             1    3[COMMON] unsigned char 
  8782 ;; Auto vars:     Size  Location     Type
  8783 ;;  ep              1    8[COMMON] unsigned char 
  8784 ;;  handle          2    9[COMMON] PTR volatile struct __BD
  8785 ;;		 -> RAM(4096), NULL(0), BDT(48), 
  8786 ;; Return value:  Size  Location     Type
  8787 ;;                  2    0[COMMON] PTR void 
  8788 ;; Registers used:
  8789 ;;		wreg, fsr1l, fsr1h, status,2, status,0
  8790 ;; Tracked objects:
  8791 ;;		On entry : 0/0
  8792 ;;		On exit  : 0/0
  8793 ;;		Unchanged: 0/0
  8794 ;; Data sizes:     COMMON   BANK0   BANK1   BANK2   BANK3   BANK4   BANK5   BANK6   BANK7   BANK8   BANK9  BANK10  BANK1
      +1  BANK12
  8795 ;;      Params:         4       0       0       0       0       0       0       0       0       0       0       0       
      +0       0
  8796 ;;      Locals:         3       0       0       0       0       0       0       0       0       0       0       0       
      +0       0
  8797 ;;      Temps:          4       0       0       0       0       0       0       0       0       0       0       0       
      +0       0
  8798 ;;      Totals:        11       0       0       0       0       0       0       0       0       0       0       0       
      +0       0
  8799 ;;Total ram usage:       11 bytes
  8800 ;; Hardware stack levels used: 1
  8801 ;; This function calls:
  8802 ;;		Nothing
  8803 ;; This function is called by:
  8804 ;;		_CDCInitEP
  8805 ;;		_USBCDCEventHandler
  8806 ;;		_getsUSBUSART
  8807 ;;		_CDCTxService
  8808 ;; This function uses a non-reentrant model
  8809 ;;
  8810                           
  8811                           
  8812                           ;psect for function _USBTransferOnePacket
  8813  076B                     _USBTransferOnePacket:
  8814                           
  8815                           ;incstack = 0
  8816                           ; Regs used in _USBTransferOnePacket: [wreg+fsr1l+fsr1h+status,2+status,0]
  8817                           ;USBTransferOnePacket@ep stored from wreg
  8818  076B  00F8               	movwf	USBTransferOnePacket@ep
  8819  076C                     i1l3051:
  8820                           
  8821                           ;mcc_generated_files/usb/usb_device.c: 999: void* USBTransferOnePacket(uint8_t ep,uint8_
      +                          t dir,uint8_t* data,uint8_t len);mcc_generated_files/usb/usb_device.c: 1000: {;mcc_gener
      +                          ated_files/usb/usb_device.c: 1001:     volatile BDT_ENTRY* handle;;mcc_generated_files/u
      +                          sb/usb_device.c: 1004:     if(dir != 0)
  8822  076C  0870               	movf	USBTransferOnePacket@dir,w
  8823  076D  1903               	btfsc	3,2
  8824  076E  2F70               	goto	u173_21
  8825  076F  2F71               	goto	u173_20
  8826  0770                     u173_21:
  8827  0770  2F7B               	goto	i1l3055
  8828  0771                     u173_20:
  8829  0771                     i1l3053:
  8830                           
  8831                           ;mcc_generated_files/usb/usb_device.c: 1005:     {;mcc_generated_files/usb/usb_device.c:
      +                           1007:         handle = pBDTEntryIn[ep];
  8832  0771  3578               	lslf	USBTransferOnePacket@ep,w
  8833  0772  3EB7               	addlw	(low (_pBDTEntryIn| (0+256)))& (0+255)
  8834  0773  0086               	movwf	6
  8835  0774  3001               	movlw	1	; select bank3/4
  8836  0775  0087               	movwf	7
  8837  0776  3F40               	moviw [0]fsr1
  8838  0777  00F9               	movwf	USBTransferOnePacket@handle
  8839  0778  3F41               	moviw [1]fsr1
  8840  0779  00FA               	movwf	USBTransferOnePacket@handle+1
  8841                           
  8842                           ;mcc_generated_files/usb/usb_device.c: 1008:     }
  8843  077A  2F84               	goto	i1l3057
  8844  077B                     i1l3055:
  8845                           
  8846                           ;mcc_generated_files/usb/usb_device.c: 1010:     {;mcc_generated_files/usb/usb_device.c:
      +                           1012:         handle = pBDTEntryOut[ep];
  8847  077B  3578               	lslf	USBTransferOnePacket@ep,w
  8848  077C  3EBD               	addlw	(low (_pBDTEntryOut| (0+256)))& (0+255)
  8849  077D  0086               	movwf	6
  8850  077E  3001               	movlw	1	; select bank3/4
  8851  077F  0087               	movwf	7
  8852  0780  3F40               	moviw [0]fsr1
  8853  0781  00F9               	movwf	USBTransferOnePacket@handle
  8854  0782  3F41               	moviw [1]fsr1
  8855  0783  00FA               	movwf	USBTransferOnePacket@handle+1
  8856  0784                     i1l3057:
  8857                           
  8858                           ;mcc_generated_files/usb/usb_device.c: 1017:     if(handle == 0)
  8859  0784  0879               	movf	USBTransferOnePacket@handle,w
  8860  0785  047A               	iorwf	USBTransferOnePacket@handle+1,w
  8861  0786  1D03               	btfss	3,2
  8862  0787  2F89               	goto	u174_21
  8863  0788  2F8A               	goto	u174_20
  8864  0789                     u174_21:
  8865  0789  2F8D               	goto	i1l3063
  8866  078A                     u174_20:
  8867  078A                     i1l3059:
  8868                           
  8869                           ;mcc_generated_files/usb/usb_device.c: 1018:     {;mcc_generated_files/usb/usb_device.c:
      +                           1019:         return 0;
  8870  078A  01F0               	clrf	?_USBTransferOnePacket
  8871  078B  01F1               	clrf	?_USBTransferOnePacket+1
  8872  078C  2FF4               	goto	i1l222
  8873  078D                     i1l3063:
  8874                           
  8875                           ;mcc_generated_files/usb/usb_device.c: 1033:     handle->ADR = (((uint16_t)(data)) & 0x7
      +                          FFF);
  8876  078D  30FF               	movlw	255
  8877  078E  0571               	andwf	USBTransferOnePacket@data,w
  8878  078F  00F4               	movwf	??_USBTransferOnePacket
  8879  0790  307F               	movlw	127
  8880  0791  0572               	andwf	USBTransferOnePacket@data+1,w
  8881  0792  00F5               	movwf	??_USBTransferOnePacket+1
  8882  0793  0879               	movf	USBTransferOnePacket@handle,w
  8883  0794  0086               	movwf	6
  8884  0795  087A               	movf	USBTransferOnePacket@handle+1,w
  8885  0796  0087               	movwf	7
  8886  0797  3142               	addfsr 1,2
  8887  0798  0874               	movf	??_USBTransferOnePacket,w
  8888  0799  3FC0               	movwi [0]fsr1
  8889  079A  0875               	movf	??_USBTransferOnePacket+1,w
  8890  079B  3FC1               	movwi [1]fsr1
  8891  079C                     i1l3065:
  8892                           
  8893                           ;mcc_generated_files/usb/usb_device.c: 1034:     handle->CNT = len;
  8894  079C  0879               	movf	USBTransferOnePacket@handle,w
  8895  079D  3E01               	addlw	1
  8896  079E  00F4               	movwf	??_USBTransferOnePacket
  8897  079F  3000               	movlw	0
  8898  07A0  3D7A               	addwfc	USBTransferOnePacket@handle+1,w
  8899  07A1  00F5               	movwf	??_USBTransferOnePacket+1
  8900  07A2  0874               	movf	??_USBTransferOnePacket,w
  8901  07A3  0086               	movwf	6
  8902  07A4  0875               	movf	??_USBTransferOnePacket+1,w
  8903  07A5  0087               	movwf	7
  8904  07A6  0873               	movf	USBTransferOnePacket@len,w
  8905  07A7  0081               	movwf	1
  8906  07A8                     i1l3067:
  8907                           
  8908                           ;mcc_generated_files/usb/usb_device.c: 1035:     handle->STAT.Val &= 0x40;
  8909  07A8  3040               	movlw	64
  8910  07A9  00F4               	movwf	??_USBTransferOnePacket
  8911  07AA  0879               	movf	USBTransferOnePacket@handle,w
  8912  07AB  0086               	movwf	6
  8913  07AC  087A               	movf	USBTransferOnePacket@handle+1,w
  8914  07AD  0087               	movwf	7
  8915  07AE  0874               	movf	??_USBTransferOnePacket,w
  8916  07AF  0581               	andwf	1,f
  8917                           
  8918                           ;mcc_generated_files/usb/usb_device.c: 1036:     handle->STAT.Val |= (0x08 & 0x08);
  8919  07B0  0879               	movf	USBTransferOnePacket@handle,w
  8920  07B1  0086               	movwf	6
  8921  07B2  087A               	movf	USBTransferOnePacket@handle+1,w
  8922  07B3  0087               	movwf	7
  8923  07B4  1581               	bsf	1,3
  8924                           
  8925                           ;mcc_generated_files/usb/usb_device.c: 1037:     handle->STAT.Val |= 0x80;
  8926  07B5  0879               	movf	USBTransferOnePacket@handle,w
  8927  07B6  0086               	movwf	6
  8928  07B7  087A               	movf	USBTransferOnePacket@handle+1,w
  8929  07B8  0087               	movwf	7
  8930  07B9  1781               	bsf	1,7
  8931  07BA                     i1l3069:
  8932                           
  8933                           ;mcc_generated_files/usb/usb_device.c: 1040:     if(dir != 0)
  8934  07BA  0870               	movf	USBTransferOnePacket@dir,w
  8935  07BB  1903               	btfsc	3,2
  8936  07BC  2FBE               	goto	u175_21
  8937  07BD  2FBF               	goto	u175_20
  8938  07BE                     u175_21:
  8939  07BE  2FD8               	goto	i1l3073
  8940  07BF                     u175_20:
  8941  07BF                     i1l3071:
  8942                           
  8943                           ;mcc_generated_files/usb/usb_device.c: 1041:     {;mcc_generated_files/usb/usb_device.c:
      +                           1043:         pBDTEntryIn[ep] = (BDT_ENTRY*)(((uint16_t)pBDTEntryIn[ep]) ^ 0x0004);
  8944  07BF  3578               	lslf	USBTransferOnePacket@ep,w
  8945  07C0  3EB7               	addlw	(low (_pBDTEntryIn| (0+256)))& (0+255)
  8946  07C1  0086               	movwf	6
  8947  07C2  3001               	movlw	1	; select bank3/4
  8948  07C3  0087               	movwf	7
  8949  07C4  3F40               	moviw [0]fsr1
  8950  07C5  00F4               	movwf	??_USBTransferOnePacket
  8951  07C6  3F41               	moviw [1]fsr1
  8952  07C7  00F5               	movwf	??_USBTransferOnePacket+1
  8953  07C8  3004               	movlw	4
  8954  07C9  0674               	xorwf	??_USBTransferOnePacket,w
  8955  07CA  00F6               	movwf	??_USBTransferOnePacket+2
  8956  07CB  3000               	movlw	0
  8957  07CC  0675               	xorwf	??_USBTransferOnePacket+1,w
  8958  07CD  00F7               	movwf	??_USBTransferOnePacket+3
  8959  07CE  3578               	lslf	USBTransferOnePacket@ep,w
  8960  07CF  3EB7               	addlw	(low (_pBDTEntryIn| (0+256)))& (0+255)
  8961  07D0  0086               	movwf	6
  8962  07D1  3001               	movlw	1	; select bank3/4
  8963  07D2  0087               	movwf	7
  8964  07D3  0876               	movf	??_USBTransferOnePacket+2,w
  8965  07D4  3FC0               	movwi [0]fsr1
  8966  07D5  0877               	movf	??_USBTransferOnePacket+3,w
  8967  07D6  3FC1               	movwi [1]fsr1
  8968                           
  8969                           ;mcc_generated_files/usb/usb_device.c: 1044:     }
  8970  07D7  2FF0               	goto	i1l3075
  8971  07D8                     i1l3073:
  8972                           
  8973                           ;mcc_generated_files/usb/usb_device.c: 1046:     {;mcc_generated_files/usb/usb_device.c:
      +                           1048:         pBDTEntryOut[ep] = (BDT_ENTRY*)(((uint16_t)pBDTEntryOut[ep]) ^ 0x0004);
  8974  07D8  3578               	lslf	USBTransferOnePacket@ep,w
  8975  07D9  3EBD               	addlw	(low (_pBDTEntryOut| (0+256)))& (0+255)
  8976  07DA  0086               	movwf	6
  8977  07DB  3001               	movlw	1	; select bank3/4
  8978  07DC  0087               	movwf	7
  8979  07DD  3F40               	moviw [0]fsr1
  8980  07DE  00F4               	movwf	??_USBTransferOnePacket
  8981  07DF  3F41               	moviw [1]fsr1
  8982  07E0  00F5               	movwf	??_USBTransferOnePacket+1
  8983  07E1  3004               	movlw	4
  8984  07E2  0674               	xorwf	??_USBTransferOnePacket,w
  8985  07E3  00F6               	movwf	??_USBTransferOnePacket+2
  8986  07E4  3000               	movlw	0
  8987  07E5  0675               	xorwf	??_USBTransferOnePacket+1,w
  8988  07E6  00F7               	movwf	??_USBTransferOnePacket+3
  8989  07E7  3578               	lslf	USBTransferOnePacket@ep,w
  8990  07E8  3EBD               	addlw	(low (_pBDTEntryOut| (0+256)))& (0+255)
  8991  07E9  0086               	movwf	6
  8992  07EA  3001               	movlw	1	; select bank3/4
  8993  07EB  0087               	movwf	7
  8994  07EC  0876               	movf	??_USBTransferOnePacket+2,w
  8995  07ED  3FC0               	movwi [0]fsr1
  8996  07EE  0877               	movf	??_USBTransferOnePacket+3,w
  8997  07EF  3FC1               	movwi [1]fsr1
  8998  07F0                     i1l3075:
  8999                           
  9000                           ;mcc_generated_files/usb/usb_device.c: 1050:     return (void*)handle;
  9001  07F0  087A               	movf	USBTransferOnePacket@handle+1,w
  9002  07F1  00F1               	movwf	?_USBTransferOnePacket+1
  9003  07F2  0879               	movf	USBTransferOnePacket@handle,w
  9004  07F3  00F0               	movwf	?_USBTransferOnePacket
  9005  07F4                     i1l222:
  9006  07F4  0008               	return
  9007  07F5                     __end_of_USBTransferOnePacket:
  9008                           
  9009                           	psect	text41
  9010  099F                     __ptext41:	
  9011 ;; *************** function _USBEnableEndpoint *****************
  9012 ;; Defined at:
  9013 ;;		line 882 in file "mcc_generated_files/usb/usb_device.c"
  9014 ;; Parameters:    Size  Location     Type
  9015 ;;  ep              1    wreg     unsigned char 
  9016 ;;  options         1    7[COMMON] unsigned char 
  9017 ;; Auto vars:     Size  Location     Type
  9018 ;;  ep              1   12[COMMON] unsigned char 
  9019 ;;  p               2   10[COMMON] PTR unsigned char 
  9020 ;;		 -> UEP0(1), 
  9021 ;; Return value:  Size  Location     Type
  9022 ;;                  1    wreg      void 
  9023 ;; Registers used:
  9024 ;;		wreg, fsr1l, fsr1h, status,2, status,0, pclath, cstack
  9025 ;; Tracked objects:
  9026 ;;		On entry : 0/0
  9027 ;;		On exit  : 0/0
  9028 ;;		Unchanged: 0/0
  9029 ;; Data sizes:     COMMON   BANK0   BANK1   BANK2   BANK3   BANK4   BANK5   BANK6   BANK7   BANK8   BANK9  BANK10  BANK1
      +1  BANK12
  9030 ;;      Params:         1       0       0       0       0       0       0       0       0       0       0       0       
      +0       0
  9031 ;;      Locals:         3       0       0       0       0       0       0       0       0       0       0       0       
      +0       0
  9032 ;;      Temps:          2       0       0       0       0       0       0       0       0       0       0       0       
      +0       0
  9033 ;;      Totals:         6       0       0       0       0       0       0       0       0       0       0       0       
      +0       0
  9034 ;;Total ram usage:        6 bytes
  9035 ;; Hardware stack levels used: 1
  9036 ;; Hardware stack levels required when called: 1
  9037 ;; This function calls:
  9038 ;;		_USBConfigureEndpoint
  9039 ;; This function is called by:
  9040 ;;		_CDCInitEP
  9041 ;; This function uses a non-reentrant model
  9042 ;;
  9043                           
  9044                           
  9045                           ;psect for function _USBEnableEndpoint
  9046  099F                     _USBEnableEndpoint:
  9047                           
  9048                           ;incstack = 0
  9049                           ; Regs used in _USBEnableEndpoint: [wreg+fsr1l+fsr1h+status,2+status,0+pclath+cstack]
  9050                           ;USBEnableEndpoint@ep stored from wreg
  9051  099F  00FC               	movwf	USBEnableEndpoint@ep
  9052  09A0                     i1l3039:
  9053                           
  9054                           ;mcc_generated_files/usb/usb_device.c: 882: void USBEnableEndpoint(uint8_t ep, uint8_t o
      +                          ptions);mcc_generated_files/usb/usb_device.c: 883: {;mcc_generated_files/usb/usb_device.
      +                          c: 884:     unsigned char* p;;mcc_generated_files/usb/usb_device.c: 888:     if(options 
      +                          & 0x04)
  9055  09A0  1D77               	btfss	USBEnableEndpoint@options,2
  9056  09A1  29A3               	goto	u171_21
  9057  09A2  29A4               	goto	u171_20
  9058  09A3                     u171_21:
  9059  09A3  29A9               	goto	i1l3043
  9060  09A4                     u171_20:
  9061  09A4                     i1l3041:
  9062                           
  9063                           ;mcc_generated_files/usb/usb_device.c: 889:     {;mcc_generated_files/usb/usb_device.c: 
      +                          890:         USBConfigureEndpoint(ep, 0);
  9064  09A4  01F0               	clrf	USBConfigureEndpoint@direction
  9065  09A5  087C               	movf	USBEnableEndpoint@ep,w
  9066  09A6  318B  235B  3189   	fcall	_USBConfigureEndpoint
  9067  09A9                     i1l3043:
  9068                           
  9069                           ;mcc_generated_files/usb/usb_device.c: 892:     if(options & 0x02)
  9070  09A9  1CF7               	btfss	USBEnableEndpoint@options,1
  9071  09AA  29AC               	goto	u172_21
  9072  09AB  29AD               	goto	u172_20
  9073  09AC                     u172_21:
  9074  09AC  29B3               	goto	i1l3047
  9075  09AD                     u172_20:
  9076  09AD                     i1l3045:
  9077                           
  9078                           ;mcc_generated_files/usb/usb_device.c: 893:     {;mcc_generated_files/usb/usb_device.c: 
      +                          894:         USBConfigureEndpoint(ep, 1);
  9079  09AD  01F0               	clrf	USBConfigureEndpoint@direction
  9080  09AE  0AF0               	incf	USBConfigureEndpoint@direction,f
  9081  09AF  087C               	movf	USBEnableEndpoint@ep,w
  9082  09B0  318B  235B  3189   	fcall	_USBConfigureEndpoint
  9083  09B3                     i1l3047:
  9084                           
  9085                           ;mcc_generated_files/usb/usb_device.c: 903:         p = (unsigned char*)(&UEP0+ep);
  9086  09B3  087C               	movf	USBEnableEndpoint@ep,w
  9087  09B4  3E98               	addlw	152
  9088  09B5  00F8               	movwf	??_USBEnableEndpoint
  9089  09B6  01F9               	clrf	??_USBEnableEndpoint+1
  9090  09B7  300E               	movlw	14
  9091  09B8  3DF9               	addwfc	??_USBEnableEndpoint+1,f
  9092  09B9  0878               	movf	??_USBEnableEndpoint,w
  9093  09BA  00FA               	movwf	USBEnableEndpoint@p
  9094  09BB  0879               	movf	??_USBEnableEndpoint+1,w
  9095  09BC  00FB               	movwf	USBEnableEndpoint@p+1
  9096  09BD                     i1l3049:
  9097                           
  9098                           ;mcc_generated_files/usb/usb_device.c: 905:     *p = options;
  9099  09BD  087A               	movf	USBEnableEndpoint@p,w
  9100  09BE  0086               	movwf	6
  9101  09BF  087B               	movf	USBEnableEndpoint@p+1,w
  9102  09C0  0087               	movwf	7
  9103  09C1  0877               	movf	USBEnableEndpoint@options,w
  9104  09C2  0081               	movwf	1
  9105  09C3                     i1l216:
  9106  09C3  0008               	return
  9107  09C4                     __end_of_USBEnableEndpoint:
  9108                           
  9109                           	psect	text42
  9110  0B5B                     __ptext42:	
  9111 ;; *************** function _USBConfigureEndpoint *****************
  9112 ;; Defined at:
  9113 ;;		line 1547 in file "mcc_generated_files/usb/usb_device.c"
  9114 ;; Parameters:    Size  Location     Type
  9115 ;;  EPNum           1    wreg     unsigned char 
  9116 ;;  direction       1    0[COMMON] unsigned char 
  9117 ;; Auto vars:     Size  Location     Type
  9118 ;;  EPNum           1    5[COMMON] unsigned char 
  9119 ;;  handle          1    6[COMMON] PTR volatile struct __BD
  9120 ;;		 -> BDT(48), 
  9121 ;; Return value:  Size  Location     Type
  9122 ;;                  1    wreg      void 
  9123 ;; Registers used:
  9124 ;;		wreg, fsr1l, fsr1h, status,2, status,0
  9125 ;; Tracked objects:
  9126 ;;		On entry : 0/0
  9127 ;;		On exit  : 0/0
  9128 ;;		Unchanged: 0/0
  9129 ;; Data sizes:     COMMON   BANK0   BANK1   BANK2   BANK3   BANK4   BANK5   BANK6   BANK7   BANK8   BANK9  BANK10  BANK1
      +1  BANK12
  9130 ;;      Params:         1       0       0       0       0       0       0       0       0       0       0       0       
      +0       0
  9131 ;;      Locals:         2       0       0       0       0       0       0       0       0       0       0       0       
      +0       0
  9132 ;;      Temps:          4       0       0       0       0       0       0       0       0       0       0       0       
      +0       0
  9133 ;;      Totals:         7       0       0       0       0       0       0       0       0       0       0       0       
      +0       0
  9134 ;;Total ram usage:        7 bytes
  9135 ;; Hardware stack levels used: 1
  9136 ;; This function calls:
  9137 ;;		Nothing
  9138 ;; This function is called by:
  9139 ;;		_USBEnableEndpoint
  9140 ;; This function uses a non-reentrant model
  9141 ;;
  9142                           
  9143                           
  9144                           ;psect for function _USBConfigureEndpoint
  9145  0B5B                     _USBConfigureEndpoint:
  9146                           
  9147                           ;incstack = 0
  9148                           ; Regs used in _USBConfigureEndpoint: [wreg+fsr1l+fsr1h+status,2+status,0]
  9149                           ;USBConfigureEndpoint@EPNum stored from wreg
  9150  0B5B  00F5               	movwf	USBConfigureEndpoint@EPNum
  9151  0B5C                     i1l3023:
  9152                           
  9153                           ;mcc_generated_files/usb/usb_device.c: 1547: static void USBConfigureEndpoint(uint8_t EP
      +                          Num, uint8_t direction);mcc_generated_files/usb/usb_device.c: 1548: {;mcc_generated_file
      +                          s/usb/usb_device.c: 1549:     volatile BDT_ENTRY* handle;;mcc_generated_files/usb/usb_de
      +                          vice.c: 1553:     handle = (volatile BDT_ENTRY*)&BDT[0];
  9154  0B5C  3020               	movlw	32
  9155  0B5D  00F1               	movwf	??_USBConfigureEndpoint
  9156  0B5E  0871               	movf	??_USBConfigureEndpoint,w
  9157  0B5F  00F6               	movwf	USBConfigureEndpoint@handle
  9158  0B60                     i1l3025:
  9159                           
  9160                           ;mcc_generated_files/usb/usb_device.c: 1554:     handle += (4*EPNum+2*direction+0u);
  9161  0B60  0870               	movf	USBConfigureEndpoint@direction,w
  9162  0B61  00F1               	movwf	??_USBConfigureEndpoint
  9163  0B62  3001               	movlw	1
  9164  0B63                     u167_25:
  9165  0B63  35F1               	lslf	??_USBConfigureEndpoint,f
  9166  0B64  0B89               	decfsz	9,f
  9167  0B65  2B63               	goto	u167_25
  9168  0B66  0875               	movf	USBConfigureEndpoint@EPNum,w
  9169  0B67  00F2               	movwf	??_USBConfigureEndpoint+1
  9170  0B68  3001               	movlw	1
  9171  0B69                     u168_25:
  9172  0B69  35F2               	lslf	??_USBConfigureEndpoint+1,f
  9173  0B6A  3EFF               	addlw	-1
  9174  0B6B  1D03               	skipz
  9175  0B6C  2B69               	goto	u168_25
  9176  0B6D  3572               	lslf	??_USBConfigureEndpoint+1,w
  9177  0B6E  0771               	addwf	??_USBConfigureEndpoint,w
  9178  0B6F  00F3               	movwf	??_USBConfigureEndpoint+2
  9179  0B70  3001               	movlw	1
  9180  0B71                     u169_25:
  9181  0B71  35F3               	lslf	??_USBConfigureEndpoint+2,f
  9182  0B72  3EFF               	addlw	-1
  9183  0B73  1D03               	skipz
  9184  0B74  2B71               	goto	u169_25
  9185  0B75  3573               	lslf	??_USBConfigureEndpoint+2,w
  9186  0B76  00F4               	movwf	??_USBConfigureEndpoint+3
  9187  0B77  0874               	movf	??_USBConfigureEndpoint+3,w
  9188  0B78  07F6               	addwf	USBConfigureEndpoint@handle,f
  9189  0B79                     i1l3027:
  9190                           
  9191                           ;mcc_generated_files/usb/usb_device.c: 1556:     handle->STAT.UOWN = 0;
  9192  0B79  0876               	movf	USBConfigureEndpoint@handle,w
  9193  0B7A  0086               	movwf	6
  9194  0B7B  0187               	clrf	7
  9195  0B7C  1381               	bcf	1,7
  9196  0B7D                     i1l3029:
  9197                           
  9198                           ;mcc_generated_files/usb/usb_device.c: 1561:     if(direction == 0)
  9199  0B7D  0870               	movf	USBConfigureEndpoint@direction,w
  9200  0B7E  1D03               	btfss	3,2
  9201  0B7F  2B81               	goto	u170_21
  9202  0B80  2B82               	goto	u170_20
  9203  0B81                     u170_21:
  9204  0B81  2B8C               	goto	i1l3033
  9205  0B82                     u170_20:
  9206  0B82                     i1l3031:
  9207                           
  9208                           ;mcc_generated_files/usb/usb_device.c: 1562:     {;mcc_generated_files/usb/usb_device.c:
      +                           1563:         pBDTEntryOut[EPNum] = handle;
  9209  0B82  3575               	lslf	USBConfigureEndpoint@EPNum,w
  9210  0B83  3EBD               	addlw	(low (_pBDTEntryOut| (0+256)))& (0+255)
  9211  0B84  0086               	movwf	6
  9212  0B85  3001               	movlw	1	; select bank3/4
  9213  0B86  0087               	movwf	7
  9214  0B87  0876               	movf	USBConfigureEndpoint@handle,w
  9215  0B88  3FC0               	movwi [0]fsr1
  9216  0B89  3000               	movlw	0
  9217  0B8A  3FC1               	movwi [1]fsr1
  9218                           
  9219                           ;mcc_generated_files/usb/usb_device.c: 1564:     }
  9220  0B8B  2B95               	goto	i1l3035
  9221  0B8C                     i1l3033:
  9222                           
  9223                           ;mcc_generated_files/usb/usb_device.c: 1566:     {;mcc_generated_files/usb/usb_device.c:
      +                           1567:         pBDTEntryIn[EPNum] = handle;
  9224  0B8C  3575               	lslf	USBConfigureEndpoint@EPNum,w
  9225  0B8D  3EB7               	addlw	(low (_pBDTEntryIn| (0+256)))& (0+255)
  9226  0B8E  0086               	movwf	6
  9227  0B8F  3001               	movlw	1	; select bank3/4
  9228  0B90  0087               	movwf	7
  9229  0B91  0876               	movf	USBConfigureEndpoint@handle,w
  9230  0B92  3FC0               	movwi [0]fsr1
  9231  0B93  3000               	movlw	0
  9232  0B94  3FC1               	movwi [1]fsr1
  9233  0B95                     i1l3035:
  9234                           
  9235                           ;mcc_generated_files/usb/usb_device.c: 1571:         handle->STAT.DTS = 0;
  9236  0B95  0876               	movf	USBConfigureEndpoint@handle,w
  9237  0B96  0086               	movwf	6
  9238  0B97  0187               	clrf	7
  9239  0B98  1301               	bcf	1,6
  9240  0B99                     i1l3037:
  9241                           
  9242                           ;mcc_generated_files/usb/usb_device.c: 1572:         (handle+1)->STAT.DTS = 1;
  9243  0B99  0876               	movf	USBConfigureEndpoint@handle,w
  9244  0B9A  3E04               	addlw	4
  9245  0B9B  0086               	movwf	6
  9246  0B9C  0187               	clrf	7
  9247  0B9D  1701               	bsf	1,6
  9248  0B9E                     i1l263:
  9249  0B9E  0008               	return
  9250  0B9F                     __end_of_USBConfigureEndpoint:
  9251                           
  9252                           	psect	text43
  9253  0AE0                     __ptext43:	
  9254 ;; *************** function _USBCtrlTrfOutHandler *****************
  9255 ;; Defined at:
  9256 ;;		line 2542 in file "mcc_generated_files/usb/usb_device.c"
  9257 ;; Parameters:    Size  Location     Type
  9258 ;;		None
  9259 ;; Auto vars:     Size  Location     Type
  9260 ;;		None
  9261 ;; Return value:  Size  Location     Type
  9262 ;;                  1    wreg      void 
  9263 ;; Registers used:
  9264 ;;		wreg, fsr1l, fsr1h, status,2, status,0, pclath, cstack
  9265 ;; Tracked objects:
  9266 ;;		On entry : 0/0
  9267 ;;		On exit  : 0/0
  9268 ;;		Unchanged: 0/0
  9269 ;; Data sizes:     COMMON   BANK0   BANK1   BANK2   BANK3   BANK4   BANK5   BANK6   BANK7   BANK8   BANK9  BANK10  BANK1
      +1  BANK12
  9270 ;;      Params:         0       0       0       0       0       0       0       0       0       0       0       0       
      +0       0
  9271 ;;      Locals:         0       0       0       0       0       0       0       0       0       0       0       0       
      +0       0
  9272 ;;      Temps:          2       0       0       0       0       0       0       0       0       0       0       0       
      +0       0
  9273 ;;      Totals:         2       0       0       0       0       0       0       0       0       0       0       0       
      +0       0
  9274 ;;Total ram usage:        2 bytes
  9275 ;; Hardware stack levels used: 1
  9276 ;; Hardware stack levels required when called: 2
  9277 ;; This function calls:
  9278 ;;		_USBCtrlTrfRxService
  9279 ;; This function is called by:
  9280 ;;		_USBCtrlEPService
  9281 ;; This function uses a non-reentrant model
  9282 ;;
  9283                           
  9284                           
  9285                           ;psect for function _USBCtrlTrfOutHandler
  9286  0AE0                     _USBCtrlTrfOutHandler:
  9287  0AE0                     i1l3703:	
  9288                           ;incstack = 0
  9289                           ; Regs used in _USBCtrlTrfOutHandler: [wreg+fsr1l+fsr1h+status,2+status,0+pclath+cstack]
  9290                           
  9291                           
  9292                           ;mcc_generated_files/usb/usb_device.c: 2544:     if(controlTransferState == 2)
  9293  0AE0  3002               	movlw	2
  9294  0AE1  0021               	movlb	1	; select bank1
  9295  0AE2  0645               	xorwf	_controlTransferState^(0+128),w	;volatile
  9296  0AE3  1D03               	btfss	3,2
  9297  0AE4  2AE6               	goto	u244_21
  9298  0AE5  2AE7               	goto	u244_20
  9299  0AE6                     u244_21:
  9300  0AE6  2AEB               	goto	i1l3707
  9301  0AE7                     u244_20:
  9302  0AE7                     i1l3705:
  9303                           
  9304                           ;mcc_generated_files/usb/usb_device.c: 2545:     {;mcc_generated_files/usb/usb_device.c:
      +                           2546:         USBCtrlTrfRxService();
  9305  0AE7  3184  245A  318A   	fcall	_USBCtrlTrfRxService
  9306                           
  9307                           ;mcc_generated_files/usb/usb_device.c: 2547:     }
  9308  0AEA  2B19               	goto	i1l373
  9309  0AEB                     i1l3707:
  9310                           
  9311                           ;mcc_generated_files/usb/usb_device.c: 2549:     {;mcc_generated_files/usb/usb_device.c:
      +                           2552:         controlTransferState = 0;
  9312  0AEB  01C5               	clrf	_controlTransferState^(0+128)	;volatile
  9313  0AEC                     i1l3709:
  9314                           
  9315                           ;mcc_generated_files/usb/usb_device.c: 2559:         if(BothEP0OutUOWNsSet == 0)
  9316  0AEC  0023               	movlb	3	; select bank3
  9317  0AED  0868               	movf	_BothEP0OutUOWNsSet^(0+384),w	;volatile
  9318  0AEE  1D03               	btfss	3,2
  9319  0AEF  2AF1               	goto	u245_21
  9320  0AF0  2AF2               	goto	u245_20
  9321  0AF1                     u245_21:
  9322  0AF1  2B18               	goto	i1l3719
  9323  0AF2                     u245_20:
  9324  0AF2                     i1l3711:
  9325                           
  9326                           ;mcc_generated_files/usb/usb_device.c: 2560:         {;mcc_generated_files/usb/usb_devic
      +                          e.c: 2561:             pBDTEntryEP0OutNext->CNT = 8;
  9327  0AF2  0021               	movlb	1	; select bank1
  9328  0AF3  0843               	movf	_pBDTEntryEP0OutNext^(0+128),w
  9329  0AF4  3E01               	addlw	1
  9330  0AF5  00F6               	movwf	??_USBCtrlTrfOutHandler
  9331  0AF6  3000               	movlw	0
  9332  0AF7  3D44               	addwfc	(_pBDTEntryEP0OutNext+1)^(0+128),w
  9333  0AF8  00F7               	movwf	??_USBCtrlTrfOutHandler+1
  9334  0AF9  0876               	movf	??_USBCtrlTrfOutHandler,w
  9335  0AFA  0086               	movwf	6
  9336  0AFB  0877               	movf	??_USBCtrlTrfOutHandler+1,w
  9337  0AFC  0087               	movwf	7
  9338  0AFD  3008               	movlw	8
  9339  0AFE  0081               	movwf	1
  9340  0AFF                     i1l3713:
  9341                           
  9342                           ;mcc_generated_files/usb/usb_device.c: 2562:             pBDTEntryEP0OutNext->ADR = (((u
      +                          int16_t)(&SetupPkt)) & 0x7FFF);
  9343  0AFF  3050               	movlw	80
  9344  0B00  00F6               	movwf	??_USBCtrlTrfOutHandler
  9345  0B01  3000               	movlw	0
  9346  0B02  00F7               	movwf	??_USBCtrlTrfOutHandler+1
  9347  0B03  0843               	movf	_pBDTEntryEP0OutNext^(0+128),w
  9348  0B04  0086               	movwf	6
  9349  0B05  0844               	movf	(_pBDTEntryEP0OutNext+1)^(0+128),w
  9350  0B06  0087               	movwf	7
  9351  0B07  3142               	addfsr 1,2
  9352  0B08  0876               	movf	??_USBCtrlTrfOutHandler,w
  9353  0B09  3FC0               	movwi [0]fsr1
  9354  0B0A  0877               	movf	??_USBCtrlTrfOutHandler+1,w
  9355  0B0B  3FC1               	movwi [1]fsr1
  9356  0B0C                     i1l3715:
  9357                           
  9358                           ;mcc_generated_files/usb/usb_device.c: 2563:             pBDTEntryEP0OutNext->STAT.Val =
      +                           0x00|(0x08 & 0x08)|0x04;
  9359  0B0C  0843               	movf	_pBDTEntryEP0OutNext^(0+128),w
  9360  0B0D  0086               	movwf	6
  9361  0B0E  0844               	movf	(_pBDTEntryEP0OutNext+1)^(0+128),w
  9362  0B0F  0087               	movwf	7
  9363  0B10  300C               	movlw	12
  9364  0B11  0081               	movwf	1
  9365  0B12                     i1l3717:
  9366                           
  9367                           ;mcc_generated_files/usb/usb_device.c: 2564:             pBDTEntryEP0OutNext->STAT.Val |
      +                          = 0x80;
  9368  0B12  0843               	movf	_pBDTEntryEP0OutNext^(0+128),w
  9369  0B13  0086               	movwf	6
  9370  0B14  0844               	movf	(_pBDTEntryEP0OutNext+1)^(0+128),w
  9371  0B15  0087               	movwf	7
  9372  0B16  1781               	bsf	1,7
  9373                           
  9374                           ;mcc_generated_files/usb/usb_device.c: 2565:         }
  9375  0B17  2B19               	goto	i1l373
  9376  0B18                     i1l3719:
  9377                           
  9378                           ;mcc_generated_files/usb/usb_device.c: 2567:         {;mcc_generated_files/usb/usb_devic
      +                          e.c: 2568:                 BothEP0OutUOWNsSet = 0;
  9379  0B18  01E8               	clrf	_BothEP0OutUOWNsSet^(0+384)	;volatile
  9380  0B19                     i1l373:
  9381  0B19  0008               	return
  9382  0B1A                     __end_of_USBCtrlTrfOutHandler:
  9383                           
  9384                           	psect	text44
  9385  045A                     __ptext44:	
  9386 ;; *************** function _USBCtrlTrfRxService *****************
  9387 ;; Defined at:
  9388 ;;		line 1856 in file "mcc_generated_files/usb/usb_device.c"
  9389 ;; Parameters:    Size  Location     Type
  9390 ;;		None
  9391 ;; Auto vars:     Size  Location     Type
  9392 ;;  byteToRead      1    5[COMMON] unsigned char 
  9393 ;;  i               1    4[COMMON] unsigned char 
  9394 ;; Return value:  Size  Location     Type
  9395 ;;                  1    wreg      void 
  9396 ;; Registers used:
  9397 ;;		wreg, fsr1l, fsr1h, status,2, status,0, pclath, cstack
  9398 ;; Tracked objects:
  9399 ;;		On entry : 0/0
  9400 ;;		On exit  : 0/0
  9401 ;;		Unchanged: 0/0
  9402 ;; Data sizes:     COMMON   BANK0   BANK1   BANK2   BANK3   BANK4   BANK5   BANK6   BANK7   BANK8   BANK9  BANK10  BANK1
      +1  BANK12
  9403 ;;      Params:         0       0       0       0       0       0       0       0       0       0       0       0       
      +0       0
  9404 ;;      Locals:         2       0       0       0       0       0       0       0       0       0       0       0       
      +0       0
  9405 ;;      Temps:          2       0       0       0       0       0       0       0       0       0       0       0       
      +0       0
  9406 ;;      Totals:         4       0       0       0       0       0       0       0       0       0       0       0       
      +0       0
  9407 ;;Total ram usage:        4 bytes
  9408 ;; Hardware stack levels used: 1
  9409 ;; Hardware stack levels required when called: 1
  9410 ;; This function calls:
  9411 ;;		_USBCtrlEPAllowStatusStage
  9412 ;; This function is called by:
  9413 ;;		_USBCtrlTrfOutHandler
  9414 ;; This function uses a non-reentrant model
  9415 ;;
  9416                           
  9417                           
  9418                           ;psect for function _USBCtrlTrfRxService
  9419  045A                     _USBCtrlTrfRxService:
  9420  045A                     i1l3567:	
  9421                           ;incstack = 0
  9422                           ; Regs used in _USBCtrlTrfRxService: [wreg+fsr1l+fsr1h+status,2+status,0+pclath+cstack]
  9423                           
  9424                           
  9425                           ;mcc_generated_files/usb/usb_device.c: 1858:     uint8_t byteToRead;;mcc_generated_files
      +                          /usb/usb_device.c: 1859:     uint8_t i;;mcc_generated_files/usb/usb_device.c: 1863:     
      +                          byteToRead = pBDTEntryEP0OutCurrent->CNT;
  9426  045A  0021               	movlb	1	; select bank1
  9427  045B  0846               	movf	_pBDTEntryEP0OutCurrent^(0+128),w
  9428  045C  0086               	movwf	6
  9429  045D  0187               	clrf	7
  9430  045E  3F41               	moviw [1]fsr1
  9431  045F  00F5               	movwf	USBCtrlTrfRxService@byteToRead
  9432  0460                     i1l3569:
  9433                           
  9434                           ;mcc_generated_files/usb/usb_device.c: 1869:     if(byteToRead > outPipes[0].wCount.Val)
  9435  0460  0875               	movf	USBCtrlTrfRxService@byteToRead,w
  9436  0461  00F2               	movwf	??_USBCtrlTrfRxService
  9437  0462  01F3               	clrf	??_USBCtrlTrfRxService+1
  9438  0463  0873               	movf	??_USBCtrlTrfRxService+1,w
  9439  0464  0023               	movlb	3	; select bank3
  9440  0465  0234               	subwf	((_outPipes+1)^(0+384)+3),w	;volatile
  9441  0466  1D03               	skipz
  9442  0467  2C6A               	goto	u233_25
  9443  0468  0872               	movf	??_USBCtrlTrfRxService,w
  9444  0469  0233               	subwf	(_outPipes^(0+384)+3),w	;volatile
  9445  046A                     u233_25:
  9446  046A  1803               	skipnc
  9447  046B  2C6D               	goto	u233_21
  9448  046C  2C6E               	goto	u233_20
  9449  046D                     u233_21:
  9450  046D  2C72               	goto	i1l294
  9451  046E                     u233_20:
  9452  046E                     i1l3571:
  9453                           
  9454                           ;mcc_generated_files/usb/usb_device.c: 1870:     {;mcc_generated_files/usb/usb_device.c:
      +                           1871:         byteToRead = outPipes[0].wCount.Val;
  9455  046E  0833               	movf	(_outPipes^(0+384)+3),w	;volatile
  9456  046F  00F2               	movwf	??_USBCtrlTrfRxService
  9457  0470  0872               	movf	??_USBCtrlTrfRxService,w
  9458  0471  00F5               	movwf	USBCtrlTrfRxService@byteToRead
  9459  0472                     i1l294:	
  9460                           ;mcc_generated_files/usb/usb_device.c: 1872:     }
  9461                           
  9462                           
  9463                           ;mcc_generated_files/usb/usb_device.c: 1874:     outPipes[0].wCount.Val -= byteToRead;
  9464  0472  0875               	movf	USBCtrlTrfRxService@byteToRead,w
  9465  0473  00F2               	movwf	??_USBCtrlTrfRxService
  9466  0474  01F3               	clrf	??_USBCtrlTrfRxService+1
  9467  0475  0872               	movf	??_USBCtrlTrfRxService,w
  9468  0476  02B3               	subwf	(_outPipes^(0+384)+3),f	;volatile
  9469  0477  0873               	movf	??_USBCtrlTrfRxService+1,w
  9470  0478  3BB4               	subwfb	((_outPipes+1)^(0+384)+3),f	;volatile
  9471  0479                     i1l3573:
  9472                           
  9473                           ;mcc_generated_files/usb/usb_device.c: 1878:     for(i=0;i<byteToRead;i++)
  9474  0479  01F4               	clrf	USBCtrlTrfRxService@i
  9475  047A  2C8F               	goto	i1l3581
  9476  047B                     i1l3575:
  9477                           
  9478                           ;mcc_generated_files/usb/usb_device.c: 1879:     {;mcc_generated_files/usb/usb_device.c:
      +                           1880:         *outPipes[0].pDst.bRam++ = CtrlTrfData[i];
  9479  047B  0874               	movf	USBCtrlTrfRxService@i,w
  9480  047C  3E58               	addlw	88
  9481  047D  0086               	movwf	6
  9482  047E  0187               	clrf	7
  9483  047F  0801               	movf	1,w
  9484  0480  00F2               	movwf	??_USBCtrlTrfRxService
  9485  0481  0830               	movf	_outPipes^(0+384),w	;volatile
  9486  0482  0086               	movwf	6
  9487  0483  3002               	movlw	2	; select bank4/5
  9488  0484  0087               	movwf	7
  9489  0485  0872               	movf	??_USBCtrlTrfRxService,w
  9490  0486  0081               	movwf	1
  9491  0487                     i1l3577:
  9492  0487  3001               	movlw	1
  9493  0488  00F2               	movwf	??_USBCtrlTrfRxService
  9494  0489  0872               	movf	??_USBCtrlTrfRxService,w
  9495  048A  07B0               	addwf	_outPipes^(0+384),f	;volatile
  9496  048B                     i1l3579:
  9497                           
  9498                           ;mcc_generated_files/usb/usb_device.c: 1881:     }
  9499  048B  3001               	movlw	1
  9500  048C  00F2               	movwf	??_USBCtrlTrfRxService
  9501  048D  0872               	movf	??_USBCtrlTrfRxService,w
  9502  048E  07F4               	addwf	USBCtrlTrfRxService@i,f
  9503  048F                     i1l3581:
  9504  048F  0875               	movf	USBCtrlTrfRxService@byteToRead,w
  9505  0490  0274               	subwf	USBCtrlTrfRxService@i,w
  9506  0491  1C03               	skipc
  9507  0492  2C94               	goto	u234_21
  9508  0493  2C95               	goto	u234_20
  9509  0494                     u234_21:
  9510  0494  2C7B               	goto	i1l3575
  9511  0495                     u234_20:
  9512  0495                     i1l3583:
  9513                           
  9514                           ;mcc_generated_files/usb/usb_device.c: 1885:     if(outPipes[0].wCount.Val > 0)
  9515  0495  0833               	movf	(_outPipes^(0+384)+3),w	;volatile
  9516  0496  0434               	iorwf	((_outPipes+1)^(0+384)+3),w	;volatile
  9517  0497  1903               	btfsc	3,2
  9518  0498  2C9A               	goto	u235_21
  9519  0499  2C9B               	goto	u235_20
  9520  049A                     u235_21:
  9521  049A  2CD4               	goto	i1l3595
  9522  049B                     u235_20:
  9523  049B                     i1l3585:
  9524                           
  9525                           ;mcc_generated_files/usb/usb_device.c: 1886:     {;mcc_generated_files/usb/usb_device.c:
      +                           1887:         pBDTEntryEP0OutNext->CNT = 8;
  9526  049B  0021               	movlb	1	; select bank1
  9527  049C  0843               	movf	_pBDTEntryEP0OutNext^(0+128),w
  9528  049D  3E01               	addlw	1
  9529  049E  00F2               	movwf	??_USBCtrlTrfRxService
  9530  049F  3000               	movlw	0
  9531  04A0  3D44               	addwfc	(_pBDTEntryEP0OutNext+1)^(0+128),w
  9532  04A1  00F3               	movwf	??_USBCtrlTrfRxService+1
  9533  04A2  0872               	movf	??_USBCtrlTrfRxService,w
  9534  04A3  0086               	movwf	6
  9535  04A4  0873               	movf	??_USBCtrlTrfRxService+1,w
  9536  04A5  0087               	movwf	7
  9537  04A6  3008               	movlw	8
  9538  04A7  0081               	movwf	1
  9539  04A8                     i1l3587:
  9540                           
  9541                           ;mcc_generated_files/usb/usb_device.c: 1888:         pBDTEntryEP0OutNext->ADR = (((uint1
      +                          6_t)(&CtrlTrfData)) & 0x7FFF);
  9542  04A8  3058               	movlw	88
  9543  04A9  00F2               	movwf	??_USBCtrlTrfRxService
  9544  04AA  3000               	movlw	0
  9545  04AB  00F3               	movwf	??_USBCtrlTrfRxService+1
  9546  04AC  0843               	movf	_pBDTEntryEP0OutNext^(0+128),w
  9547  04AD  0086               	movwf	6
  9548  04AE  0844               	movf	(_pBDTEntryEP0OutNext+1)^(0+128),w
  9549  04AF  0087               	movwf	7
  9550  04B0  3142               	addfsr 1,2
  9551  04B1  0872               	movf	??_USBCtrlTrfRxService,w
  9552  04B2  3FC0               	movwi [0]fsr1
  9553  04B3  0873               	movf	??_USBCtrlTrfRxService+1,w
  9554  04B4  3FC1               	movwi [1]fsr1
  9555  04B5                     i1l3589:
  9556                           
  9557                           ;mcc_generated_files/usb/usb_device.c: 1889:         if(pBDTEntryEP0OutCurrent->STAT.DTS
      +                           == 0)
  9558  04B5  0846               	movf	_pBDTEntryEP0OutCurrent^(0+128),w
  9559  04B6  0086               	movwf	6
  9560  04B7  0187               	clrf	7
  9561  04B8  1B01               	btfsc	1,6
  9562  04B9  2CBB               	goto	u236_21
  9563  04BA  2CBC               	goto	u236_20
  9564  04BB                     u236_21:
  9565  04BB  2CC8               	goto	i1l3593
  9566  04BC                     u236_20:
  9567  04BC                     i1l3591:
  9568                           
  9569                           ;mcc_generated_files/usb/usb_device.c: 1890:         {;mcc_generated_files/usb/usb_devic
      +                          e.c: 1891:             pBDTEntryEP0OutNext->STAT.Val = 0x40|(0x08 & 0x08);
  9570  04BC  0843               	movf	_pBDTEntryEP0OutNext^(0+128),w
  9571  04BD  0086               	movwf	6
  9572  04BE  0844               	movf	(_pBDTEntryEP0OutNext+1)^(0+128),w
  9573  04BF  0087               	movwf	7
  9574  04C0  3048               	movlw	72
  9575  04C1  0081               	movwf	1
  9576                           
  9577                           ;mcc_generated_files/usb/usb_device.c: 1892:             pBDTEntryEP0OutNext->STAT.Val |
      +                          = 0x80;
  9578  04C2  0843               	movf	_pBDTEntryEP0OutNext^(0+128),w
  9579  04C3  0086               	movwf	6
  9580  04C4  0844               	movf	(_pBDTEntryEP0OutNext+1)^(0+128),w
  9581  04C5  0087               	movwf	7
  9582  04C6  1781               	bsf	1,7
  9583                           
  9584                           ;mcc_generated_files/usb/usb_device.c: 1893:         }
  9585  04C7  2D05               	goto	i1l304
  9586  04C8                     i1l3593:
  9587                           
  9588                           ;mcc_generated_files/usb/usb_device.c: 1895:         {;mcc_generated_files/usb/usb_devic
      +                          e.c: 1896:             pBDTEntryEP0OutNext->STAT.Val = 0x00|(0x08 & 0x08);
  9589  04C8  0843               	movf	_pBDTEntryEP0OutNext^(0+128),w
  9590  04C9  0086               	movwf	6
  9591  04CA  0844               	movf	(_pBDTEntryEP0OutNext+1)^(0+128),w
  9592  04CB  0087               	movwf	7
  9593  04CC  3008               	movlw	8
  9594  04CD  0081               	movwf	1
  9595                           
  9596                           ;mcc_generated_files/usb/usb_device.c: 1897:             pBDTEntryEP0OutNext->STAT.Val |
      +                          = 0x80;
  9597  04CE  0843               	movf	_pBDTEntryEP0OutNext^(0+128),w
  9598  04CF  0086               	movwf	6
  9599  04D0  0844               	movf	(_pBDTEntryEP0OutNext+1)^(0+128),w
  9600  04D1  0087               	movwf	7
  9601  04D2  1781               	bsf	1,7
  9602  04D3  2D05               	goto	i1l304
  9603  04D4                     i1l3595:
  9604                           
  9605                           ;mcc_generated_files/usb/usb_device.c: 1901:     {;mcc_generated_files/usb/usb_device.c:
      +                           1905:         pBDTEntryEP0OutNext->CNT = 8;
  9606  04D4  0021               	movlb	1	; select bank1
  9607  04D5  0843               	movf	_pBDTEntryEP0OutNext^(0+128),w
  9608  04D6  3E01               	addlw	1
  9609  04D7  00F2               	movwf	??_USBCtrlTrfRxService
  9610  04D8  3000               	movlw	0
  9611  04D9  3D44               	addwfc	(_pBDTEntryEP0OutNext+1)^(0+128),w
  9612  04DA  00F3               	movwf	??_USBCtrlTrfRxService+1
  9613  04DB  0872               	movf	??_USBCtrlTrfRxService,w
  9614  04DC  0086               	movwf	6
  9615  04DD  0873               	movf	??_USBCtrlTrfRxService+1,w
  9616  04DE  0087               	movwf	7
  9617  04DF  3008               	movlw	8
  9618  04E0  0081               	movwf	1
  9619  04E1                     i1l3597:
  9620                           
  9621                           ;mcc_generated_files/usb/usb_device.c: 1906:         pBDTEntryEP0OutNext->ADR = (((uint1
      +                          6_t)(&SetupPkt)) & 0x7FFF);
  9622  04E1  3050               	movlw	80
  9623  04E2  00F2               	movwf	??_USBCtrlTrfRxService
  9624  04E3  3000               	movlw	0
  9625  04E4  00F3               	movwf	??_USBCtrlTrfRxService+1
  9626  04E5  0843               	movf	_pBDTEntryEP0OutNext^(0+128),w
  9627  04E6  0086               	movwf	6
  9628  04E7  0844               	movf	(_pBDTEntryEP0OutNext+1)^(0+128),w
  9629  04E8  0087               	movwf	7
  9630  04E9  3142               	addfsr 1,2
  9631  04EA  0872               	movf	??_USBCtrlTrfRxService,w
  9632  04EB  3FC0               	movwi [0]fsr1
  9633  04EC  0873               	movf	??_USBCtrlTrfRxService+1,w
  9634  04ED  3FC1               	movwi [1]fsr1
  9635  04EE                     i1l3599:
  9636                           
  9637                           ;mcc_generated_files/usb/usb_device.c: 1910:         pBDTEntryEP0OutNext->STAT.Val = 0x0
      +                          4;
  9638  04EE  0843               	movf	_pBDTEntryEP0OutNext^(0+128),w
  9639  04EF  0086               	movwf	6
  9640  04F0  0844               	movf	(_pBDTEntryEP0OutNext+1)^(0+128),w
  9641  04F1  0087               	movwf	7
  9642  04F2  3004               	movlw	4
  9643  04F3  0081               	movwf	1
  9644  04F4                     i1l3601:
  9645                           
  9646                           ;mcc_generated_files/usb/usb_device.c: 1911:         pBDTEntryEP0OutNext->STAT.Val |= 0x
      +                          80;
  9647  04F4  0843               	movf	_pBDTEntryEP0OutNext^(0+128),w
  9648  04F5  0086               	movwf	6
  9649  04F6  0844               	movf	(_pBDTEntryEP0OutNext+1)^(0+128),w
  9650  04F7  0087               	movwf	7
  9651  04F8  1781               	bsf	1,7
  9652  04F9                     i1l3603:
  9653                           
  9654                           ;mcc_generated_files/usb/usb_device.c: 1919:         {
  9655  04F9  0023               	movlb	3	; select bank3
  9656  04FA  0835               	movf	(low ((_outPipes| (0+256)+5)))^(0+128),w	;volatile
  9657  04FB  0836               	movf	((low ((_outPipes| (0+256)+5))+1))^(0+128),w	;volatile
  9658  04FC                     i1l302:
  9659  04FC  13B2               	bcf	(_outPipes^(0+384)+2),7	;volatile
  9660  04FD                     i1l3605:
  9661                           
  9662                           ;mcc_generated_files/usb/usb_device.c: 1945:         if(USBDeferStatusStagePacket == 0)
  9663  04FD  0866               	movf	_USBDeferStatusStagePacket^(0+384),w	;volatile
  9664  04FE  1D03               	btfss	3,2
  9665  04FF  2D01               	goto	u237_21
  9666  0500  2D02               	goto	u237_20
  9667  0501                     u237_21:
  9668  0501  2D05               	goto	i1l304
  9669  0502                     u237_20:
  9670  0502                     i1l3607:
  9671                           
  9672                           ;mcc_generated_files/usb/usb_device.c: 1946:         {;mcc_generated_files/usb/usb_devic
      +                          e.c: 1947:             USBCtrlEPAllowStatusStage();
  9673  0502  318D  2581  3184   	fcall	_USBCtrlEPAllowStatusStage
  9674  0505                     i1l304:
  9675  0505  0008               	return
  9676  0506                     __end_of_USBCtrlTrfRxService:
  9677                           
  9678                           	psect	text45
  9679  0D81                     __ptext45:	
  9680 ;; *************** function _USBCtrlEPAllowStatusStage *****************
  9681 ;; Defined at:
  9682 ;;		line 1420 in file "mcc_generated_files/usb/usb_device.c"
  9683 ;; Parameters:    Size  Location     Type
  9684 ;;		None
  9685 ;; Auto vars:     Size  Location     Type
  9686 ;;		None
  9687 ;; Return value:  Size  Location     Type
  9688 ;;                  1    wreg      void 
  9689 ;; Registers used:
  9690 ;;		wreg, fsr1l, fsr1h, status,2, status,0
  9691 ;; Tracked objects:
  9692 ;;		On entry : 0/0
  9693 ;;		On exit  : 0/0
  9694 ;;		Unchanged: 0/0
  9695 ;; Data sizes:     COMMON   BANK0   BANK1   BANK2   BANK3   BANK4   BANK5   BANK6   BANK7   BANK8   BANK9  BANK10  BANK1
      +1  BANK12
  9696 ;;      Params:         0       0       0       0       0       0       0       0       0       0       0       0       
      +0       0
  9697 ;;      Locals:         0       0       0       0       0       0       0       0       0       0       0       0       
      +0       0
  9698 ;;      Temps:          2       0       0       0       0       0       0       0       0       0       0       0       
      +0       0
  9699 ;;      Totals:         2       0       0       0       0       0       0       0       0       0       0       0       
      +0       0
  9700 ;;Total ram usage:        2 bytes
  9701 ;; Hardware stack levels used: 1
  9702 ;; This function calls:
  9703 ;;		Nothing
  9704 ;; This function is called by:
  9705 ;;		_USBDeviceTasks
  9706 ;;		_USBCtrlEPServiceComplete
  9707 ;;		_USBCtrlTrfRxService
  9708 ;; This function uses a non-reentrant model
  9709 ;;
  9710                           
  9711                           
  9712                           ;psect for function _USBCtrlEPAllowStatusStage
  9713  0D81                     _USBCtrlEPAllowStatusStage:
  9714  0D81                     i1l3247:	
  9715                           ;incstack = 0
  9716                           ; Regs used in _USBCtrlEPAllowStatusStage: [wreg+fsr1l+fsr1h+status,2+status,0]
  9717                           
  9718                           
  9719                           ;mcc_generated_files/usb/usb_device.c: 1427:     if(USBStatusStageEnabledFlag1 == 0)
  9720  0D81  0023               	movlb	3	; select bank3
  9721  0D82  0865               	movf	_USBStatusStageEnabledFlag1^(0+384),w	;volatile
  9722  0D83  1D03               	btfss	3,2
  9723  0D84  2D86               	goto	u191_21
  9724  0D85  2D87               	goto	u191_20
  9725  0D86                     u191_21:
  9726  0D86  2DFA               	goto	i1l252
  9727  0D87                     u191_20:
  9728  0D87                     i1l3249:
  9729                           
  9730                           ;mcc_generated_files/usb/usb_device.c: 1428:     {;mcc_generated_files/usb/usb_device.c:
      +                           1429:         USBStatusStageEnabledFlag1 = 1;
  9731  0D87  3001               	movlw	1
  9732  0D88  00F0               	movwf	??_USBCtrlEPAllowStatusStage
  9733  0D89  0870               	movf	??_USBCtrlEPAllowStatusStage,w
  9734  0D8A  00E5               	movwf	_USBStatusStageEnabledFlag1^(0+384)	;volatile
  9735  0D8B                     i1l3251:
  9736                           
  9737                           ;mcc_generated_files/usb/usb_device.c: 1430:         if(USBStatusStageEnabledFlag2 == 0)
  9738  0D8B  0864               	movf	_USBStatusStageEnabledFlag2^(0+384),w	;volatile
  9739  0D8C  1D03               	btfss	3,2
  9740  0D8D  2D8F               	goto	u192_21
  9741  0D8E  2D90               	goto	u192_20
  9742  0D8F                     u192_21:
  9743  0D8F  2DFA               	goto	i1l252
  9744  0D90                     u192_20:
  9745  0D90                     i1l3253:
  9746                           
  9747                           ;mcc_generated_files/usb/usb_device.c: 1431:         {;mcc_generated_files/usb/usb_devic
      +                          e.c: 1432:             USBStatusStageEnabledFlag2 = 1;
  9748  0D90  3001               	movlw	1
  9749  0D91  00F0               	movwf	??_USBCtrlEPAllowStatusStage
  9750  0D92  0870               	movf	??_USBCtrlEPAllowStatusStage,w
  9751  0D93  00E4               	movwf	_USBStatusStageEnabledFlag2^(0+384)	;volatile
  9752  0D94                     i1l3255:
  9753                           
  9754                           ;mcc_generated_files/usb/usb_device.c: 1436:             if(controlTransferState == 2)
  9755  0D94  3002               	movlw	2
  9756  0D95  0021               	movlb	1	; select bank1
  9757  0D96  0645               	xorwf	_controlTransferState^(0+128),w	;volatile
  9758  0D97  1D03               	btfss	3,2
  9759  0D98  2D9A               	goto	u193_21
  9760  0D99  2D9B               	goto	u193_20
  9761  0D9A                     u193_21:
  9762  0D9A  2DAE               	goto	i1l3263
  9763  0D9B                     u193_20:
  9764  0D9B                     i1l3257:
  9765                           
  9766                           ;mcc_generated_files/usb/usb_device.c: 1437:             {;mcc_generated_files/usb/usb_d
      +                          evice.c: 1438:                 pBDTEntryIn[0]->CNT = 0;
  9767  0D9B  0023               	movlb	3	; select bank3
  9768  0D9C  0837               	movf	_pBDTEntryIn^(0+384),w
  9769  0D9D  0086               	movwf	6
  9770  0D9E  0838               	movf	(_pBDTEntryIn+1)^(0+384),w
  9771  0D9F  0087               	movwf	7
  9772  0DA0  3141               	addfsr 1,1
  9773  0DA1  0181               	clrf	1
  9774  0DA2                     i1l3259:
  9775                           
  9776                           ;mcc_generated_files/usb/usb_device.c: 1439:                 pBDTEntryIn[0]->STAT.Val = 
      +                          0x40|(0x08 & 0x08);
  9777  0DA2  0837               	movf	_pBDTEntryIn^(0+384),w
  9778  0DA3  0086               	movwf	6
  9779  0DA4  0838               	movf	(_pBDTEntryIn+1)^(0+384),w
  9780  0DA5  0087               	movwf	7
  9781  0DA6  3048               	movlw	72
  9782  0DA7  0081               	movwf	1
  9783  0DA8                     i1l3261:
  9784                           
  9785                           ;mcc_generated_files/usb/usb_device.c: 1440:                 pBDTEntryIn[0]->STAT.Val |=
      +                           0x80;
  9786  0DA8  0837               	movf	_pBDTEntryIn^(0+384),w
  9787  0DA9  0086               	movwf	6
  9788  0DAA  0838               	movf	(_pBDTEntryIn+1)^(0+384),w
  9789  0DAB  0087               	movwf	7
  9790  0DAC  1781               	bsf	1,7
  9791                           
  9792                           ;mcc_generated_files/usb/usb_device.c: 1441:             }
  9793  0DAD  2DFA               	goto	i1l252
  9794  0DAE                     i1l3263:
  9795  0DAE  0345               	decf	_controlTransferState^(0+128),w	;volatile
  9796  0DAF  1D03               	btfss	3,2
  9797  0DB0  2DB2               	goto	u194_21
  9798  0DB1  2DB3               	goto	u194_20
  9799  0DB2                     u194_21:
  9800  0DB2  2DFA               	goto	i1l248
  9801  0DB3                     u194_20:
  9802  0DB3                     i1l3265:
  9803                           
  9804                           ;mcc_generated_files/usb/usb_device.c: 1443:             {;mcc_generated_files/usb/usb_d
      +                          evice.c: 1444:                 BothEP0OutUOWNsSet = 0;
  9805  0DB3  0023               	movlb	3	; select bank3
  9806  0DB4  01E8               	clrf	_BothEP0OutUOWNsSet^(0+384)	;volatile
  9807  0DB5                     i1l3267:
  9808                           
  9809                           ;mcc_generated_files/usb/usb_device.c: 1449:                     pBDTEntryEP0OutCurrent-
      +                          >CNT = 8;
  9810  0DB5  3008               	movlw	8
  9811  0DB6  00F0               	movwf	??_USBCtrlEPAllowStatusStage
  9812  0DB7  0021               	movlb	1	; select bank1
  9813  0DB8  0A46               	incf	_pBDTEntryEP0OutCurrent^(0+128),w
  9814  0DB9  0086               	movwf	6
  9815  0DBA  0187               	clrf	7
  9816  0DBB  0870               	movf	??_USBCtrlEPAllowStatusStage,w
  9817  0DBC  0081               	movwf	1
  9818  0DBD                     i1l3269:
  9819                           
  9820                           ;mcc_generated_files/usb/usb_device.c: 1450:                     pBDTEntryEP0OutCurrent-
      +                          >ADR = (((uint16_t)(&SetupPkt)) & 0x7FFF);
  9821  0DBD  3050               	movlw	80
  9822  0DBE  00F0               	movwf	??_USBCtrlEPAllowStatusStage
  9823  0DBF  3000               	movlw	0
  9824  0DC0  00F1               	movwf	??_USBCtrlEPAllowStatusStage+1
  9825  0DC1  0846               	movf	_pBDTEntryEP0OutCurrent^(0+128),w
  9826  0DC2  3E02               	addlw	2
  9827  0DC3  0086               	movwf	6
  9828  0DC4  0187               	clrf	7
  9829  0DC5  0870               	movf	??_USBCtrlEPAllowStatusStage,w
  9830  0DC6  3FC0               	movwi [0]fsr1
  9831  0DC7  0871               	movf	??_USBCtrlEPAllowStatusStage+1,w
  9832  0DC8  3FC1               	movwi [1]fsr1
  9833  0DC9                     i1l3271:
  9834                           
  9835                           ;mcc_generated_files/usb/usb_device.c: 1451:                     pBDTEntryEP0OutCurrent-
      +                          >STAT.Val = 0x04;
  9836  0DC9  3004               	movlw	4
  9837  0DCA  00F0               	movwf	??_USBCtrlEPAllowStatusStage
  9838  0DCB  0846               	movf	_pBDTEntryEP0OutCurrent^(0+128),w
  9839  0DCC  0086               	movwf	6
  9840  0DCD  0187               	clrf	7
  9841  0DCE  0870               	movf	??_USBCtrlEPAllowStatusStage,w
  9842  0DCF  0081               	movwf	1
  9843  0DD0                     i1l3273:
  9844                           
  9845                           ;mcc_generated_files/usb/usb_device.c: 1452:                     pBDTEntryEP0OutCurrent-
      +                          >STAT.Val |= 0x80;
  9846  0DD0  0846               	movf	_pBDTEntryEP0OutCurrent^(0+128),w
  9847  0DD1  0086               	movwf	6
  9848  0DD2  0187               	clrf	7
  9849  0DD3  1781               	bsf	1,7
  9850  0DD4                     i1l3275:
  9851                           
  9852                           ;mcc_generated_files/usb/usb_device.c: 1453:                     BothEP0OutUOWNsSet = 1;
  9853  0DD4  3001               	movlw	1
  9854  0DD5  00F0               	movwf	??_USBCtrlEPAllowStatusStage
  9855  0DD6  0870               	movf	??_USBCtrlEPAllowStatusStage,w
  9856  0DD7  0023               	movlb	3	; select bank3
  9857  0DD8  00E8               	movwf	_BothEP0OutUOWNsSet^(0+384)	;volatile
  9858  0DD9                     i1l3277:
  9859                           
  9860                           ;mcc_generated_files/usb/usb_device.c: 1457:                 pBDTEntryEP0OutNext->CNT = 
      +                          8;
  9861  0DD9  0021               	movlb	1	; select bank1
  9862  0DDA  0843               	movf	_pBDTEntryEP0OutNext^(0+128),w
  9863  0DDB  3E01               	addlw	1
  9864  0DDC  00F0               	movwf	??_USBCtrlEPAllowStatusStage
  9865  0DDD  3000               	movlw	0
  9866  0DDE  3D44               	addwfc	(_pBDTEntryEP0OutNext+1)^(0+128),w
  9867  0DDF  00F1               	movwf	??_USBCtrlEPAllowStatusStage+1
  9868  0DE0  0870               	movf	??_USBCtrlEPAllowStatusStage,w
  9869  0DE1  0086               	movwf	6
  9870  0DE2  0871               	movf	??_USBCtrlEPAllowStatusStage+1,w
  9871  0DE3  0087               	movwf	7
  9872  0DE4  3008               	movlw	8
  9873  0DE5  0081               	movwf	1
  9874  0DE6                     i1l3279:
  9875                           
  9876                           ;mcc_generated_files/usb/usb_device.c: 1458:                 pBDTEntryEP0OutNext->ADR = 
      +                          (((uint16_t)(&SetupPkt)) & 0x7FFF);
  9877  0DE6  3050               	movlw	80
  9878  0DE7  00F0               	movwf	??_USBCtrlEPAllowStatusStage
  9879  0DE8  3000               	movlw	0
  9880  0DE9  00F1               	movwf	??_USBCtrlEPAllowStatusStage+1
  9881  0DEA  0843               	movf	_pBDTEntryEP0OutNext^(0+128),w
  9882  0DEB  0086               	movwf	6
  9883  0DEC  0844               	movf	(_pBDTEntryEP0OutNext+1)^(0+128),w
  9884  0DED  0087               	movwf	7
  9885  0DEE  3142               	addfsr 1,2
  9886  0DEF  0870               	movf	??_USBCtrlEPAllowStatusStage,w
  9887  0DF0  3FC0               	movwi [0]fsr1
  9888  0DF1  0871               	movf	??_USBCtrlEPAllowStatusStage+1,w
  9889  0DF2  3FC1               	movwi [1]fsr1
  9890  0DF3                     i1l3281:
  9891                           
  9892                           ;mcc_generated_files/usb/usb_device.c: 1459:                 pBDTEntryEP0OutNext->STAT.V
      +                          al = 0x80;
  9893  0DF3  0843               	movf	_pBDTEntryEP0OutNext^(0+128),w
  9894  0DF4  0086               	movwf	6
  9895  0DF5  0844               	movf	(_pBDTEntryEP0OutNext+1)^(0+128),w
  9896  0DF6  0087               	movwf	7
  9897  0DF7  3080               	movlw	128
  9898  0DF8  0081               	movwf	1
  9899  0DF9  2DFA               	goto	i1l252
  9900  0DFA                     i1l248:	
  9901                           ;mcc_generated_files/usb/usb_device.c: 1461:         }
  9902                           
  9903  0DFA                     i1l252:
  9904  0DFA  0008               	return
  9905  0DFB                     __end_of_USBCtrlEPAllowStatusStage:
  9906                           
  9907                           	psect	text46
  9908  0DFB                     __ptext46:	
  9909 ;; *************** function _USBCtrlTrfInHandler *****************
  9910 ;; Defined at:
  9911 ;;		line 2596 in file "mcc_generated_files/usb/usb_device.c"
  9912 ;; Parameters:    Size  Location     Type
  9913 ;;		None
  9914 ;; Auto vars:     Size  Location     Type
  9915 ;;  lastDTS         1    5[COMMON] unsigned char 
  9916 ;; Return value:  Size  Location     Type
  9917 ;;                  1    wreg      void 
  9918 ;; Registers used:
  9919 ;;		wreg, fsr0l, fsr0h, fsr1l, fsr1h, status,2, status,0, pclath, cstack
  9920 ;; Tracked objects:
  9921 ;;		On entry : 0/0
  9922 ;;		On exit  : 0/0
  9923 ;;		Unchanged: 0/0
  9924 ;; Data sizes:     COMMON   BANK0   BANK1   BANK2   BANK3   BANK4   BANK5   BANK6   BANK7   BANK8   BANK9  BANK10  BANK1
      +1  BANK12
  9925 ;;      Params:         0       0       0       0       0       0       0       0       0       0       0       0       
      +0       0
  9926 ;;      Locals:         1       0       0       0       0       0       0       0       0       0       0       0       
      +0       0
  9927 ;;      Temps:          2       0       0       0       0       0       0       0       0       0       0       0       
      +0       0
  9928 ;;      Totals:         3       0       0       0       0       0       0       0       0       0       0       0       
      +0       0
  9929 ;;Total ram usage:        3 bytes
  9930 ;; Hardware stack levels used: 1
  9931 ;; Hardware stack levels required when called: 1
  9932 ;; This function calls:
  9933 ;;		_USBCtrlTrfTxService
  9934 ;; This function is called by:
  9935 ;;		_USBCtrlEPService
  9936 ;; This function uses a non-reentrant model
  9937 ;;
  9938                           
  9939                           
  9940                           ;psect for function _USBCtrlTrfInHandler
  9941  0DFB                     _USBCtrlTrfInHandler:
  9942  0DFB                     i1l3721:	
  9943                           ;incstack = 0
  9944                           ; Regs used in _USBCtrlTrfInHandler: [wreg-fsr1h+status,2+status,0+pclath+cstack]
  9945                           
  9946                           
  9947                           ;mcc_generated_files/usb/usb_device.c: 2598:     uint8_t lastDTS;;mcc_generated_files/us
      +                          b/usb_device.c: 2600:     lastDTS = pBDTEntryIn[0]->STAT.DTS;
  9948  0DFB  0023               	movlb	3	; select bank3
  9949  0DFC  0837               	movf	_pBDTEntryIn^(0+384),w
  9950  0DFD  0086               	movwf	6
  9951  0DFE  0838               	movf	(_pBDTEntryIn+1)^(0+384),w
  9952  0DFF  0087               	movwf	7
  9953  0E00  3000               	movlw	0
  9954  0E01  1B01               	btfsc	1,6
  9955  0E02  3001               	movlw	1
  9956  0E03  00F5               	movwf	USBCtrlTrfInHandler@lastDTS
  9957  0E04                     i1l3723:
  9958                           
  9959                           ;mcc_generated_files/usb/usb_device.c: 2603:     pBDTEntryIn[0] = (volatile BDT_ENTRY*)(
      +                          ((uint16_t)pBDTEntryIn[0]) ^ 0x0004);
  9960  0E04  3004               	movlw	4
  9961  0E05  0637               	xorwf	_pBDTEntryIn^(0+384),w
  9962  0E06  00B7               	movwf	_pBDTEntryIn^(0+384)
  9963  0E07  3000               	movlw	0
  9964  0E08  0638               	xorwf	(_pBDTEntryIn+1)^(0+384),w
  9965  0E09  00B8               	movwf	(_pBDTEntryIn+1)^(0+384)
  9966  0E0A                     i1l3725:
  9967                           
  9968                           ;mcc_generated_files/usb/usb_device.c: 2608:     if(USBDeviceState == ADR_PENDING_STATE)
  9969  0E0A  3008               	movlw	8
  9970  0E0B  0021               	movlb	1	; select bank1
  9971  0E0C  0648               	xorwf	_USBDeviceState^(0+128),w	;volatile
  9972  0E0D  1D03               	btfss	3,2
  9973  0E0E  2E10               	goto	u246_21
  9974  0E0F  2E11               	goto	u246_20
  9975  0E10                     u246_21:
  9976  0E10  2E26               	goto	i1l3735
  9977  0E11                     u246_20:
  9978  0E11                     i1l3727:
  9979                           
  9980                           ;mcc_generated_files/usb/usb_device.c: 2609:     {;mcc_generated_files/usb/usb_device.c:
      +                           2610:         UADDR = (SetupPkt.bDevADR & 0x7F);
  9981  0E11  0020               	movlb	0	; select bank0
  9982  0E12  0852               	movf	82,w	;volatile
  9983  0E13  397F               	andlw	127
  9984  0E14  003D               	movlb	29	; select bank29
  9985  0E15  0096               	movwf	22	;volatile
  9986  0E16                     i1l3729:
  9987                           
  9988                           ;mcc_generated_files/usb/usb_device.c: 2611:         if(UADDR != 0u)
  9989  0E16  0816               	movf	22,w	;volatile
  9990  0E17  1903               	btfsc	3,2
  9991  0E18  2E1A               	goto	u247_21
  9992  0E19  2E1B               	goto	u247_20
  9993  0E1A                     u247_21:
  9994  0E1A  2E21               	goto	i1l3733
  9995  0E1B                     u247_20:
  9996  0E1B                     i1l3731:
  9997                           
  9998                           ;mcc_generated_files/usb/usb_device.c: 2612:         {;mcc_generated_files/usb/usb_devic
      +                          e.c: 2613:             USBDeviceState=ADDRESS_STATE;
  9999  0E1B  3010               	movlw	16
 10000  0E1C  00F3               	movwf	??_USBCtrlTrfInHandler
 10001  0E1D  0873               	movf	??_USBCtrlTrfInHandler,w
 10002  0E1E  0021               	movlb	1	; select bank1
 10003  0E1F  00C8               	movwf	_USBDeviceState^(0+128)	;volatile
 10004                           
 10005                           ;mcc_generated_files/usb/usb_device.c: 2614:         }
 10006  0E20  2E26               	goto	i1l3735
 10007  0E21                     i1l3733:
 10008                           
 10009                           ;mcc_generated_files/usb/usb_device.c: 2616:         {;mcc_generated_files/usb/usb_devic
      +                          e.c: 2617:             USBDeviceState=DEFAULT_STATE;
 10010  0E21  3004               	movlw	4
 10011  0E22  00F3               	movwf	??_USBCtrlTrfInHandler
 10012  0E23  0873               	movf	??_USBCtrlTrfInHandler,w
 10013  0E24  0021               	movlb	1	; select bank1
 10014  0E25  00C8               	movwf	_USBDeviceState^(0+128)	;volatile
 10015  0E26                     i1l3735:
 10016                           
 10017                           ;mcc_generated_files/usb/usb_device.c: 2622:     if(controlTransferState == 1)
 10018  0E26  0345               	decf	_controlTransferState^(0+128),w	;volatile
 10019  0E27  1D03               	btfss	3,2
 10020  0E28  2E2A               	goto	u248_21
 10021  0E29  2E2B               	goto	u248_20
 10022  0E2A                     u248_21:
 10023  0E2A  2E6C               	goto	i1l379
 10024  0E2B                     u248_20:
 10025  0E2B                     i1l3737:
 10026                           
 10027                           ;mcc_generated_files/usb/usb_device.c: 2623:     {;mcc_generated_files/usb/usb_device.c:
      +                           2624:         pBDTEntryIn[0]->ADR = (((uint16_t)(CtrlTrfData)) & 0x7FFF);
 10028  0E2B  3058               	movlw	88
 10029  0E2C  00F3               	movwf	??_USBCtrlTrfInHandler
 10030  0E2D  3000               	movlw	0
 10031  0E2E  00F4               	movwf	??_USBCtrlTrfInHandler+1
 10032  0E2F  0023               	movlb	3	; select bank3
 10033  0E30  0837               	movf	_pBDTEntryIn^(0+384),w
 10034  0E31  0086               	movwf	6
 10035  0E32  0838               	movf	(_pBDTEntryIn+1)^(0+384),w
 10036  0E33  0087               	movwf	7
 10037  0E34  3142               	addfsr 1,2
 10038  0E35  0873               	movf	??_USBCtrlTrfInHandler,w
 10039  0E36  3FC0               	movwi [0]fsr1
 10040  0E37  0874               	movf	??_USBCtrlTrfInHandler+1,w
 10041  0E38  3FC1               	movwi [1]fsr1
 10042  0E39                     i1l3739:
 10043                           
 10044                           ;mcc_generated_files/usb/usb_device.c: 2625:         USBCtrlTrfTxService();
 10045  0E39  318E  26F5  318D   	fcall	_USBCtrlTrfTxService
 10046  0E3C                     i1l3741:
 10047                           
 10048                           ;mcc_generated_files/usb/usb_device.c: 2631:         if(shortPacketStatus == 2)
 10049  0E3C  3002               	movlw	2
 10050  0E3D  0023               	movlb	3	; select bank3
 10051  0E3E  066D               	xorwf	_shortPacketStatus^(0+384),w	;volatile
 10052  0E3F  1D03               	btfss	3,2
 10053  0E40  2E42               	goto	u249_21
 10054  0E41  2E43               	goto	u249_20
 10055  0E42                     u249_21:
 10056  0E42  2E4F               	goto	i1l3745
 10057  0E43                     u249_20:
 10058  0E43                     i1l3743:
 10059                           
 10060                           ;mcc_generated_files/usb/usb_device.c: 2632:         {;mcc_generated_files/usb/usb_devic
      +                          e.c: 2635:             pBDTEntryIn[0]->STAT.Val = 0x04;
 10061  0E43  0837               	movf	_pBDTEntryIn^(0+384),w
 10062  0E44  0086               	movwf	6
 10063  0E45  0838               	movf	(_pBDTEntryIn+1)^(0+384),w
 10064  0E46  0087               	movwf	7
 10065  0E47  3004               	movlw	4
 10066  0E48  0081               	movwf	1
 10067                           
 10068                           ;mcc_generated_files/usb/usb_device.c: 2636:             pBDTEntryIn[0]->STAT.Val |= 0x8
      +                          0;
 10069  0E49  0837               	movf	_pBDTEntryIn^(0+384),w
 10070  0E4A  0086               	movwf	6
 10071  0E4B  0838               	movf	(_pBDTEntryIn+1)^(0+384),w
 10072  0E4C  0087               	movwf	7
 10073  0E4D  1781               	bsf	1,7
 10074                           
 10075                           ;mcc_generated_files/usb/usb_device.c: 2637:         }
 10076  0E4E  2E76               	goto	i1l387
 10077  0E4F                     i1l3745:
 10078                           
 10079                           ;mcc_generated_files/usb/usb_device.c: 2639:         {;mcc_generated_files/usb/usb_devic
      +                          e.c: 2640:             if(lastDTS == 0)
 10080  0E4F  0875               	movf	USBCtrlTrfInHandler@lastDTS,w
 10081  0E50  1D03               	btfss	3,2
 10082  0E51  2E53               	goto	u250_21
 10083  0E52  2E54               	goto	u250_20
 10084  0E53                     u250_21:
 10085  0E53  2E60               	goto	i1l3749
 10086  0E54                     u250_20:
 10087  0E54                     i1l3747:
 10088                           
 10089                           ;mcc_generated_files/usb/usb_device.c: 2641:             {;mcc_generated_files/usb/usb_d
      +                          evice.c: 2642:                 pBDTEntryIn[0]->STAT.Val = 0x40|(0x08 & 0x08);
 10090  0E54  0837               	movf	_pBDTEntryIn^(0+384),w
 10091  0E55  0086               	movwf	6
 10092  0E56  0838               	movf	(_pBDTEntryIn+1)^(0+384),w
 10093  0E57  0087               	movwf	7
 10094  0E58  3048               	movlw	72
 10095  0E59  0081               	movwf	1
 10096                           
 10097                           ;mcc_generated_files/usb/usb_device.c: 2643:                 pBDTEntryIn[0]->STAT.Val |=
      +                           0x80;
 10098  0E5A  0837               	movf	_pBDTEntryIn^(0+384),w
 10099  0E5B  0086               	movwf	6
 10100  0E5C  0838               	movf	(_pBDTEntryIn+1)^(0+384),w
 10101  0E5D  0087               	movwf	7
 10102  0E5E  1781               	bsf	1,7
 10103                           
 10104                           ;mcc_generated_files/usb/usb_device.c: 2644:             }
 10105  0E5F  2E76               	goto	i1l387
 10106  0E60                     i1l3749:
 10107                           
 10108                           ;mcc_generated_files/usb/usb_device.c: 2646:             {;mcc_generated_files/usb/usb_d
      +                          evice.c: 2647:                 pBDTEntryIn[0]->STAT.Val = 0x00|(0x08 & 0x08);
 10109  0E60  0837               	movf	_pBDTEntryIn^(0+384),w
 10110  0E61  0086               	movwf	6
 10111  0E62  0838               	movf	(_pBDTEntryIn+1)^(0+384),w
 10112  0E63  0087               	movwf	7
 10113  0E64  3008               	movlw	8
 10114  0E65  0081               	movwf	1
 10115                           
 10116                           ;mcc_generated_files/usb/usb_device.c: 2648:                 pBDTEntryIn[0]->STAT.Val |=
      +                           0x80;
 10117  0E66  0837               	movf	_pBDTEntryIn^(0+384),w
 10118  0E67  0086               	movwf	6
 10119  0E68  0838               	movf	(_pBDTEntryIn+1)^(0+384),w
 10120  0E69  0087               	movwf	7
 10121  0E6A  1781               	bsf	1,7
 10122  0E6B  2E76               	goto	i1l387
 10123  0E6C                     i1l379:	
 10124                           ;mcc_generated_files/usb/usb_device.c: 2652:  else
 10125                           
 10126                           
 10127                           ;mcc_generated_files/usb/usb_device.c: 2653:  {;mcc_generated_files/usb/usb_device.c: 26
      +                          57:         if(outPipes[0].info.bits.busy == 1)
 10128  0E6C  0023               	movlb	3	; select bank3
 10129  0E6D  1FB2               	btfss	(_outPipes^(0+384)+2),7	;volatile
 10130  0E6E  2E70               	goto	u251_21
 10131  0E6F  2E71               	goto	u251_20
 10132  0E70                     u251_21:
 10133  0E70  2E74               	goto	i1l3753
 10134  0E71                     u251_20:
 10135  0E71                     i1l3751:
 10136                           
 10137                           ;mcc_generated_files/usb/usb_device.c: 2660:             {;mcc_generated_files/usb/usb_d
      +                          evice.c: 2661:                 outPipes[0].pFunc();
 10138  0E71  0835               	movf	(low ((_outPipes| (0+256)+5)))^(0+128),w	;volatile
 10139  0E72  0836               	movf	((low ((_outPipes| (0+256)+5))+1))^(0+128),w	;volatile
 10140  0E73                     i1l386:	
 10141                           ;mcc_generated_files/usb/usb_device.c: 2662:             }
 10142                           
 10143                           
 10144                           ;mcc_generated_files/usb/usb_device.c: 2663:             outPipes[0].info.bits.busy = 0;
 10145  0E73  13B2               	bcf	(_outPipes^(0+384)+2),7	;volatile
 10146  0E74                     i1l3753:
 10147                           
 10148                           ;mcc_generated_files/usb/usb_device.c: 2666:         controlTransferState = 0;
 10149  0E74  0021               	movlb	1	; select bank1
 10150  0E75  01C5               	clrf	_controlTransferState^(0+128)	;volatile
 10151  0E76                     i1l387:
 10152  0E76  0008               	return
 10153  0E77                     __end_of_USBCtrlTrfInHandler:
 10154                           
 10155                           	psect	text47
 10156  0EF5                     __ptext47:	
 10157 ;; *************** function _USBCtrlTrfTxService *****************
 10158 ;; Defined at:
 10159 ;;		line 1775 in file "mcc_generated_files/usb/usb_device.c"
 10160 ;; Parameters:    Size  Location     Type
 10161 ;;		None
 10162 ;; Auto vars:     Size  Location     Type
 10163 ;;  byteToSend      1    2[COMMON] unsigned char 
 10164 ;; Return value:  Size  Location     Type
 10165 ;;                  1    wreg      void 
 10166 ;; Registers used:
 10167 ;;		wreg, fsr0l, fsr0h, fsr1l, fsr1h, status,2, status,0, pclath
 10168 ;; Tracked objects:
 10169 ;;		On entry : 0/0
 10170 ;;		On exit  : 0/0
 10171 ;;		Unchanged: 0/0
 10172 ;; Data sizes:     COMMON   BANK0   BANK1   BANK2   BANK3   BANK4   BANK5   BANK6   BANK7   BANK8   BANK9  BANK10  BANK1
      +1  BANK12
 10173 ;;      Params:         0       0       0       0       0       0       0       0       0       0       0       0       
      +0       0
 10174 ;;      Locals:         1       0       0       0       0       0       0       0       0       0       0       0       
      +0       0
 10175 ;;      Temps:          2       0       0       0       0       0       0       0       0       0       0       0       
      +0       0
 10176 ;;      Totals:         3       0       0       0       0       0       0       0       0       0       0       0       
      +0       0
 10177 ;;Total ram usage:        3 bytes
 10178 ;; Hardware stack levels used: 1
 10179 ;; This function calls:
 10180 ;;		Nothing
 10181 ;; This function is called by:
 10182 ;;		_USBCtrlEPAllowDataStage
 10183 ;;		_USBCtrlTrfInHandler
 10184 ;; This function uses a non-reentrant model
 10185 ;;
 10186                           
 10187                           
 10188                           ;psect for function _USBCtrlTrfTxService
 10189  0EF5                     _USBCtrlTrfTxService:
 10190  0EF5                     i1l3165:	
 10191                           ;incstack = 0
 10192                           ; Regs used in _USBCtrlTrfTxService: [wreg-fsr1h+status,2+status,0+pclath]
 10193                           
 10194                           
 10195                           ;mcc_generated_files/usb/usb_device.c: 1777:     uint8_t byteToSend;;mcc_generated_files
      +                          /usb/usb_device.c: 1781:     byteToSend = 8;
 10196  0EF5  3008               	movlw	8
 10197  0EF6  00F0               	movwf	??_USBCtrlTrfTxService
 10198  0EF7  0870               	movf	??_USBCtrlTrfTxService,w
 10199  0EF8  00F2               	movwf	USBCtrlTrfTxService@byteToSend
 10200                           
 10201                           ;mcc_generated_files/usb/usb_device.c: 1782:     if(inPipes[0].wCount.Val < (uint8_t)8)
 10202  0EF9  3000               	movlw	0
 10203  0EFA  0021               	movlb	1	; select bank1
 10204  0EFB  0242               	subwf	((_inPipes+1)^(0+128)+3),w	;volatile
 10205  0EFC  3008               	movlw	8
 10206  0EFD  1903               	skipnz
 10207  0EFE  0241               	subwf	(_inPipes^(0+128)+3),w	;volatile
 10208  0EFF  1803               	skipnc
 10209  0F00  2F02               	goto	u180_21
 10210  0F01  2F03               	goto	u180_20
 10211  0F02                     u180_21:
 10212  0F02  2F1B               	goto	i1l279
 10213  0F03                     u180_20:
 10214  0F03                     i1l3167:
 10215                           
 10216                           ;mcc_generated_files/usb/usb_device.c: 1783:     {;mcc_generated_files/usb/usb_device.c:
      +                           1784:         byteToSend = inPipes[0].wCount.Val;
 10217  0F03  0841               	movf	(_inPipes^(0+128)+3),w	;volatile
 10218  0F04  00F0               	movwf	??_USBCtrlTrfTxService
 10219  0F05  0870               	movf	??_USBCtrlTrfTxService,w
 10220  0F06  00F2               	movwf	USBCtrlTrfTxService@byteToSend
 10221  0F07                     i1l3169:
 10222                           
 10223                           ;mcc_generated_files/usb/usb_device.c: 1791:         if(shortPacketStatus == 0)
 10224  0F07  0023               	movlb	3	; select bank3
 10225  0F08  086D               	movf	_shortPacketStatus^(0+384),w	;volatile
 10226  0F09  1D03               	btfss	3,2
 10227  0F0A  2F0C               	goto	u181_21
 10228  0F0B  2F0D               	goto	u181_20
 10229  0F0C                     u181_21:
 10230  0F0C  2F12               	goto	i1l3173
 10231  0F0D                     u181_20:
 10232  0F0D                     i1l3171:
 10233                           
 10234                           ;mcc_generated_files/usb/usb_device.c: 1792:         {;mcc_generated_files/usb/usb_devic
      +                          e.c: 1793:             shortPacketStatus = 1;
 10235  0F0D  3001               	movlw	1
 10236  0F0E  00F0               	movwf	??_USBCtrlTrfTxService
 10237  0F0F  0870               	movf	??_USBCtrlTrfTxService,w
 10238  0F10  00ED               	movwf	_shortPacketStatus^(0+384)	;volatile
 10239                           
 10240                           ;mcc_generated_files/usb/usb_device.c: 1794:         }
 10241  0F11  2F1B               	goto	i1l279
 10242  0F12                     i1l3173:
 10243  0F12  036D               	decf	_shortPacketStatus^(0+384),w	;volatile
 10244  0F13  1D03               	btfss	3,2
 10245  0F14  2F16               	goto	u182_21
 10246  0F15  2F17               	goto	u182_20
 10247  0F16                     u182_21:
 10248  0F16  2F1B               	goto	i1l279
 10249  0F17                     u182_20:
 10250  0F17                     i1l3175:
 10251                           
 10252                           ;mcc_generated_files/usb/usb_device.c: 1796:         {;mcc_generated_files/usb/usb_devic
      +                          e.c: 1797:             shortPacketStatus = 2;
 10253  0F17  3002               	movlw	2
 10254  0F18  00F0               	movwf	??_USBCtrlTrfTxService
 10255  0F19  0870               	movf	??_USBCtrlTrfTxService,w
 10256  0F1A  00ED               	movwf	_shortPacketStatus^(0+384)	;volatile
 10257  0F1B                     i1l279:	
 10258                           ;mcc_generated_files/usb/usb_device.c: 1799:     }
 10259                           
 10260                           
 10261                           ;mcc_generated_files/usb/usb_device.c: 1803:     inPipes[0].wCount.Val -= byteToSend;
 10262  0F1B  0872               	movf	USBCtrlTrfTxService@byteToSend,w
 10263  0F1C  00F0               	movwf	??_USBCtrlTrfTxService
 10264  0F1D  01F1               	clrf	??_USBCtrlTrfTxService+1
 10265  0F1E  0870               	movf	??_USBCtrlTrfTxService,w
 10266  0F1F  0021               	movlb	1	; select bank1
 10267  0F20  02C1               	subwf	(_inPipes^(0+128)+3),f	;volatile
 10268  0F21  0871               	movf	??_USBCtrlTrfTxService+1,w
 10269  0F22  3BC2               	subwfb	((_inPipes+1)^(0+128)+3),f	;volatile
 10270  0F23                     i1l3177:
 10271                           
 10272                           ;mcc_generated_files/usb/usb_device.c: 1808:     pBDTEntryIn[0]->CNT = byteToSend;
 10273  0F23  0023               	movlb	3	; select bank3
 10274  0F24  0837               	movf	_pBDTEntryIn^(0+384),w
 10275  0F25  3E01               	addlw	1
 10276  0F26  00F0               	movwf	??_USBCtrlTrfTxService
 10277  0F27  3000               	movlw	0
 10278  0F28  3D38               	addwfc	(_pBDTEntryIn+1)^(0+384),w
 10279  0F29  00F1               	movwf	??_USBCtrlTrfTxService+1
 10280  0F2A  0870               	movf	??_USBCtrlTrfTxService,w
 10281  0F2B  0086               	movwf	6
 10282  0F2C  0871               	movf	??_USBCtrlTrfTxService+1,w
 10283  0F2D  0087               	movwf	7
 10284  0F2E  0872               	movf	USBCtrlTrfTxService@byteToSend,w
 10285  0F2F  0081               	movwf	1
 10286  0F30                     i1l3179:
 10287                           
 10288                           ;mcc_generated_files/usb/usb_device.c: 1812:     pDst = (volatile uint8_t*)CtrlTrfData;
 10289  0F30  3058               	movlw	88
 10290  0F31  00F0               	movwf	??_USBCtrlTrfTxService
 10291  0F32  0870               	movf	??_USBCtrlTrfTxService,w
 10292  0F33  00EC               	movwf	_pDst^(0+384)
 10293  0F34                     i1l3181:
 10294                           
 10295                           ;mcc_generated_files/usb/usb_device.c: 1813:     if(inPipes[0].info.bits.ctrl_trf_mem ==
      +                           0x00)
 10296  0F34  0021               	movlb	1	; select bank1
 10297  0F35  1840               	btfsc	(_inPipes^(0+128)+2),0	;volatile
 10298  0F36  2F38               	goto	u183_21
 10299  0F37  2F39               	goto	u183_20
 10300  0F38                     u183_21:
 10301  0F38  2F72               	goto	i1l3203
 10302  0F39                     u183_20:
 10303  0F39  2F53               	goto	i1l3193
 10304  0F3A                     i1l3185:
 10305                           
 10306                           ;mcc_generated_files/usb/usb_device.c: 1816:         {;mcc_generated_files/usb/usb_devic
      +                          e.c: 1817:             *pDst++ = *inPipes[0].pSrc.bRom++;
 10307  0F3A  0021               	movlb	1	; select bank1
 10308  0F3B  083E               	movf	_inPipes^(0+128),w	;volatile
 10309  0F3C  0084               	movwf	4
 10310  0F3D  083F               	movf	(_inPipes+1)^(0+128),w	;volatile
 10311  0F3E  0085               	movwf	5
 10312  0F3F  0800               	movf	0,w	;code access
 10313  0F40  00F0               	movwf	??_USBCtrlTrfTxService
 10314  0F41  0023               	movlb	3	; select bank3
 10315  0F42  086C               	movf	_pDst^(0+384),w
 10316  0F43  0086               	movwf	6
 10317  0F44  0187               	clrf	7
 10318  0F45  0870               	movf	??_USBCtrlTrfTxService,w
 10319  0F46  0081               	movwf	1
 10320  0F47                     i1l3187:
 10321  0F47  3001               	movlw	1
 10322  0F48  0021               	movlb	1	; select bank1
 10323  0F49  07BE               	addwf	_inPipes^(0+128),f	;volatile
 10324  0F4A  3000               	movlw	0
 10325  0F4B  3DBF               	addwfc	(_inPipes+1)^(0+128),f	;volatile
 10326  0F4C                     i1l3189:
 10327  0F4C  3001               	movlw	1
 10328  0F4D  00F0               	movwf	??_USBCtrlTrfTxService
 10329  0F4E  0870               	movf	??_USBCtrlTrfTxService,w
 10330  0F4F  0023               	movlb	3	; select bank3
 10331  0F50  07EC               	addwf	_pDst^(0+384),f
 10332  0F51                     i1l3191:
 10333                           
 10334                           ;mcc_generated_files/usb/usb_device.c: 1818:             byteToSend--;
 10335  0F51  3001               	movlw	1
 10336  0F52  02F2               	subwf	USBCtrlTrfTxService@byteToSend,f
 10337  0F53                     i1l3193:
 10338                           
 10339                           ;mcc_generated_files/usb/usb_device.c: 1815:         while(byteToSend)
 10340  0F53  0872               	movf	USBCtrlTrfTxService@byteToSend,w
 10341  0F54  1D03               	btfss	3,2
 10342  0F55  2F57               	goto	u184_21
 10343  0F56  2F58               	goto	u184_20
 10344  0F57                     u184_21:
 10345  0F57  2F3A               	goto	i1l3185
 10346  0F58                     u184_20:
 10347  0F58  2F77               	goto	i1l291
 10348  0F59                     i1l3195:
 10349                           
 10350                           ;mcc_generated_files/usb/usb_device.c: 1824:         {;mcc_generated_files/usb/usb_devic
      +                          e.c: 1825:             *pDst++ = *inPipes[0].pSrc.bRam++;
 10351  0F59  0021               	movlb	1	; select bank1
 10352  0F5A  083E               	movf	_inPipes^(0+128),w	;volatile
 10353  0F5B  0084               	movwf	4
 10354  0F5C  083F               	movf	(_inPipes+1)^(0+128),w	;volatile
 10355  0F5D  0085               	movwf	5
 10356  0F5E  0800               	movf	0,w	;code access
 10357  0F5F  00F0               	movwf	??_USBCtrlTrfTxService
 10358  0F60  0023               	movlb	3	; select bank3
 10359  0F61  086C               	movf	_pDst^(0+384),w
 10360  0F62  0086               	movwf	6
 10361  0F63  0187               	clrf	7
 10362  0F64  0870               	movf	??_USBCtrlTrfTxService,w
 10363  0F65  0081               	movwf	1
 10364  0F66                     i1l3197:
 10365  0F66  3001               	movlw	1
 10366  0F67  0021               	movlb	1	; select bank1
 10367  0F68  07BE               	addwf	_inPipes^(0+128),f	;volatile
 10368  0F69  3000               	movlw	0
 10369  0F6A  3DBF               	addwfc	(_inPipes+1)^(0+128),f	;volatile
 10370  0F6B                     i1l3199:
 10371  0F6B  3001               	movlw	1
 10372  0F6C  00F0               	movwf	??_USBCtrlTrfTxService
 10373  0F6D  0870               	movf	??_USBCtrlTrfTxService,w
 10374  0F6E  0023               	movlb	3	; select bank3
 10375  0F6F  07EC               	addwf	_pDst^(0+384),f
 10376  0F70                     i1l3201:
 10377                           
 10378                           ;mcc_generated_files/usb/usb_device.c: 1826:             byteToSend--;
 10379  0F70  3001               	movlw	1
 10380  0F71  02F2               	subwf	USBCtrlTrfTxService@byteToSend,f
 10381  0F72                     i1l3203:
 10382                           
 10383                           ;mcc_generated_files/usb/usb_device.c: 1823:         while(byteToSend)
 10384  0F72  0872               	movf	USBCtrlTrfTxService@byteToSend,w
 10385  0F73  1D03               	btfss	3,2
 10386  0F74  2F76               	goto	u185_21
 10387  0F75  2F77               	goto	u185_20
 10388  0F76                     u185_21:
 10389  0F76  2F59               	goto	i1l3195
 10390  0F77                     u185_20:
 10391  0F77                     i1l291:
 10392  0F77  0008               	return
 10393  0F78                     __end_of_USBCtrlTrfTxService:
 10394  007E                     btemp	set	126	;btemp
 10395  007E                     int$flags	set	126
 10396  007E                     wtemp0	set	126
 10397                           
 10398                           	psect	config
 10399                           
 10400                           ;Config register CONFIG1 @ 0x8007
 10401                           ;	Oscillator Selection Bits
 10402                           ;	FOSC = INTOSC, INTOSC oscillator: I/O function on CLKIN pin
 10403                           ;	Watchdog Timer Enable
 10404                           ;	WDTE = OFF, WDT disabled
 10405                           ;	Power-up Timer Enable
 10406                           ;	PWRTE = OFF, PWRT disabled
 10407                           ;	MCLR Pin Function Select
 10408                           ;	MCLRE = ON, MCLR/VPP pin function is MCLR
 10409                           ;	Flash Program Memory Code Protection
 10410                           ;	CP = OFF, Program memory code protection is disabled
 10411                           ;	Brown-out Reset Enable
 10412                           ;	BOREN = ON, Brown-out Reset enabled
 10413                           ;	Clock Out Enable
 10414                           ;	CLKOUTEN = OFF, CLKOUT function is disabled. I/O or oscillator function on the CLKOUT 
      +                          pin
 10415                           ;	Internal/External Switchover Mode
 10416                           ;	IESO = ON, Internal/External Switchover Mode is enabled
 10417                           ;	Fail-Safe Clock Monitor Enable
 10418                           ;	FCMEN = ON, Fail-Safe Clock Monitor is enabled
 10419  8007                     	org	32775
 10420  8007  3FE4               	dw	16356
 10421                           
 10422                           ;Config register CONFIG2 @ 0x8008
 10423                           ;	Flash Memory Self-Write Protection
 10424                           ;	WRT = OFF, Write protection off
 10425                           ;	CPU System Clock Selection Bit
 10426                           ;	CPUDIV = NOCLKDIV, NO CPU system divide
 10427                           ;	USB Low SPeed Clock Selection bit
 10428                           ;	USBLSCLK = 48MHz, System clock expects 48 MHz, FS/LS USB CLKENs divide-by is set to 8.
 10429                           ;	PLL Multipler Selection Bit
 10430                           ;	PLLMULT = 3x, 3x Output Frequency Selected
 10431                           ;	PLL Enable Bit
 10432                           ;	PLLEN = ENABLED, 3x or 4x PLL Enabled
 10433                           ;	Stack Overflow/Underflow Reset Enable
 10434                           ;	STVREN = ON, Stack Overflow or Underflow will cause a Reset
 10435                           ;	Brown-out Reset Voltage Selection
 10436                           ;	BORV = LO, Brown-out Reset Voltage (Vbor), low trip point selected.
 10437                           ;	Low-Power Brown Out Reset
 10438                           ;	LPBOR = OFF, Low-Power BOR is disabled
 10439                           ;	Low-Voltage Programming Enable
 10440                           ;	LVP = ON, Low-voltage programming enabled
 10441  8008                     	org	32776
 10442  8008  3FCF               	dw	16335

Data Sizes:
    Strings     4
    Constant    175
    Data        0
    BSS         338
    Persistent  32
    Stack       0

Auto Spaces:
    Space          Size  Autos    Used
    COMMON           14     14      14
    BANK0            16     16      16
    BANK1            48     30      43
    BANK2             0      0       0
    BANK3            64      0      64
    BANK4            80      5      74
    BANK5            80      0      64
    BANK6            80      0      64
    BANK7            80      0      64
    BANK8            80      0       0
    BANK9            80      0       0
    BANK10           80      0       0
    BANK11           80      0       0
    BANK12           48      0       0

Pointer List with Targets:

    vfpfcnvrt@ap	PTR PTR void  size(1) Largest target is 1
		 -> printf@ap(BANK4[1]), 

    USER_USB_CALLBACK_EVENT_HANDLER@pdata	PTR void  size(2) Largest target is 4096
		 -> RAM(DATA[4096]), USTATcopy(BANK1[1]), USBActiveConfiguration(BANK1[1]), NULL(NULL[0]), 
		 -> BDT(BANK0[48]), 

    S2810_IO_FILE$buffer	PTR unsigned char  size(1) Largest target is 0

    fputc@fp.buffer	PTR unsigned char  size(1) Largest target is 0

    fputc@fp	PTR struct _IO_FILE size(1) Largest target is 0
		 -> NULL(NULL[0]), 

    vfprintf@ap	PTR PTR void  size(1) Largest target is 1
		 -> printf@ap(BANK4[1]), 

    vfprintf@fp	PTR struct _IO_FILE size(1) Largest target is 0
		 -> NULL(NULL[0]), 

    vfprintf@fmt	PTR const unsigned char  size(2) Largest target is 4
		 -> STR_1(CODE[4]), 

    vfprintf@cfmt	PTR unsigned char  size(2) Largest target is 4
		 -> STR_1(CODE[4]), 

    vfpfcnvrt@fp	PTR struct _IO_FILE size(1) Largest target is 0
		 -> NULL(NULL[0]), 

    vfpfcnvrt@fmt	PTR PTR unsigned char  size(1) Largest target is 2
		 -> vfprintf@cfmt(BANK1[2]), 

    printf@fmt	PTR const unsigned char  size(2) Largest target is 4
		 -> STR_1(CODE[4]), 

    printf@ap	PTR void [1] size(1) Largest target is 2
		 -> ?_printf(BANK4[2]), 

    memset@dest	PTR void  size(2) Largest target is 48
		 -> USBAlternateInterface(BANK3[2]), BDT(BANK0[48]), 

    memset@s	PTR unsigned char  size(2) Largest target is 48
		 -> USBAlternateInterface(BANK3[2]), BDT(BANK0[48]), 

    memcpy@d1	PTR void  size(1) Largest target is 8
		 -> SetupPkt(BANK0[8]), 

    memcpy@d	PTR unsigned char  size(1) Largest target is 8
		 -> SetupPkt(BANK0[8]), 

    memcpy@s1	PTR const void  size(2) Largest target is 4096
		 -> CtrlTrfData(BANK0[8]), RAM(DATA[4096]), SetupPkt(BANK0[8]), 

    memcpy@s	PTR const unsigned char  size(2) Largest target is 4096
		 -> CtrlTrfData(BANK0[8]), RAM(DATA[4096]), SetupPkt(BANK0[8]), 

    EUSART_SetErrorHandler@interruptHandler	PTR FTN()void  size(2) Largest target is 1
		 -> EUSART_DefaultErrorHandler(), 

    EUSART_ErrorHandler	PTR FTN()void  size(2) Largest target is 1
		 -> Absolute function(), EUSART_DefaultErrorHandler(), 

    EUSART_SetOverrunErrorHandler@interruptHandler	PTR FTN()void  size(2) Largest target is 1
		 -> EUSART_DefaultOverrunErrorHandler(), 

    EUSART_OverrunErrorHandler	PTR FTN()void  size(2) Largest target is 1
		 -> Absolute function(), EUSART_DefaultOverrunErrorHandler(), 

    EUSART_SetFramingErrorHandler@interruptHandler	PTR FTN()void  size(2) Largest target is 1
		 -> EUSART_DefaultFramingErrorHandler(), 

    EUSART_FramingErrorHandler	PTR FTN()void  size(2) Largest target is 1
		 -> Absolute function(), EUSART_DefaultFramingErrorHandler(), 

    CDCDataInHandle	PTR void  size(2) Largest target is 4096
		 -> RAM(DATA[4096]), NULL(NULL[0]), BDT(BANK0[48]), 

    CDCDataOutHandle	PTR void  size(2) Largest target is 4096
		 -> RAM(DATA[4096]), NULL(NULL[0]), BDT(BANK0[48]), 

    pCDCDst.wRom	PTR const unsigned short  size(2) Largest target is 0

    pCDCDst.bRom	PTR const unsigned char  size(2) Largest target is 0

    pCDCDst.wRam	PTR unsigned short  size(2) Largest target is 0

    pCDCDst.bRam	PTR unsigned char  size(2) Largest target is 0

    S1759_POINTER$wRom	PTR const unsigned short  size(2) Largest target is 0

    pCDCSrc.wRom	PTR const unsigned short  size(2) Largest target is 0

    S1759_POINTER$bRom	PTR const unsigned char  size(2) Largest target is 0

    pCDCSrc.bRom	PTR const unsigned char  size(2) Largest target is 0

    S1759_POINTER$wRam	PTR unsigned short  size(2) Largest target is 0

    pCDCSrc.wRam	PTR unsigned short  size(2) Largest target is 0

    S1759_POINTER$bRam	PTR unsigned char  size(2) Largest target is 0

    pCDCSrc.bRam	PTR unsigned char  size(2) Largest target is 0

    USBStdFeatureReqHandler@pUEP	PTR unsigned char  size(2) Largest target is 1
		 -> UEP0(SFR29[1]), 

    USBStdFeatureReqHandler@p	PTR struct __BDT size(2) Largest target is 4096
		 -> RAM(DATA[4096]), NULL(NULL[0]), BDT(BANK0[48]), 

    sp__memcpy	PTR void  size(1) Largest target is 8
		 -> SetupPkt(BANK0[8]), 

    USBStdGetStatusHandler@p	PTR struct __BDT size(2) Largest target is 4096
		 -> RAM(DATA[4096]), NULL(NULL[0]), BDT(BANK0[48]), 

    sp__memset	PTR void  size(2) Largest target is 48
		 -> USBAlternateInterface(BANK3[2]), BDT(BANK0[48]), 

    USBStdSetCfgHandler@p	PTR unsigned char  size(2) Largest target is 1
		 -> UEP1(SFR29[1]), 

    pDst	PTR volatile unsigned char  size(1) Largest target is 8
		 -> CtrlTrfData(BANK0[8]), NULL(NULL[0]), 

    USBConfigureEndpoint@handle	PTR volatile struct __BDT size(1) Largest target is 48
		 -> BDT(BANK0[48]), 

    pBDTEntryEP0OutCurrent	PTR volatile struct __BDT size(1) Largest target is 48
		 -> NULL(NULL[0]), BDT(BANK0[48]), 

    pBDTEntryEP0OutNext	PTR volatile struct __BDT size(2) Largest target is 4096
		 -> RAM(DATA[4096]), NULL(NULL[0]), BDT(BANK0[48]), 

    USBTransferOnePacket@data	PTR unsigned char  size(2) Largest target is 64
		 -> cdc_data_tx(BIGRAM[64]), cdc_data_rx(BIGRAM[64]), NULL(NULL[0]), 

    sp__USBTransferOnePacket	PTR void  size(2) Largest target is 4096
		 -> RAM(DATA[4096]), NULL(NULL[0]), BDT(BANK0[48]), 

    USBTransferOnePacket@handle	PTR volatile struct __BDT size(2) Largest target is 4096
		 -> RAM(DATA[4096]), NULL(NULL[0]), BDT(BANK0[48]), 

    USBEnableEndpoint@p	PTR unsigned char  size(2) Largest target is 1
		 -> UEP0(SFR29[1]), 

    pBDTEntryOut	PTR volatile struct __BDT[3] size(2) Largest target is 4096
		 -> RAM(DATA[4096]), NULL(NULL[0]), BDT(BANK0[48]), 

    pBDTEntryIn	PTR volatile struct __BDT[3] size(2) Largest target is 4096
		 -> RAM(DATA[4096]), NULL(NULL[0]), BDT(BANK0[48]), 

    S241$pFunc	PTR FTN()void  size(2) Largest target is 0
		 -> NULL(NULL[0]), 

    outPipes.pFunc	PTR FTN()void  size(2) Largest target is 0
		 -> NULL(NULL[0]), 

    S231$wRam	PTR unsigned short  size(1) Largest target is 0

    outPipes.pDst.wRam	PTR unsigned short  size(1) Largest target is 0

    S231$bRam	PTR unsigned char  size(1) Largest target is 0

    outPipes.pDst.bRam	PTR unsigned char  size(1) Largest target is 0

    S207$wRom	PTR const unsigned short  size(1) Largest target is 0

    inPipes.pSrc.wRom	PTR const unsigned short  size(1) Largest target is 0

    S207$wRam	PTR unsigned short  size(1) Largest target is 0

    inPipes.pSrc.wRam	PTR unsigned short  size(1) Largest target is 0

    S207$bRom	PTR const unsigned char  size(1) Largest target is 0

    inPipes.pSrc.bRom	PTR const unsigned char  size(1) Largest target is 0

    S207$bRam	PTR unsigned char  size(1) Largest target is 0

    inPipes.pSrc.bRam	PTR unsigned char  size(1) Largest target is 0

    USBDeviceInit@p	PTR unsigned char  size(2) Largest target is 1
		 -> UEP1(SFR29[1]), 

    USB_SD_Ptr	const PTR const unsigned char [3] size(2) Largest target is 52
		 -> sd002(CODE[26]), sd001(CODE[52]), sd000(CODE[4]), 

    USB_CD_Ptr	const PTR const unsigned char [1] size(2) Largest target is 67
		 -> configDescriptor1(CODE[67]), 


Critical Paths under _main in COMMON

    None.

Critical Paths under _INTERRUPT_InterruptManager in COMMON

    _USBCtrlEPServiceComplete->_USBCtrlEPAllowDataStage
    _USBCtrlEPAllowDataStage->_USBCtrlTrfTxService
    _USBStdSetCfgHandler->_memset
    _USER_USB_CALLBACK_EVENT_HANDLER->_CDCInitEP
    _CDCInitEP->_USBEnableEndpoint
    _USBEnableEndpoint->_USBConfigureEndpoint
    _USBCtrlTrfOutHandler->_USBCtrlTrfRxService
    _USBCtrlTrfRxService->_USBCtrlEPAllowStatusStage
    _USBCtrlTrfInHandler->_USBCtrlTrfTxService

Critical Paths under _main in BANK0

    None.

Critical Paths under _INTERRUPT_InterruptManager in BANK0

    _USBWakeFromSuspend->_USER_USB_CALLBACK_EVENT_HANDLER
    _USBSuspend->_USER_USB_CALLBACK_EVENT_HANDLER
    _USBCtrlEPService->_USBCtrlTrfSetupHandler
    _USBCtrlTrfSetupHandler->_USBCheckStdRequest
    _USBCheckStdRequest->_USBStdFeatureReqHandler
    _USBStdSetCfgHandler->_USER_USB_CALLBACK_EVENT_HANDLER
    _USBStdFeatureReqHandler->_USER_USB_CALLBACK_EVENT_HANDLER

Critical Paths under _main in BANK1

    _main->_printf
    _printf->_vfprintf
    _vfprintf->_vfpfcnvrt
    _vfpfcnvrt->_fputc
    _SYSTEM_Initialize->_USBDeviceInit
    _EUSART_Initialize->_EUSART_SetErrorHandler
    _EUSART_Initialize->_EUSART_SetFramingErrorHandler
    _EUSART_Initialize->_EUSART_SetOverrunErrorHandler

Critical Paths under _INTERRUPT_InterruptManager in BANK1

    _INTERRUPT_InterruptManager->_USBDeviceTasks
    _USBDeviceTasks->_USBCtrlEPService

Critical Paths under _main in BANK2

    None.

Critical Paths under _INTERRUPT_InterruptManager in BANK2

    None.

Critical Paths under _main in BANK3

    None.

Critical Paths under _INTERRUPT_InterruptManager in BANK3

    None.

Critical Paths under _main in BANK4

    _main->_printf

Critical Paths under _INTERRUPT_InterruptManager in BANK4

    None.

Critical Paths under _main in BANK5

    None.

Critical Paths under _INTERRUPT_InterruptManager in BANK5

    None.

Critical Paths under _main in BANK6

    None.

Critical Paths under _INTERRUPT_InterruptManager in BANK6

    None.

Critical Paths under _main in BANK7

    None.

Critical Paths under _INTERRUPT_InterruptManager in BANK7

    None.

Critical Paths under _main in BANK8

    None.

Critical Paths under _INTERRUPT_InterruptManager in BANK8

    None.

Critical Paths under _main in BANK9

    None.

Critical Paths under _INTERRUPT_InterruptManager in BANK9

    None.

Critical Paths under _main in BANK10

    None.

Critical Paths under _INTERRUPT_InterruptManager in BANK10

    None.

Critical Paths under _main in BANK11

    None.

Critical Paths under _INTERRUPT_InterruptManager in BANK11

    None.

Critical Paths under _main in BANK12

    None.

Critical Paths under _INTERRUPT_InterruptManager in BANK12

    None.

Call Graph Tables:

 ---------------------------------------------------------------------------------
 (Depth) Function   	        Calls       Base Space   Used Autos Params    Refs
 ---------------------------------------------------------------------------------
 (0) _main                                                 2     2      0    3082
                                              3 BANK4      2     2      0
                        _EUSART_Read
                       _EUSART_Write
                 _EUSART_is_tx_ready
                  _SYSTEM_Initialize
                             _printf
 ---------------------------------------------------------------------------------
 (1) _printf                                               6     4      2    2179
                                             29 BANK1      1     1      0
                                              0 BANK4      3     1      2
                           _vfprintf
 ---------------------------------------------------------------------------------
 (2) _vfprintf                                             8     5      3    2000
                                             21 BANK1      8     5      3
                          _vfpfcnvrt
 ---------------------------------------------------------------------------------
 (3) _vfpfcnvrt                                           40    38      2    1532
                                             13 BANK1      8     6      2
                              _fputc
 ---------------------------------------------------------------------------------
 (4) _fputc                                                8     5      3     976
                                              5 BANK1      8     5      3
                              _putch
 ---------------------------------------------------------------------------------
 (5) _putch                                                1     1      0       0
 ---------------------------------------------------------------------------------
 (1) _SYSTEM_Initialize                                    0     0      0     801
                  _EUSART_Initialize
              _OSCILLATOR_Initialize
             _PIN_MANAGER_Initialize
                    _USBDeviceAttach
                      _USBDeviceInit
                     _WDT_Initialize
 ---------------------------------------------------------------------------------
 (2) _WDT_Initialize                                       0     0      0       0
 ---------------------------------------------------------------------------------
 (2) _USBDeviceInit                                        5     5      0     396
                                              5 BANK1      5     5      0
 ---------------------------------------------------------------------------------
 (2) _USBDeviceAttach                                      1     1      0       0
                                              5 BANK1      1     1      0
 ---------------------------------------------------------------------------------
 (2) _PIN_MANAGER_Initialize                               0     0      0       0
 ---------------------------------------------------------------------------------
 (2) _OSCILLATOR_Initialize                                0     0      0       0
 ---------------------------------------------------------------------------------
 (2) _EUSART_Initialize                                    0     0      0     405
             _EUSART_SetErrorHandler
      _EUSART_SetFramingErrorHandler
      _EUSART_SetOverrunErrorHandler
 ---------------------------------------------------------------------------------
 (3) _EUSART_SetOverrunErrorHandler                        2     0      2     135
                                              5 BANK1      2     0      2
 ---------------------------------------------------------------------------------
 (3) _EUSART_SetFramingErrorHandler                        2     0      2     135
                                              5 BANK1      2     0      2
 ---------------------------------------------------------------------------------
 (3) _EUSART_SetErrorHandler                               2     0      2     135
                                              5 BANK1      2     0      2
 ---------------------------------------------------------------------------------
 (1) _EUSART_is_tx_ready                                   1     1      0      37
                                              5 BANK1      1     1      0
 ---------------------------------------------------------------------------------
 (1) _EUSART_Write                                         1     1      0      31
                                              5 BANK1      1     1      0
 ---------------------------------------------------------------------------------
 (1) _EUSART_Read                                          0     0      0       0
 ---------------------------------------------------------------------------------
 Estimated maximum stack depth 5
 ---------------------------------------------------------------------------------
 (Depth) Function   	        Calls       Base Space   Used Autos Params    Refs
 ---------------------------------------------------------------------------------
 (6) _INTERRUPT_InterruptManager                           0     0      0   39247
                     _USBDeviceTasks
 ---------------------------------------------------------------------------------
 (7) _USBDeviceTasks                                       3     3      0   39247
                                              2 BANK1      3     3      0
          _USBCtrlEPAllowStatusStage
                   _USBCtrlEPService
      _USBIncrement1msInternalTimers
                    _USBStallHandler
                         _USBSuspend
                 _USBWakeFromSuspend
    _USER_USB_CALLBACK_EVENT_HANDLER
                    i1_USBDeviceInit
 ---------------------------------------------------------------------------------
 (8) i1_USBDeviceInit                                      5     5      0     272
                                              0 COMMON     5     5      0
 ---------------------------------------------------------------------------------
 (8) _USBWakeFromSuspend                                   1     1      0    5136
                                              6 BANK0      1     1      0
    _USER_USB_CALLBACK_EVENT_HANDLER
 ---------------------------------------------------------------------------------
 (8) _USBSuspend                                           1     1      0    5136
                                              6 BANK0      1     1      0
    _USER_USB_CALLBACK_EVENT_HANDLER
 ---------------------------------------------------------------------------------
 (8) _USBStallHandler                                      1     1      0       0
                                              0 COMMON     1     1      0
 ---------------------------------------------------------------------------------
 (8) _USBIncrement1msInternalTimers                        1     1      0       0
                                              0 COMMON     1     1      0
 ---------------------------------------------------------------------------------
 (8) _USBCtrlEPService                                     2     2      0   23499
                                              0 BANK1      2     2      0
                _USBCtrlTrfInHandler
               _USBCtrlTrfOutHandler
             _USBCtrlTrfSetupHandler
                             _memcpy
 ---------------------------------------------------------------------------------
 (9) _memcpy                                              10     6      4     363
                                              0 COMMON    10     6      4
 ---------------------------------------------------------------------------------
 (9) _USBCtrlTrfSetupHandler                               1     1      0   22907
                                             15 BANK0      1     1      0
                 _USBCheckStdRequest
           _USBCtrlEPServiceComplete
    _USER_USB_CALLBACK_EVENT_HANDLER
 ---------------------------------------------------------------------------------
 (10) _USBCtrlEPServiceComplete                            2     2      0      92
                                              5 COMMON     2     2      0
            _USBCtrlEPAllowDataStage
          _USBCtrlEPAllowStatusStage
 ---------------------------------------------------------------------------------
 (11) _USBCtrlEPAllowDataStage                             2     2      0      92
                                              3 COMMON     2     2      0
                _USBCtrlTrfTxService
 ---------------------------------------------------------------------------------
 (10) _USBCheckStdRequest                                  2     2      0   17679
                                             13 BANK0      2     2      0
            _USBStdFeatureReqHandler
                _USBStdGetDscHandler
             _USBStdGetStatusHandler
                _USBStdSetCfgHandler
    _USER_USB_CALLBACK_EVENT_HANDLER
 ---------------------------------------------------------------------------------
 (11) _USBStdSetCfgHandler                                 5     5      0    6890
                                              6 BANK0      5     5      0
    _USER_USB_CALLBACK_EVENT_HANDLER
                             _memset
 ---------------------------------------------------------------------------------
 (12) _memset                                             14     8      6    1519
                                              0 COMMON    14     8      6
 ---------------------------------------------------------------------------------
 (11) _USBStdGetStatusHandler                              4     4      0      46
                                              0 COMMON     4     4      0
 ---------------------------------------------------------------------------------
 (11) _USBStdGetDscHandler                                 3     3      0       0
                                              0 COMMON     3     3      0
 ---------------------------------------------------------------------------------
 (11) _USBStdFeatureReqHandler                             7     7      0    5607
                                              6 BANK0      7     7      0
    _USER_USB_CALLBACK_EVENT_HANDLER
 ---------------------------------------------------------------------------------
 (8) _USER_USB_CALLBACK_EVENT_HANDLER                      6     0      6    5136
                                              0 BANK0      6     0      6
                          _CDCInitEP
                 _USBCheckCDCRequest
 ---------------------------------------------------------------------------------
 (9) _USBCheckCDCRequest                                   2     2      0       0
                                              0 COMMON     2     2      0
 ---------------------------------------------------------------------------------
 (9) _CDCInitEP                                            1     1      0    2444
                                             13 COMMON     1     1      0
                  _USBEnableEndpoint
               _USBTransferOnePacket
 ---------------------------------------------------------------------------------
 (10) _USBTransferOnePacket                               11     7      4    1711
                                              0 COMMON    11     7      4
 ---------------------------------------------------------------------------------
 (10) _USBEnableEndpoint                                   6     5      1     733
                                              7 COMMON     6     5      1
               _USBConfigureEndpoint
 ---------------------------------------------------------------------------------
 (11) _USBConfigureEndpoint                                7     6      1     400
                                              0 COMMON     7     6      1
 ---------------------------------------------------------------------------------
 (9) _USBCtrlTrfOutHandler                                 2     2      0     114
                                              6 COMMON     2     2      0
                _USBCtrlTrfRxService
 ---------------------------------------------------------------------------------
 (10) _USBCtrlTrfRxService                                 4     4      0     114
                                              2 COMMON     4     4      0
          _USBCtrlEPAllowStatusStage
 ---------------------------------------------------------------------------------
 (11) _USBCtrlEPAllowStatusStage                           2     2      0       0
                                              0 COMMON     2     2      0
 ---------------------------------------------------------------------------------
 (9) _USBCtrlTrfInHandler                                  3     3      0     115
                                              3 COMMON     3     3      0
                _USBCtrlTrfTxService
 ---------------------------------------------------------------------------------
 (12) _USBCtrlTrfTxService                                 3     3      0      92
                                              0 COMMON     3     3      0
 ---------------------------------------------------------------------------------
 Estimated maximum stack depth 12
 ---------------------------------------------------------------------------------

 Call Graph Graphs:

 _main (ROOT)
   _EUSART_Read
   _EUSART_Write
   _EUSART_is_tx_ready
   _SYSTEM_Initialize
     _EUSART_Initialize
       _EUSART_SetErrorHandler
       _EUSART_SetFramingErrorHandler
       _EUSART_SetOverrunErrorHandler
     _OSCILLATOR_Initialize
     _PIN_MANAGER_Initialize
     _USBDeviceAttach
     _USBDeviceInit
     _WDT_Initialize
   _printf
     _vfprintf
       _vfpfcnvrt
         _fputc
           _putch

 _INTERRUPT_InterruptManager (ROOT)
   _USBDeviceTasks
     _USBCtrlEPAllowStatusStage
     _USBCtrlEPService
       _USBCtrlTrfInHandler
         _USBCtrlTrfTxService
       _USBCtrlTrfOutHandler
         _USBCtrlTrfRxService
           _USBCtrlEPAllowStatusStage
       _USBCtrlTrfSetupHandler
         _USBCheckStdRequest
           _USBStdFeatureReqHandler
             _USER_USB_CALLBACK_EVENT_HANDLER
               _CDCInitEP
                 _USBEnableEndpoint
                   _USBConfigureEndpoint
                 _USBTransferOnePacket
               _USBCheckCDCRequest
           _USBStdGetDscHandler
           _USBStdGetStatusHandler
           _USBStdSetCfgHandler
             _USER_USB_CALLBACK_EVENT_HANDLER
             _memset
           _USER_USB_CALLBACK_EVENT_HANDLER
         _USBCtrlEPServiceComplete
           _USBCtrlEPAllowDataStage
             _USBCtrlTrfTxService
           _USBCtrlEPAllowStatusStage
         _USER_USB_CALLBACK_EVENT_HANDLER
       _memcpy
     _USBIncrement1msInternalTimers
     _USBStallHandler
     _USBSuspend
       _USER_USB_CALLBACK_EVENT_HANDLER
     _USBWakeFromSuspend
       _USER_USB_CALLBACK_EVENT_HANDLER
     _USER_USB_CALLBACK_EVENT_HANDLER
     i1_USBDeviceInit

 Address spaces:
Name               Size   Autos  Total    Cost      Usage
BIGRAM             3F0      0       0       0        0.0%
NULL                 0      0       0       0        0.0%
CODE                 0      0       0       0        0.0%
BITCOMMON            E      0       0       1        0.0%
BITSFR0              0      0       0       1        0.0%
SFR0                 0      0       0       1        0.0%
COMMON               E      E       E       2      100.0%
BITSFR1              0      0       0       2        0.0%
SFR1                 0      0       0       2        0.0%
BITSFR2              0      0       0       3        0.0%
SFR2                 0      0       0       3        0.0%
STACK                0      0       0       3        0.0%
BITBANK0            10      0       0       4        0.0%
BITSFR3              0      0       0       4        0.0%
SFR3                 0      0       0       4        0.0%
BANK0               10     10      10       5      100.0%
BITSFR4              0      0       0       5        0.0%
SFR4                 0      0       0       5        0.0%
BITBANK1            50      0       0       6        0.0%
BITSFR5              0      0       0       6        0.0%
SFR5                 0      0       0       6        0.0%
BANK1               30     1E      2B       7       89.6%
BITSFR6              0      0       0       7        0.0%
SFR6                 0      0       0       7        0.0%
BITBANK2            50      0       0       8        0.0%
BITSFR7              0      0       0       8        0.0%
SFR7                 0      0       0       8        0.0%
BITSFR8              0      0       0       9        0.0%
SFR8                 0      0       0       9        0.0%
BANK2                0      0       0       9        0.0%
BITBANK3            50      0       0      10        0.0%
BITSFR9              0      0       0      10        0.0%
SFR9                 0      0       0      10        0.0%
BANK3               40      0      40      11      100.0%
BITSFR10             0      0       0      11        0.0%
SFR10                0      0       0      11        0.0%
BITBANK4            50      0       0      12        0.0%
BITSFR11             0      0       0      12        0.0%
SFR11                0      0       0      12        0.0%
BANK4               50      5      4A      13       92.5%
BITSFR12             0      0       0      13        0.0%
SFR12                0      0       0      13        0.0%
BITBANK5            50      0       0      14        0.0%
BITSFR13             0      0       0      14        0.0%
SFR13                0      0       0      14        0.0%
BANK5               50      0      40      15       80.0%
BITSFR14             0      0       0      15        0.0%
SFR14                0      0       0      15        0.0%
BITBANK6            50      0       0      16        0.0%
BITSFR15             0      0       0      16        0.0%
SFR15                0      0       0      16        0.0%
BANK6               50      0      40      17       80.0%
BITSFR16             0      0       0      17        0.0%
SFR16                0      0       0      17        0.0%
BITBANK7            50      0       0      18        0.0%
BITSFR17             0      0       0      18        0.0%
SFR17                0      0       0      18        0.0%
BANK7               50      0      40      19       80.0%
BITSFR18             0      0       0      19        0.0%
SFR18                0      0       0      19        0.0%
BITSFR19             0      0       0      20        0.0%
SFR19                0      0       0      20        0.0%
ABS                  0      0     193      20        0.0%
BITBANK8            50      0       0      21        0.0%
BITSFR20             0      0       0      21        0.0%
SFR20                0      0       0      21        0.0%
BANK8               50      0       0      22        0.0%
BITSFR21             0      0       0      22        0.0%
SFR21                0      0       0      22        0.0%
BITBANK9            50      0       0      23        0.0%
BITSFR22             0      0       0      23        0.0%
SFR22                0      0       0      23        0.0%
BANK9               50      0       0      24        0.0%
BITSFR23             0      0       0      24        0.0%
SFR23                0      0       0      24        0.0%
BITBANK10           50      0       0      25        0.0%
BITSFR24             0      0       0      25        0.0%
SFR24                0      0       0      25        0.0%
BANK10              50      0       0      26        0.0%
BITSFR25             0      0       0      26        0.0%
SFR25                0      0       0      26        0.0%
BITBANK11           50      0       0      27        0.0%
BITSFR26             0      0       0      27        0.0%
SFR26                0      0       0      27        0.0%
BANK11              50      0       0      28        0.0%
BITSFR27             0      0       0      28        0.0%
SFR27                0      0       0      28        0.0%
BITBANK12           30      0       0      29        0.0%
BITSFR28             0      0       0      29        0.0%
SFR28                0      0       0      29        0.0%
BANK12              30      0       0      30        0.0%
BITSFR29             0      0       0      30        0.0%
SFR29                0      0       0      30        0.0%
BITSFR30             0      0       0      31        0.0%
SFR30                0      0       0      31        0.0%
DATA                 0      0     193      31        0.0%
BITSFR31             0      0       0      32        0.0%
SFR31                0      0       0      32        0.0%


Microchip Technology PIC Macro Assembler V2.32 build 20210201212658 
Symbol Table                                                                                   Mon Jan 03 15:14:47 2022

                                   _USB_SD_Ptr 10AB                                  _USBDeviceInit 03A5  
                           __size_of_CDCInitEP 0038           USER_USB_CALLBACK_EVENT_HANDLER@event 0060  
         USER_USB_CALLBACK_EVENT_HANDLER@pdata 0062                                            l241 0931  
                                          l242 0930                                            l244 093B  
                                          l181 03E8                    __end_of_USBStdGetDscHandler 076B  
                                          l186 0459                                            l703 08C4  
                                          l616 08EB                                            l722 0880  
                                          l715 08A4                                            l740 07FD  
                                          l652 08A3                                            l725 0889  
                                          l646 08D7                                            l719 08B2  
                                          l743 0874                                            l655 086B  
                                          l737 087D                                            l649 089E  
                                          _BDT 0020                                            l698 09E9  
                                          _UIE 0E92                                            _UIR 0E90  
                                   _USBSuspend 093C                 ?_EUSART_SetFramingErrorHandler 00A5  
                         USBStdSetCfgHandler@i 006A                           USBStdSetCfgHandler@p 0067  
                                          wreg 0009                                 _USBDeviceTasks 01BB  
                               _USBDeviceState 00C8                          ??_USBCtrlTrfRxService 0072  
                                 ?_EUSART_Read 0070                       USBEnableEndpoint@options 0077  
                                         l1313 0901                                           l1352 0A75  
                                         l1346 0EF4                                           l1364 0B5A  
                                         l1375 07FE                     USBConfigureEndpoint@handle 0076  
                                         l5111 08B3                                           l5103 08C5  
                                         l5113 08B5                                           l5105 08CE  
                                         l5131 08B1                                           l5123 08A4  
                                         l5115 08BA                                           l5107 08D1  
                                         l5125 08A9                                           l5117 08BF  
                                         l5109 08D4                                           l5141 08F2  
                                         l5127 08AB                                           l5135 0880  
                                         l5119 08C2                                           l5129 08AF  
                                         l5137 0885                                           l5161 0975  
                                         l5153 095C                                           l5139 08EC  
                                         l5155 095F                                           l5157 0966  
                                         l5159 096D                                           l4801 086C  
                                         l4811 0E9B                                           l4803 0E79  
                                         l4901 0435                                           l4813 0EAD  
                                         l4821 0EC6                                           l4805 0E8A  
                                         l4911 044A                                           l4903 043A  
                                         l4823 0ECE                                           l4815 0EB5  
                                         l4807 0E92                                           l4913 044B  
                                         l4905 043D                                           l4761 0B25  
                                         l4817 0EC0                                           l4809 0E97  
                                         l4915 044D                                           l4907 0442  
                                         l4851 03BE                                           l4835 03A5  
                                         l4763 0B2A                                           l4827 0ED1  
                                         l4917 0456                                           l4909 0444  
                                         l4861 03CD                                           l4853 03C4  
                                         l4845 03B1                                           l4837 03A7  
                                         l4765 0B34                                           l4757 0B1A  
                                         l4829 0EEA                                           l4951 092B  
                                         l4943 091E                                           l4919 0457  
                                         l4871 03EC                                           l4863 03DE  
                                         l4855 03CB                                           l4847 03B6  
                                         l4839 03AB                                           l4767 0B51  
                                         l4759 0B20                                           l4961 08DE  
                                         l4953 092D                                           l4945 0924  
                                         l4881 03F9                                           l4873 03ED  
                                         l4865 03E2                                           l4849 03BA  
                                         l4971 0899                                           l4963 08E0  
                                         l4955 0936                                           l4947 0927  
                                         l4891 040D                                           l4883 03FE  
                                         l4875 03F3                                           l4867 03EA  
                                         l4797 0875                                           l4981 09CF  
                                         l4973 089A                                           l4965 08E3  
                                         l4957 08D8                                           l4949 0929  
                                         l4885 040A                                           l4877 03F5  
                                         l4869 03EB                                           l4799 07F5  
                                         l4983 09D7                                           l4975 089C  
                                         l4967 08E7                                           l4959 08DB  
                                         l4895 040F                                           l4887 040B  
                                         l4879 03F7                                           l4991 0A4B  
                                         l4985 09DF                                           l4969 0896  
                                         l4897 042B                                           l4889 040C  
                                         l4977 0868                                           l4993 0A4F  
                                         l4987 09E7                                           l4979 09C4  
                                         l4899 042F                                           l4995 0A63  
                                         l4997 0A6D                                           l4989 0A47  
                                         STR_1 10A7                                           _LATA 010C  
                                         _LATC 010E                                           u4000 08A9  
                                         u4001 08A8                                           u4010 08AF  
                                         u4011 08AE                                           u4020 0885  
                                         u4021 0884                                           u4060 0975  
                                         u4061 0974                                           u3600 0E8A  
                                         u3601 0E89                                           u3610 0EAD  
                                         u3611 0EAC                                           u3620 03C4  
                                         u3621 03C3                                           u3710 0924  
                                         u3711 0923                                           u3720 0936  
                                         u3640 03E8                                           u3560 0B20  
                                         u3721 0935                                           u3641 03E7  
                                         u3561 0B1F                                           u3730 08A3  
                                         u3650 03FE                                           u3570 0B25  
                                         u3731 08A2                                           u3651 03FD  
                                         u3635 03D0                                           u3571 0B24  
                                         u3660 0435                                           u3580 0B34  
                                         u3740 0A6D                                           u3661 0434  
                                         u3581 0B33                                           u3741 0A6C  
                                         u3590 0B51                                           u3591 0B50  
                                         u3595 0B4D                                           u3980 08BA  
                                         u3981 08B9                                           u3990 08BF  
                                         u3991 08BE                          ??_USBCtrlTrfTxService 0070  
                                         _UCFG 0E91                                           _UEP0 0E98  
                                         _UEP1 0E99                                           _UEIE 0E97  
                                         _UEIR 0E93                                           _UCON 0E8E  
                                         _WPUA 020C                                _CDCDataInHandle 01D3  
       USBStdFeatureReqHandler@current_ep_data 006A                                           _pDst 01EC  
                                         _dbuf 0220                                           _main 095C  
                                         _prec 0250                                           _nout 01CD  
                                         fsr0h 0005                                           fsr1h 0007  
                                         indf0 0000                                           fsr0l 0004  
                                         indf1 0001                                    _BaudRateGen 024A  
                                         fsr1l 0006                                _USBDeviceAttach 091E  
                                         btemp 007E                                           start 0019  
                   __end_of_USBCheckStdRequest 1000                         ??_USBCtrlTrfOutHandler 0076  
                    ??_USBStdFeatureReqHandler 0066                       ??_USBStdGetStatusHandler 0070  
                               ?_USBDeviceInit 0070                                  ?_EUSART_Write 0070  
               __size_of_OSCILLATOR_Initialize 000E                  __end_of_OSCILLATOR_Initialize 08A4  
                                  _writeBuffer 0320                                          ?_main 0070  
            __size_of_USBCtrlEPServiceComplete 00A2                         __end_of_USBDeviceTasks 02DB  
                    ?_USBCtrlEPServiceComplete 0070                                          i1l202 026C  
                                        i1l203 02D8                                          i1l204 0273  
                                        i1l302 04FC                                          i1l222 07F4  
                                        i1l304 0505                                          i1l216 09C3  
                                        i1l313 06DF                                          i1l402 0FB8  
                                        i1l331 0CAE                                          i1l252 0DFA  
                                        i1l341 0D11                                          i1l181 0547  
                                        i1l334 0D03                                          i1l263 0B9E  
                                        i1l431 01BA                                          i1l327 076A  
                                        i1l335 0CB9                                          i1l248 0DFA  
                                        i1l336 0CBC                                          i1l192 01E8  
                                        i1l193 02DA                                          i1l506 0D80  
                                        i1l258 0CA9                                          i1l266 0601  
                                        i1l346 0A16                                          i1l186 05B0  
                                        i1l291 0F77                                          i1l427 0173  
                                        i1l363 0C49                                          i1l355 099E  
                                        i1l460 0AA7                                          i1l276 0652  
                                        i1l436 091D                                          i1l373 0B19  
                                        i1l429 0186                                          i1l349 095B  
                                        i1l294 0472                                          i1l366 0BF3  
                                        i1l198 0233                                          i1l279 0F1B  
                                        i1l519 0ADF                                          i1l391 0FFF  
                                        i1l393 0F82                                          i1l386 0E73  
                                        i1l387 0E76                                          i1l379 0E6C  
                                        i1l595 0017                                          _UADDR 0E96  
                                        _RCREG 0199                                          _RCSTA 019D  
                                 vfpfcnvrt@fmt 00AD                                          _TRISA 008C  
                                        _TRISC 008E                                          _USTAT 0E8F  
                                        _TXREG 019A                                          _TXSTA 019E  
           __size_of_USBCtrlEPAllowStatusStage 007A                __end_of_USBCtrlEPAllowDataStage 0CAA  
                                        _sd000 10A3                                          _sd001 1043  
                                        _sd002 1077                 ?_USBIncrement1msInternalTimers 0070  
                                        _flags 0252                                 _WDT_Initialize 0868  
                                        _fputc 0B1A                                          _width 024E  
                                        _putch 07FE                              __end_of_CDCInitEP 0AE0  
                                        status 0003                                          wtemp0 007E  
                 __size_of_USBStdSetCfgHandler 008D                                __initialization 001B  
                                 __end_of_main 097D                          _control_signal_bitmap 01DD  
                      _EUSART_is_tx_ready$2435 00A5                                 ??_EUSART_Write 00A5  
                  ?_INTERRUPT_InterruptManager 0070                      __size_of_USBCtrlEPService 0056  
                                       ??_main 0268                                ?_USBDeviceTasks 0070  
                                  ?_USBSuspend 0070                                i1_USBDeviceInit 0506  
                       __end_of_WDT_Initialize 086C                                   _cdc_mem_type 01DE  
            _EUSART_DefaultFramingErrorHandler 0000                        __end_of_USBDeviceAttach 093C  
                             _CDCDataOutHandle 01D5                     _EUSART_OverrunErrorHandler 01CF  
                                       ?_fputc 00A5                                         _ACTCON 039B  
                                       _APFCON 011D                                         _ANSELA 018C  
                                       ?_putch 0070                                         _ANSELC 018E  
                                       _BORCON 0116                                         i1l1300 03A4  
                                       i1l3101 0D1B                                         i1l3031 0B82  
                                       i1l3023 0B5C                                         i1l3111 0D2F  
                                       u200_20 06E7                                         i1l3201 0F70  
                                       i1l3033 0B8C                                         i1l3025 0B60  
                                       i1l3041 09A4                                         i1l3121 0D40  
                                       i1l3113 0D34                                         i1l3105 0D24  
                                       u200_21 06E6                                         i1l3203 0F72  
                                       i1l3035 0B95                                         i1l3027 0B79  
                                       i1l3043 09A9                                         i1l3051 076C  
                                       i1l3131 0D56                                         i1l3123 0D42  
                                       i1l3115 0D38                                         i1l3107 0D29  
                                       i1l3037 0B99                                         i1l3029 0B7D  
                                       i1l3045 09AD                                         i1l3053 0771  
                                       i1l3133 0D5A                                         i1l3125 0D4D  
                                       i1l3117 0D39                                         i1l3141 0D67  
                                       i1l3301 0C90                                         i1l4021 051E  
                                       i1l4005 0506                                         i1l3047 09B3  
                                       i1l3039 09A0                                         i1l3071 07BF  
                                       i1l3063 078D                                         i1l3055 077B  
                                       i1l3135 0D5F                                         i1l3127 0D4F  
                                       i1l3119 0D3B                                         i1l3151 0A7B  
                                       i1l3303 0C9E                                         i1l4031 052C  
                                       i1l4023 0524                                         i1l4015 0511  
                                       i1l4007 0508                                         u201_20 06FC  
                                       i1l1296 0A44                                         i1l3049 09BD  
                                       i1l3073 07D8                                         i1l3065 079C  
                                       i1l3057 0784                                         i1l3081 0AB1  
                                       i1l3137 0D64                                         i1l3129 0D51  
                                       u201_21 06FB                                         i1l3401 0CB6  
                                       i1l3305 0CA4                                         i1l4041 054B  
                                       i1l4033 053D                                         i1l4025 052B  
                                       i1l4017 0516                                         i1l4009 050C  
                                       i1l5001 01BB                                         i1l3171 0F0D  
                                       i1l3251 0D8B                                         i1l3075 07F0  
                                       i1l3067 07A8                                         i1l3059 078A  
                                       i1l3091 0AC9                                         i1l3083 0AB2  
                                       i1l3155 0A7F                                         i1l3147 0A76  
                                       i1l3411 0CEA                                         i1l3403 0CC3  
                                       i1l4051 0556                                         i1l4043 054C  
                                       i1l4035 0541                                         i1l4019 051A  
                                       i1l5011 01C9                                         i1l5003 01C1  
                                       i1l3181 0F34                                         i1l3173 0F12  
                                       i1l3165 0EF5                                         i1l3261 0DA8  
                                       i1l3253 0D90                                         i1l3069 07BA  
                                       i1l3093 0ADB                                         i1l3085 0AB7  
                                       i1l3149 0A77                                         i1l3501 017F  
                                       i1l3421 0D0D                                         i1l3405 0CCF  
                                       i1l4061 0567                                         i1l4053 055B  
                                       i1l4045 0550                                         i1l4037 0549  
                                       i1l5101 02D2                                         i1l5021 01E0  
                                       i1l5005 01C6                                         i1l5013 01CE  
                                       i1l3191 0F51                                         i1l3175 0F17  
                                       i1l3167 0F03                                         i1l3271 0DC9  
                                       i1l3263 0DAE                                         i1l3255 0D94  
                                       i1l3247 0D81                                         i1l3095 0ADD  
                                       i1l3087 0AB9                                         i1l3079 0AA8  
                                       i1l3503 018E                                         i1l3431 006E  
                                       i1l3407 0CDA                                         i1l3415 0CEF  
                                       i1l3511 05B1                                         i1l4071 058E  
                                       i1l4055 0564                                         i1l4047 0552  
                                       i1l4039 054A                                         i1l5031 01F5  
                                       i1l5023 01E5                                         i1l5015 01D3  
                                       i1l5007 01C7                                         u210_20 0077  
                                       u202_20 0734                                         i1l3185 0F3A  
                                       i1l3193 0F53                                         i1l3177 0F23  
                                       i1l3169 0F07                                         i1l3281 0DF3  
                                       i1l3273 0DD0                                         i1l3265 0DB3  
                                       i1l3257 0D9B                                         i1l3249 0D87  
                                       i1l3601 04F4                                         i1l3089 0AC1  
                                       i1l3097 0D12                                         i1l3505 019E  
                                       i1l3441 0085                                         u210_21 0076  
                                       i1l3433 0070                                         u202_21 0733  
                                       i1l3361 06E7                                         i1l3417 0D08  
                                       i1l3409 0CE2                                         i1l3521 05CB  
                                       i1l3513 05B8                                         i1l4081 05A1  
                                       i1l4073 0593                                         i1l4065 0568  
                                       i1l4057 0565                                         i1l4049 0554  
                                       i1l5041 0209                                         i1l5033 01F9  
                                       i1l5025 01EC                                         i1l5017 01D7  
                                       i1l5009 01C8                                         i1l3195 0F59  
                                       i1l3187 0F47                                         i1l3179 0F30  
                                       i1l3275 0DD4                                         i1l3267 0DB5  
                                       i1l3259 0DA2                                         i1l3603 04F9  
                                       i1l3507 01A6                                         i1l3451 00A9  
                                       i1l3443 008C                                         i1l3435 0077  
                                       i1l3427 0061                                         i1l3371 070C  
                                       i1l3363 06ED                                         i1l3419 0D0C  
                                       i1l3291 0C6D                                         i1l3283 0C4A  
                                       i1l3531 05EF                                         i1l3523 05CD  
                                       i1l3515 05BD                                         i1l4083 05A2  
                                       i1l4075 0596                                         i1l4067 0584  
                                       i1l4059 0566                                         i1l5051 022B  
                                       i1l5043 020E                                         i1l5027 01F0  
                                       i1l5035 01FE                                         i1l5019 01DD  
                                       i1l3197 0F66                                         i1l3189 0F4C  
                                       i1l3277 0DD9                                         i1l3269 0DBD  
                                       i1l3605 04FD                                         i1l3509 01B2  
                                       i1l3461 00E9                                         i1l3453 00BF  
                                       i1l3445 0093                                         i1l3437 007D  
                                       i1l3429 0067                                         i1l3381 0744  
                                       i1l3373 071B                                         i1l3365 06F2  
                                       i1l3293 0C73                                         i1l3285 0C4D  
                                       i1l3541 0611                                         i1l3533 05F4  
                                       i1l3517 05C2                                         i1l3525 05CF  
                                       i1l4085 05A4                                         i1l4077 059B  
                                       i1l4069 0588                                         i1l5061 0244  
                                       i1l5053 0231                                         i1l5045 0212  
                                       i1l5037 0202                                         i1l5029 01F3  
                                       i1l3199 0F6B                                         i1l3279 0DE6  
                                       i1l3607 0502                                         i1l3711 0AF2  
                                       i1l3703 0AE0                                         i1l3471 0112  
                                       i1l3463 00ED                                         i1l3455 00D4  
                                       i1l3447 009C                                         i1l3439 007F  
                                       i1l3383 0750                                         i1l3375 072B  
                                       i1l3367 06F7                                         i1l3359 06E0  
                                       i1l3287 0C54                                         i1l3295 0C79  
                                       i1l3543 0614                                         i1l3551 0620  
                                       i1l3535 05FB                                         i1l3527 05DC  
                                       i1l3519 05C8                                         i1l4087 05AD  
                                       i1l4079 059D                                         i1l5071 0262  
                                       i1l5063 0247                                         i1l5055 0238  
                                       i1l5047 0222                                         i1l5039 0206  
                                       i1l5151 0014                                         u211_20 0085  
                                       u203_20 0CB6                                         i1l3721 0DFB  
                                       i1l3713 0AFF                                         i1l3705 0AE7  
                                       i1l3473 0116                                         i1l3481 0130  
                                       i1l3465 00F9                                         i1l3457 00D8  
                                       i1l3449 00A3                                         u211_21 0084  
                                       i1l3385 0753                                         i1l3377 072E  
                                       i1l3369 06FC                                         u203_21 0CB5  
                                       i1l3297 0C86                                         i1l3289 0C60  
                                       i1l3561 0649                                         i1l3553 0625  
                                       i1l3545 0616                                         i1l3537 0606  
                                       i1l3529 05E9                                         i1l4089 05AE  
                                       i1l5081 0278                                         i1l5073 0269  
                                       i1l5065 024C                                         i1l5049 0228  
                                       i1l5057 023B                                         i1l5145 0006  
                                       i1l3731 0E1B                                         i1l3723 0E04  
                                       i1l3571 046E                                         i1l3715 0B0C  
                                       i1l3707 0AEB                                         i1l3491 015B  
                                       i1l3483 0136                                         i1l3475 011E  
                                       i1l3467 0104                                         i1l3459 00E3  
                                       i1l3379 0734                                         i1l3395 0CAA  
                                       i1l3299 0C8D                                         i1l3563 064B  
                                       i1l3555 0631                                         i1l3547 0617  
                                       i1l3539 060B                                         i1l5091 02A3  
                                       i1l5083 027D                                         i1l5075 0271  
                                       i1l5067 0250                                         i1l5059 0240  
                                       i1l5147 000A                                         i1l3741 0E3C  
                                       i1l3733 0E21                                         i1l3725 0E0A  
                                       i1l3581 048F                                         i1l3573 0479  
                                       i1l3717 0B12                                         i1l3709 0AEC  
                                       i1l3493 0160                                         i1l3485 013E  
                                       i1l3477 0125                                         i1l3469 010A  
                                       i1l3389 0756                                         i1l4621 02DB  
                                       i1l4701 06AB                                         i1l3557 063E  
                                       i1l3549 061C                                         i1l3901 094B  
                                       i1l5093 02B4                                         i1l5085 0286  
                                       i1l5069 0260                                         i1l5149 000F  
                                       i1l3751 0E71                                         i1l3743 0E43  
                                       i1l3727 0E11                                         i1l3735 0E26  
                                       i1l3591 04BC                                         i1l3583 0495  
                                       i1l3575 047B                                         i1l3567 045A  
                                       i1l3719 0B18                                         i1l3495 0167  
                                       i1l3487 0146                                         i1l3479 012A  
                                       i1l3399 0CB0                                         i1l4631 02FE  
                                       i1l4623 02DF                                         i1l4711 06C9  
                                       i1l4703 06B1                                         i1l3559 0644  
                                       i1l3671 0A2D                                         i1l3911 0919  
                                       i1l3903 094C                                         i1l5095 02BA  
                                       i1l5087 028C                                         u220_20 0112  
                                       u212_20 008C                                         u204_20 0CC3  
                                       i1l3753 0E74                                         i1l3745 0E4F  
                                       i1l3737 0E2B                                         i1l3729 0E16  
                                       i1l3593 04C8                                         i1l3585 049B  
                                       i1l3577 0487                                         i1l3569 0460  
                                       i1l3497 016B                                         i1l3489 014B  
                                       u220_21 0111                                         u212_21 008B  
                                       u204_21 0CC2                                         i1l4641 034E  
                                       i1l4713 06D9                                         i1l4705 06B7  
                                       i1l4721 0F8B                                         i1l3673 0A34  
                                       i1l3665 0A18                                         i1l3905 0902  
                                       i1l3921 0A10                                         i1l3913 09EA  
                                       i1l5097 02BE                                         i1l5089 0291  
                                       i1l3747 0E54                                         i1l3739 0E39  
                                       i1l3587 04A8                                         i1l3595 04D4  
                                       i1l3579 048B                                         i1l5291 0AA2  
                                       i1l3499 0177                                         i1l4651 0387  
                                       i1l4643 036C                                         i1l4635 0308  
                                       i1l4627 02E6                                         i1l4707 06BD  
                                       i1l5283 0FDC                                         i1l4731 0F9F  
                                       i1l4723 0F8F                                         i1l4715 0F78  
                                       i1l3667 0A21                                         i1l3675 0A38  
                                       i1l3907 090B                                         i1l3915 09EF  
                                       i1l3923 0A12                                         i1l5099 02CD  
                                       i1l3749 0E60                                         i1l3597 04E1  
                                       i1l3589 04B5                                         i1l5293 0D6F  
                                       i1l5285 0CF8                                         i1l4661 039E  
                                       i1l4653 038B                                         i1l4637 0344  
                                       i1l4629 02EC                                         i1l4709 06C2  
                                       i1l4741 0FB0                                         i1l4733 0FA1  
                                       i1l4725 0F93                                         i1l3669 0A29  
                                       i1l3909 0910                                         i1l3917 09F9  
                                       i1l3599 04EE                                         i1l5287 075F  
                                       i1l4655 0390                                         i1l4647 0376  
                                       i1l4671 065B                                         i1l4663 0653  
                                       i1l4743 0FB6                                         i1l4735 0FA5  
                                       i1l4727 0F98                                         i1l4719 0F84  
                                       i1l4751 0FD4                                         i1l3919 0A04  
                                       u221_20 0116                                         u213_20 0093  
                                       u205_20 0CE2                                         i1l5289 0A88  
                                       u221_21 0115                                         u213_21 0092  
                                       u205_21 0CE1                                         i1l4657 0396  
                                       i1l4649 0383                                         i1l4681 067C  
                                       i1l4673 0660                                         i1l4665 065A  
                                       i1l4745 0FBA                                         i1l4737 0FA9  
                                       i1l4729 0F99                                         i1l4921 0BF4  
                                       i1l3881 097F                                         i1l4659 039A  
                                       i1l4691 068C                                         i1l4683 067E  
                                       i1l4675 0664                                         i1l4747 0FC5  
                                       i1l4739 0FAF                                         i1l4771 0B9F  
                                       i1l4931 0C1A                                         i1l4923 0BFA  
                                       i1l3891 099C                                         i1l3883 098E  
                                       i1l4693 0690                                         i1l4677 0668  
                                       i1l4781 0BCB                                         i1l4773 0BA7  
                                       i1l4941 0C46                                         i1l4933 0C25  
                                       i1l4925 0C01                                         i1l3893 093C  
                                       i1l3885 0990                                         i1l4695 0696  
                                       i1l4679 066E                                         i1l4791 0BDE  
                                       i1l4783 0BD6                                         i1l4775 0BB2  
                                       i1l4935 0C35                                         i1l4927 0C0E  
                                       i1l3895 093E                                         i1l3887 0992  
                                       i1l3879 097D                                         u222_20 013E  
                                       u214_20 009C                                         u206_20 0CEA  
                                       u230_20 0611                                         u222_21 013D  
                                       u214_21 009B                                         u206_21 0CE9  
                                       i1l4697 06A4                                         i1l4689 0680  
                                       u230_21 0610                                         i1l4793 0BE1  
                                       i1l4785 0BD8                                         i1l4777 0BB9  
                                       i1l4937 0C39                                         i1l4929 0C14  
                                       i1l3897 0944                                         i1l3889 0998  
                                       i1l4699 06A6                                         i1l4795 0BF0  
                                       i1l4787 0BDA                                         i1l4779 0BC4  
                                       i1l4939 0C3D                                         i1l3899 0945  
                                       i1l4789 0BDC                                         u223_20 016B  
                                       u215_20 00A3                                         u207_20 0D08  
                                       u231_20 061C                                         u223_21 016A  
                                       u215_21 00A2                                         u207_21 0D07  
                                       u231_21 061B                                         u224_20 0173  
                                       u216_20 00A9                                         u208_20 0067  
                                       u232_20 0651                                         u224_21 0172  
                                       u216_21 00A8                                         u208_21 0066  
                                       u232_21 0650                                         u233_20 046E  
                                       u225_20 0177                                         u217_20 00D8  
                                       u209_20 006E                                         u233_21 046D  
                                       u225_21 0176                                         u217_21 00D7  
                                       u209_21 006D                                         u233_25 046A  
                                       u250_20 0E54                                         u234_20 0495  
                                       u170_20 0B82                                         u218_20 00ED  
                                       u226_20 05B8                                         u250_21 0E53  
                                       u234_21 0494                                         u170_21 0B81  
                                       u218_21 00EC                                         u226_21 05B7  
                                       u251_20 0E71                                         u235_20 049B  
                                       u171_20 09A4                                         u219_20 010A  
                                       u227_20 05BD                                         u243_20 0A44  
                                       u403_20 000A                                         u251_21 0E70  
                                       u235_21 049A                                         u171_21 09A3  
                                       u219_21 0109                                         u227_21 05BC  
                                       u243_21 0A43                                         u403_21 0009  
                                       u180_20 0F03                                         u236_20 04BC  
                                       u244_20 0AE7                                         u172_20 09AD  
                                       u228_20 05C8                                         u260_20 0910  
                                       u404_20 000F                                         u180_21 0F02  
                                       u236_21 04BB                                         u244_21 0AE6  
                                       u172_21 09AC                                         u228_21 05C7  
                                       u260_21 090F                                         u404_21 000E  
                   __end_of_EUSART_is_tx_ready 08C5                                         u181_20 0F0D  
                                       u237_20 0502                                         u245_20 0AF2  
                                       u173_20 0771                                         u229_20 0606  
                                       u261_20 0919                                         u405_20 0014  
                                       u181_21 0F0C                                         u237_21 0501  
                                       u245_21 0AF1                                         u173_21 0770  
                                       u229_21 0605                                         u261_21 0918  
                                       u405_21 0013                                         u182_20 0F17  
                                       u246_20 0E11                                         u174_20 078A  
                                       u350_20 0375                                         u262_20 09EF  
                                       u182_21 0F16                                         u246_21 0E10  
                                       u174_21 0789                                         u350_21 0374  
                                       u262_21 09EE                                         u183_20 0F39  
                                       u247_20 0E1B                                         u191_20 0D87  
                                       u175_20 07BF                                         u351_20 03A4  
                                       u263_20 09F9                                         u183_21 0F38  
                                       u247_21 0E1A                                         u191_21 0D86  
                                       u175_21 07BE                                         u351_21 03A3  
                                       u263_21 09F8                                         u167_25 0B63  
                                       u184_20 0F58                                         u248_20 0E2B  
                                       u192_20 0D90                                         u176_20 0D1A  
                                       u352_20 066E                                         u264_20 0A04  
                                       u184_21 0F57                                         u248_21 0E2A  
                                       u192_21 0D8F                                         u176_21 0D19  
                                       u352_21 066D                                         u264_21 0A03  
                                       u168_25 0B69                                         u185_20 0F77  
                                       u249_20 0E43                                         u193_20 0D9B  
                                       u177_20 0D23                                         u353_20 0696  
                                       u273_20 0524                                         u185_21 0F76  
                                       u249_21 0E42                                         u193_21 0D9A  
                                       u177_21 0D22                                         u353_21 0695  
                                       u273_21 0523                                         u169_25 0B71  
                                       u194_20 0DB3                                         u178_20 0D29  
                                       u354_20 06C2                                         u370_20 0C46  
                                       u194_21 0DB2                                         u178_21 0D28  
                                       u354_21 06C1                                         u370_21 0C45  
                                       u274_25 052F                                         u179_20 0D2E  
                                       u347_20 02E5                                         u355_20 0F81  
                                       u195_20 0C54                                         u259_20 099C  
                                       u275_20 0547                                         u179_21 0D2D  
                                       u347_21 02E4                                         u355_21 0F80  
                                       u195_21 0C53                                         u259_21 099B  
                                       u275_21 0546                                         u348_20 0307  
                                       u196_20 0C86                                         u276_20 055B  
                                       u380_20 01EC                                         u348_21 0306  
                                       u196_21 0C85                                         u276_21 055A  
                                       u380_21 01EB                                         u196_25 0C82  
                                       u349_20 034D                                         u277_20 058E  
                                       u381_20 01F0                                         u349_21 034C  
                                       u277_21 058D                                         u381_21 01EF  
                                       u390_20 024C                                         u382_20 0202  
                                       u390_21 024B                                         u382_21 0201  
                                       u367_20 0C01                                         u391_20 0250  
                                       u383_20 0206                                         u375_20 01C1  
                                       u367_21 0C00                                         u391_21 024F  
                                       u383_21 0205                                         u375_21 01C0  
                                       u392_20 0269                                         u384_20 020E  
                                       u376_20 01C6                                         u392_21 0268  
                                       u384_21 020D                                         u376_21 01C5  
                                       u368_25 0C05                                         u369_20 0C25  
                                       u393_20 0271                                         u385_20 0212  
                                       u377_20 01D3                                         u369_21 0C24  
                                       u393_21 0270                                         u385_21 0211  
                                       u377_21 01D2                                         u394_20 0278  
                                       u386_20 0231                                         u378_20 01D7  
                                       _OSCCON 0099                                         u394_21 0277  
                                       u386_21 0230                                         u378_21 01D6  
                                       u395_20 0291                                         u387_20 0238  
                                       u379_20 01E5                                         u395_21 0290  
                                       u387_21 0237                                         u379_21 01E4  
                                       u396_20 02BA                                         u388_20 0240  
                                       u396_21 02B9                                         u388_21 023F  
                                       u397_20 02D8                                         u389_20 0244  
                                       u397_21 02D7                                         u389_21 0243  
                                       _PLLRDY 04D6                                         _SPBRGH 019C  
                                       _SPBRGL 019B                                         _WDTCON 0097  
                            _shortPacketStatus 01ED                                USBDeviceTasks@i 00A4  
                                 vfprintf@cfmt 00BB                    USBStdFeatureReqHandler@pUEP 0068  
                     USBTransferOnePacket@data 0071                     USBCtrlTrfInHandler@lastDTS 0075  
                              ??_USBDeviceInit 00A5                              _USBEnableEndpoint 099F  
              __size_of_USBStdGetStatusHandler 0068                                         _memcpy 0A17  
                                       _memset 02DB                                         _printf 08EC  
                           ?_USBEnableEndpoint 0077                  __size_of_USBTransferOnePacket 008A  
                                       fputc@c 00A5                                ?_WDT_Initialize 0070  
                          ??_USBEnableEndpoint 0078                                         putch@c 0070  
                             __end_of_vfprintf 0A76                                    _CtrlTrfData 0058  
                         _controlTransferState 00C5                           __size_of_EUSART_Read 000F  
                            _SYSTEM_Initialize 08C5                        __end_of__initialization 005D  
                           ?_SYSTEM_Initialize 0070                       __size_of_USBStallHandler 002D  
                          __size_of_USBSuspend 0020                           i1USBDeviceInit@i_771 0073  
                               __pcstackCOMMON 0070                      __end_of_USBEnableEndpoint 09C4  
                                __end_of_sd000 10A7                                  __end_of_sd001 1077  
                                __end_of_sd002 1091                            ??_SYSTEM_Initialize 00AA  
             __size_of_USBCtrlEPAllowDataStage 0060                                  __end_of_fputc 0B5B  
                __size_of_USBConfigureEndpoint 0044                        __end_ofi1_USBDeviceInit 05B1  
                                __end_of_putch 07FF                    __end_of_USBCtrlTrfInHandler 0E77  
                               _OPTION_REGbits 0095                                     _cdc_notice 0240  
                                   _cdc_rx_len 01E0                                     _cdc_tx_len 01DF  
              ??_EUSART_SetOverrunErrorHandler 00A7                       ??_USBCtrlTrfSetupHandler 006F  
                      _USBTicksSinceSuspendEnd 01E1                               ?_USBDeviceAttach 0070  
                                      ??_fputc 00A8                      __end_of_SYSTEM_Initialize 08D8  
                       _USBStdGetStatusHandler 0CAA                                        ??_putch 00A5  
                                   __pbssBANK1 00BE                                     __pbssBANK3 01B0  
                                   __pbssBANK4 0220                                     __pbssBANK5 02A0  
                                   __pbssBANK6 0320                                     __pbssBANK7 03A0  
                         __end_of_EUSART_Write 088A                    __size_of_USBWakeFromSuspend 0022  
                                  _pBDTEntryIn 01B7               __end_of_USBCtrlEPServiceComplete 0653  
                  __size_of_USBCheckCDCRequest 006F                                     __pmaintext 095C  
                         USBCtrlTrfRxService@i 0074                                     __pintentry 0004  
                                      ?_memcpy 0070                                        _BAUDCON 019F  
                                      ?_memset 0070                                     _device_dsc 1091  
                             _USBCtrlEPService 0BF4                                        ?_printf 0265  
                                   _ep_data_in 01CA                    __end_of_USBCtrlTrfRxService 0506  
                           _USBCheckStdRequest 0F78                              _configDescriptor1 1000  
                  __end_of_USBCtrlTrfTxService 0F78                            _USBStdSetCfgHandler 0653  
                           __size_of_vfpfcnvrt 007E                                        _OSCTUNE 0098  
                     ??_EUSART_SetErrorHandler 00A7                            ?_USBCheckStdRequest 0070  
                 __size_of_USBStdGetDscHandler 008B                                        _UIEbits 0E92  
                                      _UIRbits 0E90                                  _cdc_trf_state 00C7  
                                      _pCDCDst 01D7                                        _pCDCSrc 01D9  
              ??_USBIncrement1msInternalTimers 0070                           ?_USBStdSetCfgHandler 0070  
                                    _CDCInitEP 0AA8                     __size_of_USBEnableEndpoint 0025  
                                   _readBuffer 02A0                           ??_USBCheckStdRequest 006D  
                __size_of_USBCtrlTrfOutHandler 003A                               ??_USBDeviceTasks 00A2  
                            ??_USBStallHandler 0070                                      ?_vfprintf 00B5  
                             ?i1_USBDeviceInit 0070                                __size_of_memcpy 002E  
                              __size_of_memset 00CA                      __end_of_configDescriptor1 1043  
                                      __ptext1 08EC                                        __ptext2 0A45  
                                      __ptext3 0E77                                        __ptext4 0B1A  
                                      __ptext5 07FE                                        __ptext6 08C5  
                                      __ptext7 0868                                        __ptext8 03A5  
                                      __ptext9 091E                                        _inPipes 00BE  
                              __size_of_printf 0016                    _USBDeferOUTDataStagePackets 01E2  
                        _OSCILLATOR_Initialize 0896                                   ??_USBSuspend 0066  
                     ??_PIN_MANAGER_Initialize 00A5                             __end_of_USB_CD_Ptr 10B3  
                   __size_of_SYSTEM_Initialize 0013                __size_of_USBCtrlTrfSetupHandler 0055  
                                      clrloop0 088B                           end_of_initialization 005D  
                           __end_of_USB_SD_Ptr 10B1          __end_of_EUSART_SetOverrunErrorHandler 07FE  
       __size_of_EUSART_SetOverrunErrorHandler 0009                  _EUSART_SetOverrunErrorHandler 07F5  
                                      memcpy@d 0079                                        memcpy@n 0072  
                                      memcpy@s 0075                            _pBDTEntryEP0OutNext 00C3  
                                      fputc@fp 00A7                                        memset@c 0072  
                                      memset@k 007A                                        memset@n 0074  
                                      memset@s 007C                                _USB1msTickCount 01C3  
              _dummy_encapsulated_cmd_response 0256                       ?_USBStdFeatureReqHandler 0070  
                            _EUSART_Initialize 09C4                          ??_USBStdSetCfgHandler 0066  
                                   ?_CDCInitEP 0070                             ?_EUSART_Initialize 0070  
                           __end_of_USBSuspend 095C                              __end_of_vfpfcnvrt 0EF5  
                      _USBCtrlEPAllowDataStage 0C4A                                      _RCSTAbits 019D  
                           _EUSART_is_tx_ready 08B3                                     ??_vfprintf 00B8  
                     _USBCtrlEPServiceComplete 05B1                     _USBStatusStageEnabledFlag1 01E5  
                   _USBStatusStageEnabledFlag2 01E4                            ??_EUSART_Initialize 00A7  
                             ??_WDT_Initialize 00A5                             USBEnableEndpoint@p 007A  
                          ?_EUSART_is_tx_ready 0070                          __size_of_EUSART_Write 000C  
                           _BothEP0OutUOWNsSet 01E8                      USBStdSetCfgHandler@i_1499 0069  
                    USBConfigureEndpoint@EPNum 0075                __size_of_EUSART_SetErrorHandler 0009  
                   ?_USBCtrlEPAllowStatusStage 0070            USER_USB_CALLBACK_EVENT_HANDLER@size 0064  
                                    _USTATcopy 00C9                      __end_of_EUSART_Initialize 09EA  
                 __end_of_USBTransferOnePacket 07F5                           ??_EUSART_is_tx_ready 00A5  
                                    _TXSTAbits 019E                                     main@rxData 0269  
                           USBDeviceInit@i_771 00A8                         _USBCtrlTrfSetupHandler 0B9F  
                        __end_of_USBDeviceInit 045A          __end_of_USBIncrement1msInternalTimers 091E  
       __size_of_USBIncrement1msInternalTimers 001C                  _USBIncrement1msInternalTimers 0902  
                   _EUSART_DefaultErrorHandler 0000                                    vfpfcnvrt@ap 00AE  
                                  vfpfcnvrt@fp 00B4                                   _EUSART_Write 087E  
                               __end_of_memcpy 0A45                         ?_OSCILLATOR_Initialize 0070  
                               __end_of_memset 03A5                              _USBBusIsSuspended 01EA  
                               __end_of_printf 0902                            start_initialization 001B  
                      ?_USBStdGetStatusHandler 0070                  USBCtrlTrfRxService@byteToRead 0075  
              __size_of_PIN_MANAGER_Initialize 0014                                  ??_EUSART_Read 00A5  
                                  _cdc_data_rx 20C0                                    _cdc_data_tx 2080  
                 __end_of_USBConfigureEndpoint 0B9F                __end_of_USBStdFeatureReqHandler 01BB  
            __end_of_USBCtrlEPAllowStatusStage 0DFB                       __end_of_USBCtrlEPService 0C4A  
                    ??_USBCtrlEPAllowDataStage 0073                                    ??_CDCInitEP 007D  
                               USBDeviceInit@i 00A9                                 USBDeviceInit@p 00A6  
               ?_EUSART_SetOverrunErrorHandler 00A5                         _pBDTEntryEP0OutCurrent 00C6  
                                  vfprintf@fmt 00B5                        USBTransferOnePacket@dir 0070  
                      USBTransferOnePacket@len 0073                                    _CDCRxBuffer 03A0  
                   _EUSART_FramingErrorHandler 01D1                                    _CDCRxLength 01DB  
                       _EUSART_SetErrorHandler 086C                            _USBStdGetDscHandler 06E0  
                                     ??_memcpy 0074                                       ??_memset 0076  
                                   memset@dest 0070                                       ??_printf 00BD  
                       _USBActiveConfiguration 00CA                 __end_of_USBStdGetStatusHandler 0D12  
                                    ___latbits 0002                                  __pcstackBANK0 0060  
                                __pcstackBANK1 00A0                   __size_of_USBCtrlTrfInHandler 007C  
                                __pcstackBANK4 0265                           ?_USBStdGetDscHandler 0070  
                   __end_of_USBWakeFromSuspend 099F                     __size_of_EUSART_Initialize 0026  
                              _USBStallHandler 09EA                                   _pBDTEntryOut 01BD  
                          __end_of_EUSART_Read 08B3                     __end_of_USBCheckCDCRequest 0D81  
                     __size_of_USBDeviceAttach 001E                         _PIN_MANAGER_Initialize 08D8  
                 ??_INTERRUPT_InterruptManager 007E                              __size_of_vfprintf 0031  
                         _USBTransferOnePacket 076B                   __end_of_USBCtrlTrfOutHandler 0B1A  
                        ??_USBStdGetDscHandler 0070                                    _ep_data_out 01C7  
                 __size_of_USBCtrlTrfRxService 00AC                                 __size_of_fputc 0041  
                USBConfigureEndpoint@direction 0070                                 __size_of_putch 0001  
                 __size_of_USBCtrlTrfTxService 0083         EUSART_SetErrorHandler@interruptHandler 00A5  
                   ??_USBCtrlEPServiceComplete 0075                                      clear_ram0 088A  
                                     _PIE2bits 0092                              _eusartRxLastError 01DC  
          __size_of_INTERRUPT_InterruptManager 0015                                       _PIR1bits 0011  
              ??_EUSART_SetFramingErrorHandler 00A7                                       _PIR2bits 0012  
                                     _UEP0bits 0E98                     _USBDeferINDataStagePackets 01E3  
            _EUSART_DefaultOverrunErrorHandler 0000                    __size_of_USBCheckStdRequest 0088  
                                     _UCONbits 0E8E                           _USBConfigureEndpoint 0B5B  
                                    _vfpfcnvrt 0E77               __size_of_USBStdFeatureReqHandler 015A  
                        ?_USBTransferOnePacket 0070                                   _RemoteWakeup 01EB  
                     __size_ofi1_USBDeviceInit 00AB                        __end_of_USBStallHandler 0A17  
                                  _EUSART_Read 08A4                    ??_USBCtrlEPAllowStatusStage 0070  
                  __end_of_USBStdSetCfgHandler 06E0                             __end_of_device_dsc 10A3  
                      ?_USBCtrlTrfSetupHandler 0070                        USBStdGetStatusHandler@p 0072  
                                    memcpy@tmp 0077                                     vfprintf@ap 00B7  
                                   vfprintf@fp 00BA                         USBTransferOnePacket@ep 0078  
                                     _SetupPkt 0050                        ??_OSCILLATOR_Initialize 00A5  
                          _EUSART_ErrorHandler 0254                          ?_USBConfigureEndpoint 0070  
                            ??_USBDeviceAttach 00A5                                     ?_vfpfcnvrt 00AD  
                                  _line_coding 025E                        __size_of_USBDeviceTasks 0120  
                                     __ptext10 08D8                                       __ptext11 0896  
                                     __ptext20 01BB                                       __ptext12 09C4  
                                     __ptext21 0506                                       __ptext13 07F5  
                                     __ptext30 0C4A                                       __ptext22 097D  
                                     __ptext14 0875                                       __ptext31 0F78  
                                     __ptext23 093C                                       __ptext15 086C  
                                     __ptext40 076B                                       __ptext32 0653  
                                     __ptext24 09EA                                       __ptext16 08B3  
                                     __ptext41 099F                                       __ptext33 02DB  
                                     __ptext25 0902                                       __ptext17 087E  
                                     __ptext42 0B5B                                       __ptext34 0CAA  
                                     __ptext26 0BF4                                       __ptext18 08A4  
                                     __ptext43 0AE0                                       __ptext35 06E0  
                                     __ptext27 0A17                                       __ptext44 045A  
                                     __ptext36 0061                                       __ptext28 0B9F  
                                     __ptext45 0D81                                       __ptext37 0A76  
                                     __ptext29 05B1                                       __ptext46 0DFB  
                                     __ptext38 0D12                                       __ptext47 0EF5  
                                     __ptext39 0AA8                 __end_of_USBCtrlTrfSetupHandler 0BF4  
                                __size_of_main 0021                              ?_USBCtrlEPService 0070  
                  __size_of_EUSART_is_tx_ready 0012                             ??_USBCtrlEPService 00A0  
                      ?_EUSART_SetErrorHandler 00A5                            _USBCtrlTrfInHandler 0DFB  
EUSART_SetOverrunErrorHandler@interruptHandler 00A5                                       _outPipes 01B0  
                         _USBCtrlTrfOutHandler 0AE0                                       int$flags 007E  
                    _USBCtrlEPAllowStatusStage 0D81                                       _vfprintf 0A45  
           __end_of_INTERRUPT_InterruptManager 0019                     _INTERRUPT_InterruptManager 0004  
                                    printf@fmt 0265          __end_of_EUSART_SetFramingErrorHandler 087E  
       __size_of_EUSART_SetFramingErrorHandler 0009                  _EUSART_SetFramingErrorHandler 0875  
                       ??_USBTransferOnePacket 0074                      _USBDeferStatusStagePacket 01E6  
                             i1USBDeviceInit@i 0074                               i1USBDeviceInit@p 0071  
                                   _INTCONbits 000B                           ?_USBCtrlTrfInHandler 0070  
                                     memcpy@d1 0078                                       memcpy@s1 0070  
                USBCtrlTrfTxService@byteToSend 0072                               ?_USBStallHandler 0070  
                     USBStdFeatureReqHandler@p 006B                        __size_of_WDT_Initialize 0004  
                                     intlevel1 0000                         __size_of_USBDeviceInit 00B5  
      __end_of_USER_USB_CALLBACK_EVENT_HANDLER 0AA8       __size_of_USER_USB_CALLBACK_EVENT_HANDLER 0032  
             ?_USER_USB_CALLBACK_EVENT_HANDLER 0060              ??_USER_USB_CALLBACK_EVENT_HANDLER 007E  
              _USER_USB_CALLBACK_EVENT_HANDLER 0A76                              ??i1_USBDeviceInit 0070  
                      ?_PIN_MANAGER_Initialize 0070                 __end_of_EUSART_SetErrorHandler 0875  
                       ??_USBConfigureEndpoint 0071                          ?_USBCtrlTrfOutHandler 0070  
                                     printf@ap 0267                            _USBCtrlTrfRxService 045A  
EUSART_SetFramingErrorHandler@interruptHandler 00A5                             _USBWakeFromSuspend 097D  
                      _USBStdFeatureReqHandler 0061                                    ??_vfpfcnvrt 00AF  
                           _USBCheckCDCRequest 0D12                            _USBCtrlTrfTxService 0EF5  
                                __pstringtext1 10AB                                  __pstringtext2 10B1  
                                __pstringtext3 1000                                  __pstringtext4 1043  
                                __pstringtext5 1077                                  __pstringtext6 1091  
                                __pstringtext7 10A3                                  __pstringtext8 0000  
                          ?_USBWakeFromSuspend 0070                          ??_USBCtrlTrfInHandler 0073  
                        _USBAlternateInterface 01EE                            ?_USBCheckCDCRequest 0070  
                          USBEnableEndpoint@ep 007C                                _endpoint_number 01E9  
                         ?_USBCtrlTrfRxService 0070                             EUSART_Write@txData 00A5  
               __end_of_PIN_MANAGER_Initialize 08EC                       ?_USBCtrlEPAllowDataStage 0070  
                         ?_USBCtrlTrfTxService 0070                   _USBStatusStageTimeoutCounter 01E7  
                         ??_USBWakeFromSuspend 0066                     USBTransferOnePacket@handle 0079  
                         ??_USBCheckCDCRequest 0070                                     _USB_CD_Ptr 10B1  
